(lp0
(lp1
Vjerry
p2
a(lp3
Vgood
p4
aVnews
p5
aV,
p6
aVbad
p7
aVnews
p8
aVwritten
p9
aVby
p10
aVlarry
p11
aVdavid
p12
aV&
p13
aVjerry
p14
aVseinfeld
p15
aVyou
p16
aVknow
p17
ag6
aVwhy
p18
aVwe
p19
aV're
p20
aVhere
p21
aV?
p22
aVto
p23
aVbe
p24
aVout
p25
ag6
aVthis
p26
aVis
p27
aVout
p28
aVand
p29
aVout
p30
aVis
p31
aVone
p32
aVof
p33
aVthe
p34
aVsingle
p35
aVmost
p36
aVenjoyable
p37
aVexperiences
p38
aVof
p39
aVlife
p40
aV.
p41
aVpeople
p42
aVdid
p43
aVyou
p44
aVever
p45
aVhear
p46
aVpeople
p47
aVtalking
p48
aVabout
p49
aVwe
p50
aVshould
p51
aVgo
p52
aVout
p53
ag22
aVthis
p54
aVis
p55
aVwhat
p56
aVthey
p57
aV're
p58
aVtalking
p59
aVabout
p60
aVthis
p61
aVwhole
p62
aVthing
p63
ag6
aVwe
p64
aV're
p65
aVall
p66
aVout
p67
aVnow
p68
ag6
aVno
p69
aVone
p70
aVis
p71
aVhome
p72
ag41
aVnot
p73
aVone
p74
aVperson
p75
aVhere
p76
aVis
p77
aVhome
p78
ag6
aVwe
p79
aV're
p80
aVall
p81
aVout
p82
aV!
p83
aVthere
p84
aVare
p85
aVpeople
p86
aVtryin
p87
aV'
p88
aVto
p89
aVfind
p90
aVus
p91
ag6
aVthey
p92
aVdo
p93
aVn't
p94
aVknow
p95
aVwhere
p96
aVwe
p97
aVare
p98
ag41
aVdid
p99
aVyou
p100
aVring
p101
ag22
ag6
aVi
p102
aVca
p103
aVn't
p104
aVfind
p105
aVhim
p106
ag41
aVwhere
p107
aVdid
p108
aVhe
p109
aVgo
p110
ag22
aVhe
p111
aVdid
p112
aVn't
p113
aVtell
p114
aVme
p115
aVwhere
p116
aVhe
p117
aVwas
p118
aVgoing
p119
ag41
aVhe
p120
aVmust
p121
aVhave
p122
aVgone
p123
aVout
p124
ag41
aVyou
p125
aVwan
p126
aVna
p127
aVgo
p128
aVout
p129
aVyou
p130
aVget
p131
aVready
p132
ag6
aVyou
p133
aVpick
p134
aVout
p135
aVthe
p136
aVclothes
p137
ag6
aVright
p138
ag22
aVyou
p139
aVtake
p140
aVthe
p141
aVshower
p142
ag6
aVyou
p143
aVget
p144
aVall
p145
aVready
p146
ag6
aVget
p147
aVthe
p148
aVcash
p149
ag6
aVget
p150
aVyour
p151
aVfriends
p152
ag6
aVthe
p153
aVcar
p154
ag6
aVthe
p155
aVspot
p156
ag6
aVthe
p157
aVreservation
p158
aVthere
p159
aVyou
p160
aV're
p161
aVstaring
p162
aVaround
p163
ag6
aVwhatta
p164
aVyou
p165
aVdo
p166
ag22
aVyou
p167
aVgo
p168
aVwe
p169
aVgot
p170
aVta
p171
aVbe
p172
aVgetting
p173
aVback
p174
ag41
aVonce
p175
aVyou
p176
aV're
p177
aVout
p178
ag6
aVyou
p179
aVwan
p180
aVna
p181
aVget
p182
aVback
p183
ag83
aVyou
p184
aVwan
p185
aVna
p186
aVgo
p187
aVto
p188
aVsleep
p189
ag6
aVyou
p190
aVwan
p191
aVna
p192
aVget
p193
aVup
p194
ag6
aVyou
p195
aVwan
p196
aVna
p197
aVgo
p198
aVout
p199
aVagain
p200
aVtomorrow
p201
ag6
aVright
p202
ag22
aVwhere
p203
aVever
p204
aVyou
p205
aVare
p206
aVin
p207
aVlife
p208
ag6
aVit
p209
aV's
p210
aVmy
p211
aVfeeling
p212
ag6
aVyou
p213
aV've
p214
aVgot
p215
aVta
p216
aVgo
p217
ag41
aaa(lp218
Vjerry
p219
a(lp220
Vseems
p221
aVto
p222
aVme
p223
ag6
aVthat
p224
aVbutton
p225
aVis
p226
aVin
p227
aVthe
p228
aVworst
p229
aVpossible
p230
aVspot
p231
ag41
aVthe
p232
aVsecond
p233
aVbutton
p234
aVliterally
p235
aVmakes
p236
aVor
p237
aVbreaks
p238
aVthe
p239
aVshirt
p240
ag6
aVlook
p241
aVat
p242
aVit
p243
aVit
p244
aV's
p245
aVtoo
p246
aVhigh
p247
ag83
aVit
p248
aV's
p249
aVin
p250
aVno-man's-land
p251
ag6
aVyou
p252
aVlook
p253
aVlike
p254
aVyou
p255
aVlive
p256
aVwith
p257
aVyour
p258
aVmother
p259
ag41
aaa(lp260
Vgeorge
p261
a(lp262
Vare
p263
aVyou
p264
aVthrough
p265
ag22
aaa(lp266
Vjerry
p267
a(lp268
Vyou
p269
aVdo
p270
aVof
p271
aVcourse
p272
aVtry
p273
aVon
p274
ag6
aVwhen
p275
aVyou
p276
aVbuy
p277
ag22
aaa(lp278
Vgeorge
p279
a(lp280
Vyes
p281
ag6
aVit
p282
aVwas
p283
aVpurple
p284
ag6
ag102
aVliked
p285
aVit
p286
ag6
ag102
aVdo
p287
aVn't
p288
aVactually
p289
aVrecall
p290
aVconsidering
p291
aVthe
p292
aVbuttons
p293
ag41
aaa(lp294
Vjerry
p295
a(lp296
Voh
p297
ag6
aVyou
p298
aVdo
p299
aVn't
p300
aVrecall
p301
ag22
aaa(lp302
Vgeorge
p303
a(lp304
Vuh
p305
ag6
aVno
p306
ag6
aVnot
p307
aVat
p308
aVthis
p309
aVtime
p310
ag41
aaa(lp311
Vjerry
p312
a(lp313
Vwell
p314
ag6
aVsenator
p315
ag6
ag102
aVjust
p316
aVlike
p317
aVto
p318
aVknow
p319
ag6
aVwhat
p320
aVyou
p321
aVknew
p322
aVand
p323
aVwhen
p324
aVyou
p325
aVknew
p326
aVit
p327
ag41
aaa(lp328
Vwaitress
p329
a(lp330
Vmister
p331
aVseinfeld
p332
ag41
aVmister
p333
aVcostanza
p334
ag41
aaa(lp335
Vgeorge
p336
a(lp337
Vare
p338
ag6
aVare
p339
aVyou
p340
aVsure
p341
aVthis
p342
aVis
p343
aVdecaf
p344
ag22
aVwhere
p345
aV's
p346
aVthe
p347
aVorange
p348
aVindicator
p349
ag22
aaa(lp350
Vwaitress
p351
a(lp352
Vit
p353
aV's
p354
aVmissing
p355
ag6
ag102
aVhave
p356
aVto
p357
aVdo
p358
aVit
p359
aVin
p360
aVmy
p361
aVhead
p362
aVdecaf
p363
aVleft
p364
ag6
aVregular
p365
aVright
p366
ag6
aVdecaf
p367
aVleft
p368
ag6
aVregular
p369
aVright
p370
aVit
p371
aV's
p372
aVvery
p373
aVchallenging
p374
aVwork
p375
ag41
aaa(lp376
Vjerry
p377
a(lp378
Vcan
p379
aVyou
p380
aVrelax
p381
ag6
aVit
p382
aV's
p383
aVa
p384
aVcup
p385
aVof
p386
aVcoffee
p387
ag6
aVclaire
p388
aVis
p389
ag384
aVprofessional
p390
aVwaitress
p391
ag41
aaa(lp392
Vwaitress
p393
a(lp394
Vtrust
p395
aVme
p396
aVgeorge
p397
aVno
p398
aVone
p399
aVhas
p400
aVany
p401
aVinterest
p402
aVin
p403
aVseeing
p404
aVyou
p405
aVon
p406
aVcaffeine
p407
ag41
aaa(lp408
Vgeorge
p409
a(lp410
Vhow
p411
aVcome
p412
aVyou
p413
aV're
p414
aVnot
p415
aVdoin
p416
ag88
aVthe
p417
aVsecond
p418
aVshow
p419
aVtomorrow
p420
ag22
aaa(lp421
Vjerry
p422
a(lp423
Vwell
p424
ag6
aVthere
p425
aV's
p426
aVthis
p427
aVuh
p428
ag6
aVwoman
p429
aVmight
p430
aVbe
p431
aVcomin
p432
ag88
aVin
p433
ag41
aaa(lp434
Vgeorge
p435
a(lp436
Vwait
p437
ag384
aVsecond
p438
ag6
aVwait
p439
ag384
aVsecond
p440
ag6
aVwhat
p441
aVcoming
p442
aVin
p443
ag6
aVwhat
p444
aVwoman
p445
aVis
p446
aVcoming
p447
aVin
p448
ag22
aaa(lp449
Vjerry
p450
a(lp451
g102
aVtold
p452
aVyou
p453
aVabout
p454
aVlaura
p455
ag6
aVthe
p456
aVgirl
p457
ag102
aVmet
p458
aVin
p459
aVmichigan
p460
ag22
aaa(lp461
Vgeorge
p462
a(lp463
Vno
p464
ag6
aVyou
p465
aVdid
p466
aVn't
p467
ag83
aaa(lp468
Vjerry
p469
a(lp470
g102
aVthought
p471
ag102
aVtold
p472
aVyou
p473
aVabout
p474
aVit
p475
ag6
aVyes
p476
ag6
aVshe
p477
aVteaches
p478
aVpolitical
p479
aVscience
p480
ag22
ag102
aVmet
p481
aVher
p482
aVthe
p483
aVnight
p484
ag102
aVdid
p485
aVthe
p486
aVshow
p487
aVin
p488
aVlansing
p489
aVthere
p490
aV's
p491
aVno
p492
aVmilk
p493
aVin
p494
aVhere
p495
ag6
aVwhat
p496
aaa(lp497
Vgeorge
p498
a(lp499
Vwait
p500
aVwait
p501
aVwait
p502
ag6
aVwhat
p503
aVis
p504
aVshe
p505
ag6
aVwhat
p506
aVis
p507
aVshe
p508
aVlike
p509
ag22
aaa(lp510
Vjerry
p511
a(lp512
Voh
p513
ag6
aVshe
p514
aV's
p515
aVreally
p516
aVgreat
p517
ag41
ag102
aVmean
p518
ag6
aVshe
p519
aV's
p520
aVgot
p521
aVlike
p522
ag384
aVreal
p523
aVwarmth
p524
aVabout
p525
aVher
p526
aVand
p527
aVshe
p528
aV's
p529
aVreally
p530
aVbright
p531
aVand
p532
aVreally
p533
aVpretty
p534
aVand
p535
aVuh
p536
aVthe
p537
aVconversation
p538
aVthough
p539
ag6
ag102
aVmean
p540
ag6
aVit
p541
aVwas
p542
aVtalking
p543
aVwith
p544
aVher
p545
aVis
p546
aVlike
p547
aVtalking
p548
aVwith
p549
aVyou
p550
ag6
aVbut
p551
ag6
aVya
p552
aVknow
p553
ag6
aVobviously
p554
aVmuch
p555
aVbetter
p556
ag41
aaa(lp557
Vgeorge
p558
a(lp559
Vso
p560
ag6
aVya
p561
aVknow
p562
ag6
aVwhat
p563
ag6
aVwhat
p564
aVhappened
p565
ag22
aaa(lp566
Vjerry
p567
a(lp568
Voh
p569
ag6
aVnothing
p570
aVhappened
p571
ag6
aVya
p572
aVknow
p573
ag6
aVbut
p574
aVit
p575
aVwas
p576
aVgreat
p577
ag41
aaa(lp578
Vgeorge
p579
a(lp580
Voh
p581
ag6
aVnothing
p582
aVhappened
p583
ag6
aVbut
p584
aVit
p585
aVwas
p586
aaa(lp587
Vjerry
p588
a(lp589
Vyeah
p590
ag41
aaa(lp591
Vgeorge
p592
a(lp593
Vthis
p594
aVis
p595
aVgreat
p596
ag83
aaa(lp597
Vjerry
p598
a(lp599
Vyeah
p600
ag41
aaa(lp601
Vgeorge
p602
a(lp603
Vso
p604
ag6
aVya
p605
aVknow
p606
ag6
aVshe
p607
aVcalls
p608
aVand
p609
aVsays
p610
aVshe
p611
aVwants
p612
aVto
p613
aVgo
p614
aVout
p615
aVwith
p616
aVyou
p617
aVtomorrow
p618
aVnight
p619
ag22
aVgod
p620
aVbless
p621
ag83
aVdevil
p622
aVyou
p623
ag83
aaa(lp624
Vjerry
p625
a(lp626
Vyeah
p627
ag6
aVwell
p628
aVnot
p629
aVexactly
p630
ag41
ag102
aVmean
p631
ag6
aVshe
p632
aVsaid
p633
ag6
aVyou
p634
aVknow
p635
ag6
aVshe
p636
aVcalled
p637
aVthis
p638
aVmorning
p639
aVand
p640
aVsaid
p641
aVshe
p642
aVhad
p643
aVto
p644
aVcome
p645
aVin
p646
aVfor
p647
ag384
aVseminar
p648
aVand
p649
aVmaybe
p650
aVwe
p651
aV'll
p652
aVget
p653
aVtogether
p654
ag41
aaa(lp655
Vgeorge
p656
a(lp657
Vho
p658
aVho
p659
aVho
p660
ag6
aVhad
p661
aVto
p662
ag22
aVhad
p663
aVto
p664
aVcome
p665
aVin
p666
ag22
aaa(lp667
Vjerry
p668
a(lp669
Vyeah
p670
ag6
aVbut
p671
aaa(lp672
Vgeorge
p673
a(lp674
Vhad
p675
aVto
p676
aVcome
p677
aVin
p678
aVand
p679
aVmaybe
p680
aVwe
p681
aV'll
p682
aVget
p683
aVtogether
p684
ag22
aVhad
p685
aVto
p686
aVand
p687
aVmaybe
p688
ag22
aaa(lp689
Vjerry
p690
a(lp691
Vyeah
p692
ag83
aaa(lp693
Vgeorge
p694
a(lp695
Vno
p696
aVno
p697
aVno
p698
ag6
ag102
aVhate
p699
aVto
p700
aVtell
p701
aVyou
p702
aVthis
p703
aVyou
p704
aV're
p705
aVnot
p706
aVgon
p707
aVna
p708
aVsee
p709
aVthis
p710
aVwoman
p711
ag41
aaa(lp712
Vjerry
p713
a(lp714
Vwhat
p715
ag6
aVare
p716
aVyou
p717
aVserious
p718
aVwhy
p719
ag6
aVwhy
p720
aVdid
p721
aVshe
p722
aVcall
p723
ag22
aaa(lp724
Vgeorge
p725
a(lp726
Vhow
p727
aVdo
p728
ag102
aVknow
p729
ag6
aVmaybe
p730
ag6
aVya
p731
aVknow
p732
ag6
aVmaybe
p733
aVshe
p734
aVwanted
p735
aVto
p736
aVbe
p737
aVpolite
p738
ag41
aaa(lp739
Vjerry
p740
a(lp741
Vto
p742
aVbe
p743
aVpolite
p744
ag22
aVyou
p745
aVare
p746
aVinsane
p747
ag83
aaa(lp748
Vgeorge
p749
a(lp750
Vall
p751
aVright
p752
ag6
aVall
p753
aVright
p754
ag6
ag102
aVdid
p755
aVn't
p756
aVwant
p757
aVto
p758
aVtell
p759
aVyou
p760
aVthis
p761
ag6
aVyou
p762
aVwan
p763
aVna
p764
aVknow
p765
aVwhy
p766
aVshe
p767
aVcalled
p768
aVyou
p769
ag22
aaa(lp770
Vjerry
p771
a(lp772
Vyes
p773
ag83
aaa(lp774
Vgeorge
p775
a(lp776
Vyou
p777
aV're
p778
ag384
aVback-up
p779
ag6
aVyou
p780
aV're
p781
ag384
aVsecond-line
p782
ag6
ag384
aVjust-in-case
p783
ag6
ag384
aVb-plan
p784
aVof
p785
aVcontingency
p786
ag83
aaa(lp787
Vjerry
p788
a(lp789
Voh
p790
ag6
ag102
aVget
p791
aVit
p792
ag6
aVthis
p793
aVis
p794
aVabout
p795
aVthe
p796
aVbutton
p797
ag41
aaa(lp798
Vgeorge
p799
a(lp800
Vpasses
p801
aVthe
p802
aVtable
p803
aVgeorge
p804
aVstops
p805
aVher
p806
aVand
p807
aVwrites
p808
aVsomething
p809
aVon
p810
aVhis
p811
aVnote-block
p812
aV)
p813
aVclaire
p814
ag6
aVclaire
p815
ag6
aVyou
p816
aV're
p817
ag384
aVwoman
p818
ag6
aVright
p819
ag22
aaa(lp820
Vclaire
p821
a(lp822
Vwhat
p823
aVgave
p824
aVit
p825
aVaway
p826
ag6
aVgeorge
p827
ag22
aaa(lp828
Vgeorge
p829
a(lp830
Vuhm
p831
ag102
aV'd
p832
aVlike
p833
aVto
p834
aVask
p835
aVyou
p836
aVask
p837
aVyou
p838
aVto
p839
aVanalyze
p840
ag384
aVhypothetical
p841
aVphone
p842
aVcall
p843
ag6
aVya
p844
aVknow
p845
ag6
aVfrom
p846
ag384
aVfemale
p847
aVpoint
p848
aVof
p849
aVview
p850
ag41
aaa(lp851
Vjerry
p852
a(lp853
Voh
p854
ag6
aVcome
p855
aVon
p856
aVnow
p857
ag6
aVwhat
p858
aVare
p859
aVyou
p860
aVasking
p861
aVher
p862
ag22
aVnow
p863
ag6
aVhow
p864
aVis
p865
aVshe
p866
aVgon
p867
aVna
p868
aVknow
p869
ag22
aaa(lp870
Vgeorge
p871
a(lp872
Vnow
p873
ag6
ag384
aVwoman
p874
aVcalls
p875
aVme
p876
ag6
aVall
p877
aVright
p878
ag22
aVshe
p879
aVsays
p880
aVshe
p881
aVhas
p882
aVto
p883
aVcome
p884
aVto
p885
aVnew
p886
aVyork
p887
aVon
p888
aVbusiness
p889
aaa(lp890
Vjerry
p891
a(lp892
Voh
p893
aVyou
p894
aVare
p895
aVbeautiful
p896
ag83
aaa(lp897
Vgeorge
p898
a(lp899
Vand
p900
ag6
aVand
p901
aVmaybe
p902
aVshe
p903
aV'll
p904
aVsee
p905
aVme
p906
aVwhen
p907
aVshe
p908
aVgets
p909
aVthere
p910
ag6
aVdoes
p911
aVthis
p912
aVwoman
p913
aVintend
p914
aVto
p915
aVspend
p916
aVtime
p917
aVwith
p918
aVme
p919
ag22
aaa(lp920
Vclaire
p921
a(lp922
g102
aV'd
p923
aVhave
p924
aVto
p925
aVsay
p926
aVuuhh
p927
ag6
aVno
p928
ag41
aaa(lp929
Vgeorge
p930
a(lp931
Vso
p932
aVwhy
p933
aVdid
p934
aVshe
p935
aVcall
p936
ag22
aaa(lp937
Vclaire
p938
a(lp939
Vto
p940
aVbe
p941
aVpolite
p942
ag41
aaa(lp943
Vgeorge
p944
a(lp945
Vto
p946
aVbe
p947
aVpolite
p948
ag6
ag102
aVrest
p949
aVmy
p950
aVcase
p951
ag41
aaa(lp952
Vjerry
p953
a(lp954
Vgood
p955
ag41
aVdid
p956
aVyou
p957
aVhave
p958
aVfun
p959
ag22
aVyou
p960
aVhave
p961
aVno
p962
aVidea
p963
ag6
aVwhat
p964
aVyou
p965
aV're
p966
aVtalking
p967
aVabout
p968
ag6
aVnow
p969
ag6
aVcome
p970
aVon
p971
ag6
aVcome
p972
aVwith
p973
aVme
p974
ag6
ag102
ag6
ag102
aVgot
p975
aVta
p976
aVgo
p977
aVget
p978
aVmy
p979
aVstuff
p980
aVout
p981
aVof
p982
aVthe
p983
aVdryer
p984
aVanyway
p985
ag41
aaa(lp986
Vgeorge
p987
a(lp988
g102
aV'm
p989
aVnot
p990
aVgon
p991
aVna
p992
aVwatch
p993
aVyou
p994
aVdo
p995
aVlaundry
p996
ag41
aaa(lp997
Vjerry
p998
a(lp999
Voh
p1000
ag6
aVcome
p1001
aVon
p1002
ag6
aVbe
p1003
ag384
aVcome-with-guy
p1004
ag41
aaa(lp1005
Vgeorge
p1006
a(lp1007
Vcome
p1008
aVon
p1009
ag6
ag102
aV'm
p1010
aVtired
p1011
ag41
aaa(lp1012
Vclaire
p1013
a(lp1014
Vdo
p1015
aVn't
p1016
aVworry
p1017
ag6
ag102
aVgave
p1018
aVhim
p1019
ag384
aVlittle
p1020
aVcaffeine
p1021
aVhe
p1022
aV'll
p1023
aVperk
p1024
aVup
p1025
ag41
aaa(lp1026
Vgeorge
p1027
a(lp1028
Vright
p1029
ag6
ag102
aVknew
p1030
ag102
aVfelt
p1031
aVsomething
p1032
ag83
aaa(lp1033
Vgeorge
p1034
a(lp1035
Vjerry
p1036
ag22
ag102
aVhave
p1037
aVto
p1038
aVtell
p1039
aVya
p1040
aVsomethin
p1041
ag88
aVthis
p1042
aVis
p1043
aVthe
p1044
aVdullest
p1045
aVmoment
p1046
ag102
aV've
p1047
aVever
p1048
aVexperienced
p1049
ag41
aaa(lp1050
Vjerry
p1051
a(lp1052
Vwell
p1053
ag6
aVlook
p1054
aVat
p1055
aVthis
p1056
aVguy
p1057
ag83
aVlook
p1058
ag6
aVhe
p1059
aV's
p1060
aVgot
p1061
aVeverything
p1062
ag6
aVhe
p1063
aV's
p1064
aVgot
p1065
aVdetergents
p1066
ag6
aVsprays
p1067
ag6
aVfabric
p1068
aVsofteners
p1069
aVthis
p1070
aVis
p1071
aVnot
p1072
aVhis
p1073
aVfirst
p1074
aVload
p1075
ag41
aaa(lp1076
Vgeorge
p1077
a(lp1078
g102
aVneed
p1079
ag384
aVbreak
p1080
ag6
aVjerry
p1081
ag6
aVya
p1082
aVknow
p1083
ag6
ag102
aVgot
p1084
aVta
p1085
aVget
p1086
aVout
p1087
aVof
p1088
aVthe
p1089
aVcity
p1090
ag6
ag102
aVfeel
p1091
aVso
p1092
aVcramped
p1093
aaa(lp1094
Vjerry
p1095
a(lp1096
Vand
p1097
aVyou
p1098
aVdid
p1099
aVn't
p1100
aVeven
p1101
aVhear
p1102
aVhow
p1103
aVshe
p1104
aVsounded
p1105
ag41
aaa(lp1106
Vgeorge
p1107
a(lp1108
Vwhat
p1109
ag22
ag83
aaa(lp1110
Vjerry
p1111
a(lp1112
Vlaura
p1113
ag41
aaa(lp1114
Vgeorge
p1115
a(lp1116
g102
aVca
p1117
aVn't
p1118
aVbelieve
p1119
aVwe
p1120
aValready
p1121
aVdiscussed
p1122
aVthis
p1123
ag83
aaa(lp1124
Vjerry
p1125
a(lp1126
Vyeah
p1127
ag6
aVbut
p1128
aVhow
p1129
aVcould
p1130
aVyou
p1131
aVbe
p1132
aVso
p1133
aVsure
p1134
ag22
aaa(lp1135
Vgeorge
p1136
a(lp1137
V'cause
p1138
aVit
p1139
aV's
p1140
aVsignals
p1141
ag6
aVjerry
p1142
ag6
aVit
p1143
aV's
p1144
aVsignals
p1145
ag83
aVdo
p1146
aVn't
p1147
aVyou
p1148
aVall
p1149
aVright
p1150
ag41
aVdid
p1151
aVshe
p1152
aVeven
p1153
aVask
p1154
aVyou
p1155
ag6
aVwhat
p1156
aVyou
p1157
aVwere
p1158
aVdoin
p1159
ag88
aVtomorrow
p1160
aVnight
p1161
ag6
aVif
p1162
aVyou
p1163
aVwere
p1164
aVbusy
p1165
ag22
aaa(lp1166
Vjerry
p1167
a(lp1168
Vno
p1169
ag41
aaa(lp1170
Vgeorge
p1171
a(lp1172
Vshe
p1173
aVcalls
p1174
aVyou
p1175
aVtoday
p1176
aVand
p1177
aVshe
p1178
aVdoes
p1179
aVn't
p1180
aVmake
p1181
ag384
aVplan
p1182
aVfor
p1183
aVtomorrow
p1184
ag22
aVwhat
p1185
aVis
p1186
aVthat
p1187
ag22
aVit
p1188
aV's
p1189
aVsaturday
p1190
aVnight
p1191
ag83
aaa(lp1192
Vjerry
p1193
a(lp1194
Vyeah
p1195
ag41
aaa(lp1196
Vgeorge
p1197
a(lp1198
Vwhat
p1199
aVis
p1200
aVthat
p1201
ag22
aVit
p1202
aV's
p1203
aVridiculous
p1204
ag83
aVyou
p1205
aVdo
p1206
aVn't
p1207
aVeven
p1208
aVknow
p1209
ag6
aVwhat
p1210
aVhotel
p1211
aVshe
p1212
aV's
p1213
aVstaying
p1214
aVat
p1215
ag6
aVyou
p1216
aVca
p1217
aVn't
p1218
aVcall
p1219
aVher
p1220
ag41
aVthat
p1221
aV's
p1222
ag384
aVsignal
p1223
ag6
aVjerry
p1224
ag6
aVthat
p1225
aV's
p1226
ag384
aVsignal
p1227
ag83
aVsignal
p1228
ag83
aaa(lp1229
Vjerry
p1230
a(lp1231
Vmaybe
p1232
aVyou
p1233
aV're
p1234
aVright
p1235
ag41
aaa(lp1236
Vgeorge
p1237
a(lp1238
Vmaybe
p1239
ag102
aV'm
p1240
aVright
p1241
ag22
aVof
p1242
aVcourse
p1243
ag102
aV'm
p1244
aVright
p1245
ag41
aaa(lp1246
Vjerry
p1247
a(lp1248
Vthis
p1249
aVis
p1250
aVinsane
p1251
ag41
aVyou
p1252
aVknow
p1253
ag6
ag102
aVdo
p1254
aVn't
p1255
aVeven
p1256
aVknow
p1257
aVwhere
p1258
aVshe
p1259
aV's
p1260
aVstaying
p1261
ag83
aVshe
p1262
ag6
aVshe
p1263
aV's
p1264
aVnot
p1265
aVgon
p1266
aVna
p1267
aVcall
p1268
aVme
p1269
ag6
aVthis
p1270
aVis
p1271
aVunbelievable
p1272
ag41
aaa(lp1273
Vgeorge
p1274
a(lp1275
g102
aVknow
p1276
ag6
ag102
aVknow
p1277
ag41
aVlisten
p1278
ag6
aVyour
p1279
aVstuff
p1280
aVhas
p1281
aVto
p1282
aVbe
p1283
aVdone
p1284
aVby
p1285
aVknow
p1286
ag6
aVwhy
p1287
aVdo
p1288
aVn't
p1289
aVyou
p1290
aVjust
p1291
aVsee
p1292
aVif
p1293
aVit
p1294
aV's
p1295
aVdried
p1296
ag22
aaa(lp1297
Vjerry
p1298
a(lp1299
Vno
p1300
aVno
p1301
aVno
p1302
ag6
aVdo
p1303
aVn't
p1304
aVinterrupt
p1305
aVthe
p1306
aVcycle
p1307
ag41
aVthe
p1308
aVmachine
p1309
aVis
p1310
aVworking
p1311
ag6
aVit
p1312
ag6
aVit
p1313
aVknows
p1314
aVwhat
p1315
aVit
p1316
aV's
p1317
aVdoing
p1318
ag6
aVjust
p1319
aVlet
p1320
aVit
p1321
aVfinish
p1322
ag41
aaa(lp1323
Vgeorge
p1324
a(lp1325
Vyou
p1326
aV're
p1327
aVgon
p1328
aVna
p1329
aVoverdry
p1330
aVit
p1331
ag41
aaa(lp1332
Vjerry
p1333
a(lp1334
Vyou
p1335
ag6
aVyou
p1336
aVca
p1337
aVn't
p1338
aVoverdry
p1339
ag41
aaa(lp1340
Vgeorge
p1341
a(lp1342
Vwhy
p1343
aVnot
p1344
ag22
aaa(lp1345
Vjerry
p1346
a(lp1347
Vsame
p1348
aVas
p1349
aVyou
p1350
aVca
p1351
aVn't
p1352
aVoverwet
p1353
ag41
aVyou
p1354
aVsee
p1355
ag6
aVonce
p1356
aVsomething
p1357
aVis
p1358
aVwet
p1359
ag6
aVit
p1360
aV's
p1361
aVwet
p1362
ag41
aVsame
p1363
aVthing
p1364
aVwith
p1365
aVdead
p1366
aVlike
p1367
aVonce
p1368
aVyou
p1369
aVdie
p1370
aVyou
p1371
aV're
p1372
aVdead
p1373
ag6
aVright
p1374
ag22
aVlet
p1375
aV's
p1376
aVsay
p1377
aVyou
p1378
aVdrop
p1379
aVdead
p1380
aVand
p1381
ag102
aVshoot
p1382
aVyou
p1383
aVyou
p1384
aV're
p1385
aVnot
p1386
aVgon
p1387
aVna
p1388
aVdie
p1389
aVagain
p1390
ag6
aVyou
p1391
aV're
p1392
aValready
p1393
aVdead
p1394
ag41
aVyou
p1395
aVca
p1396
aVn't
p1397
aVoverdie
p1398
ag6
aVyou
p1399
aVca
p1400
aVn't
p1401
aVoverdry
p1402
ag41
aaa(lp1403
Vgeorge
p1404
a(lp1405
Vany
p1406
aVquestions
p1407
ag22
aaa(lp1408
Vjerry
p1409
a(lp1410
Vhow
p1411
aVcould
p1412
aVshe
p1413
aVnot
p1414
aVtell
p1415
aVme
p1416
aVwhere
p1417
aVshe
p1418
aVwas
p1419
aVstaying
p1420
ag22
aaa(lp1421
Vgeorge
p1422
a(lp1423
Vlook
p1424
aVat
p1425
aVthat
p1426
aVthey
p1427
aV're
p1428
aVdone
p1429
ag83
aVit
p1430
aV's
p1431
ag384
aVmiracle
p1432
ag83
aaa(lp1433
Vjerry
p1434
a(lp1435
Vlaundry-day
p1436
aVis
p1437
aVthe
p1438
aVonly
p1439
aVexciting
p1440
aVday
p1441
aVin
p1442
aVthe
p1443
aVlive
p1444
aVof
p1445
aVclothes
p1446
ag41
aVit
p1447
aVis
p1448
aVno
p1449
ag6
aVthink
p1450
aVabout
p1451
aVit
p1452
aVthe
p1453
aVwashing
p1454
aVmachine
p1455
aVis
p1456
aVthe
p1457
aVnightclub
p1458
aVof
p1459
aVclothes
p1460
ag41
aVya
p1461
aVknow
p1462
ag6
aVit
p1463
aV's
p1464
aVdark
p1465
ag6
aVthere
p1466
aV's
p1467
aVbubbles
p1468
aVhappening
p1469
ag6
aVthey
p1470
aV're
p1471
aVall
p1472
aVkind
p1473
ag384
aVdancing
p1474
aVaround
p1475
aVin
p1476
aVthere
p1477
aVshirt
p1478
aVgrabs
p1479
aVthe
p1480
aVunderwear
p1481
aVc'mon
p1482
aVbabe
p1483
ag6
aVlet
p1484
aV's
p1485
aVgather
p1486
ag41
aVyou
p1487
aVcome
p1488
aVby
p1489
ag6
aVyou
p1490
aVopen
p1491
aVup
p1492
aVthe
p1493
aVlid
p1494
aVand
p1495
aVthey
p1496
aV'll
p1497
aVsocks
p1498
aVare
p1499
aVthe
p1500
aVmost
p1501
aVamazing
p1502
aVarticle
p1503
aVof
p1504
aVclothing
p1505
ag41
aVthey
p1506
aVhate
p1507
aVtheir
p1508
aVlives
p1509
ag6
aVthey
p1510
aV're
p1511
aVin
p1512
aVthe
p1513
aVshoes
p1514
aVwith
p1515
aVstinky
p1516
aVfeet
p1517
ag6
aVthe
p1518
aVboring
p1519
aVdrawers
p1520
aVthe
p1521
aVdryer
p1522
aVis
p1523
aVtheir
p1524
aVonly
p1525
aVchance
p1526
aVto
p1527
aVescape
p1528
aVand
p1529
aVthey
p1530
aVall
p1531
aVknow
p1532
aVit
p1533
ag41
aVthey
p1534
aVknew
p1535
ag384
aVescape
p1536
aVfrom
p1537
aVthe
p1538
aVdryer
p1539
ag41
aVthey
p1540
aVplan
p1541
aVit
p1542
aVin
p1543
aVthe
p1544
aVhamper
p1545
ag6
aVthe
p1546
aVnight
p1547
aVbefore
p1548
aVtomorrow
p1549
ag6
aVthe
p1550
aVdryer
p1551
ag6
ag102
aV'm
p1552
aVgoin
p1553
ag88
aVyou
p1554
aVwait
p1555
aVhere
p1556
ag83
aVthe
p1557
aVdryer-door
p1558
aVswings
p1559
aVopen
p1560
aVand
p1561
aVthe
p1562
aVsock
p1563
aVis
p1564
aVwaiting
p1565
aVup
p1566
aVagainst
p1567
aVthe
p1568
aVside
p1569
aVwall
p1570
ag41
aVthey
p1571
aVhope
p1572
aVyou
p1573
aVdo
p1574
aVn't
p1575
aVsee
p1576
aVhim
p1577
aVand
p1578
aVthen
p1579
aVhe
p1580
aVgoes
p1581
aVdown
p1582
aVthe
p1583
aVroad
p1584
ag41
aVthey
p1585
aVgot
p1586
aVbuttons
p1587
aVsewed
p1588
aVon
p1589
aVtheir
p1590
aVfaces
p1591
aVjoin
p1592
aVthe
p1593
aVpuppet
p1594
aVshow
p1595
aVso
p1596
aVthey
p1597
aV're
p1598
aVshowing
p1599
aVme
p1600
aVon
p1601
aVtelevision
p1602
aVthe
p1603
aVdetergent
p1604
aVfor
p1605
aVgetting
p1606
aVout
p1607
aVblood-stains
p1608
aVis
p1609
aVthis
p1610
ag384
aVviolent
p1611
aVimage
p1612
aVto
p1613
aVanybody
p1614
ag22
aVblood-stains
p1615
ag22
ag102
aVmean
p1616
ag6
ag102
ag6
aVcome
p1617
aVon
p1618
ag6
aVyou
p1619
aVgot
p1620
ag384
aVt-shirt
p1621
aVwith
p1622
aVblood-stains
p1623
aVall
p1624
aVover
p1625
aVit
p1626
ag6
aVmaybe
p1627
aVlaundry
p1628
aVis
p1629
aVn't
p1630
aVyour
p1631
aVbiggest
p1632
aVproblem
p1633
aVright
p1634
aVnow
p1635
aVmaybe
p1636
aVyou
p1637
aVoughta
p1638
aVget
p1639
aVthe
p1640
aVharpoon
p1641
aVout
p1642
aVyour
p1643
aVchest
p1644
aVfirst
p1645
ag41
aaa(lp1646
Vjerry
p1647
a(lp1648
Vif
p1649
aVyou
p1650
aVknow
p1651
aVwhat
p1652
aVhappened
p1653
aVin
p1654
aVthe
p1655
aVmets-game
p1656
ag6
aVdo
p1657
aVn't
p1658
aVsay
p1659
aVanything
p1660
ag6
ag102
aVtaped
p1661
aVit
p1662
ag6
aVhello
p1663
aVyeah
p1664
ag6
aVno
p1665
ag6
ag102
aV'm
p1666
aVsorry
p1667
ag6
aVyou
p1668
aVhave
p1669
aVthe
p1670
aVwrong
p1671
aVnumber
p1672
aVyeah
p1673
ag6
aVno
p1674
aVyeah
p1675
ag22
aaa(lp1676
Vkramer
p1677
a(lp1678
Vare
p1679
aVyou
p1680
aVup
p1681
ag22
aaa(lp1682
Vjerry
p1683
a(lp1684
Vyeah
p1685
aVyeah
p1686
ag6
aVpeople
p1687
aVdo
p1688
aVmove
p1689
ag83
aVhave
p1690
aVyou
p1691
aVever
p1692
aVseen
p1693
aVthe
p1694
aVbig
p1695
aVtrucks
p1696
aVout
p1697
aVon
p1698
aVthe
p1699
aVstreet
p1700
ag22
aVyeah
p1701
ag6
aVno
p1702
aVproblem
p1703
ag41
aaa(lp1704
Vkramer
p1705
a(lp1706
Vboy
p1707
ag6
aVthe
p1708
aVmets
p1709
aVblew
p1710
aVit
p1711
aVtonight
p1712
ag6
aVhuh
p1713
ag22
aaa(lp1714
Vjerry
p1715
a(lp1716
Vooohhhh
p1717
ag6
aVwhat
p1718
aVare
p1719
aVyou
p1720
aVdoing
p1721
ag22
aVkramer
p1722
ag6
aVit
p1723
aV's
p1724
ag384
aVtape
p1725
ag83
ag102
aVtaped
p1726
aVthe
p1727
aVgame
p1728
ag6
aVit
p1729
aV's
p1730
aVone
p1731
aVo'clock
p1732
aVin
p1733
aVthe
p1734
aVmorning
p1735
ag83
ag102
aVavoided
p1736
aVhuman
p1737
aVcontact
p1738
aVall
p1739
aVnight
p1740
aVto
p1741
aVwatch
p1742
aVthis
p1743
ag41
aaa(lp1744
Vkramer
p1745
a(lp1746
Vhey
p1747
ag6
ag102
aV'm
p1748
aVsorry
p1749
ag6
ag102
aVya
p1750
aVknow
p1751
ag6
ag102
ag6
ag102
aVthought
p1752
aVyou
p1753
aVknew
p1754
aVyou
p1755
aVgot
p1756
aVany
p1757
aVmeat
p1758
ag22
aaa(lp1759
Vjerry
p1760
a(lp1761
Vmeat
p1762
ag22
ag102
aVdo
p1763
aVn't
p1764
ag6
ag102
aVdo
p1765
aVn't
p1766
aVknow
p1767
ag6
aVgo
p1768
aVhunt
p1769
ag83
aVwell
p1770
aVwhat
p1771
ag6
aVwhat
p1772
aVhappened
p1773
aVin
p1774
aVthe
p1775
aVgame
p1776
aVanyway
p1777
ag22
aaa(lp1778
Vkramer
p1779
a(lp1780
Vwhat
p1781
aVhappened
p1782
ag22
aVwell
p1783
ag6
aVthey
p1784
aVstunk
p1785
ag6
aVthat
p1786
aV's
p1787
aVwhat
p1788
aVhappened
p1789
ag83
aVya
p1790
aVknow
p1791
ag6
ag102
aValmost
p1792
aVwound
p1793
aVup
p1794
aVgoing
p1795
aVto
p1796
aVthat
p1797
aVgame
p1798
ag41
aaa(lp1799
Vjerry
p1800
a(lp1801
Vyeah
p1802
aVyou
p1803
aValmost
p1804
aVwent
p1805
aVto
p1806
aVthe
p1807
aVgame
p1808
ag41
aVyou
p1809
aVhave
p1810
aVn't
p1811
aVbeen
p1812
aVout
p1813
aVof
p1814
aVthe
p1815
aVbuilding
p1816
aVin
p1817
aVten
p1818
aVyears
p1819
ag83
aaa(lp1820
Vkramer
p1821
a(lp1822
Vyeah
p1823
ag41
aVare
p1824
aVyou
p1825
aVdone
p1826
aVwith
p1827
aVthis
p1828
ag22
aaa(lp1829
Vjerry
p1830
a(lp1831
Vno
p1832
ag41
aaa(lp1833
Vkramer
p1834
a(lp1835
Vwhen
p1836
aVyou
p1837
aV're
p1838
aVdone
p1839
ag6
aVlet
p1840
aVme
p1841
aVknow
p1842
ag41
aaa(lp1843
Vjerry
p1844
a(lp1845
Vyeah
p1846
ag6
aVyeah
p1847
aVyou
p1848
aVcan
p1849
aVhave
p1850
aVit
p1851
aVtomorrow
p1852
ag41
aaa(lp1853
Vkramer
p1854
a(lp1855
g102
aVthought
p1856
ag102
aVwas
p1857
aVn't
p1858
aVallowed
p1859
aVto
p1860
aVbe
p1861
aVin
p1862
aVhere
p1863
aVthis
p1864
aVweekend
p1865
ag41
aaa(lp1866
Vjerry
p1867
a(lp1868
Vno
p1869
ag6
aVit
p1870
aV's
p1871
aVok
p1872
aVnow
p1873
ag6
aVthat
p1874
ag6
aVthat
p1875
aVgirl
p1876
aVis
p1877
aVnot
p1878
aVcomin
p1879
ag88
aVuh
p1880
ag6
ag102
ag6
ag102
aVmisread
p1881
aVthe
p1882
aVwhole
p1883
aVthing
p1884
ag41
aaa(lp1885
Vkramer
p1886
a(lp1887
Vyou
p1888
aVwant
p1889
aVme
p1890
aVto
p1891
aVtalk
p1892
aVto
p1893
aVher
p1894
ag22
aaa(lp1895
Vjerry
p1896
a(lp1897
g102
aVdo
p1898
aVn't
p1899
aVthink
p1900
aVso
p1901
ag41
aaa(lp1902
Vkramer
p1903
a(lp1904
Voh
p1905
ag6
ag102
aVcan
p1906
aVbe
p1907
aVvery
p1908
aVpersuasive
p1909
ag41
aVdo
p1910
aVyou
p1911
aVknow
p1912
aVthat
p1913
ag102
aVwas
p1914
aValmost
p1915
ag384
aVlawyer
p1916
ag41
aaa(lp1917
Vjerry
p1918
a(lp1919
Vthat
p1920
aVclose
p1921
ag6
aVhuh
p1922
ag22
aaa(lp1923
Vkramer
p1924
a(lp1925
Vyou
p1926
aVbetter
p1927
aVbelieve
p1928
aVit
p1929
ag41
aaa(lp1930
Vjerry
p1931
a(lp1932
Vhello
p1933
aVoh
p1934
ag6
aVhi
p1935
ag6
aVlaura
p1936
ag41
aaa(lp1937
Vkramer
p1938
a(lp1939
Vgive
p1940
aVme
p1941
aVit
p1942
aVlet
p1943
aVme
p1944
aVtalk
p1945
aVto
p1946
aVher
p1947
ag41
aaa(lp1948
Vjerry
p1949
a(lp1950
Vno
p1951
aVbelieve
p1952
aVme
p1953
ag6
ag102
aV'm
p1954
aValways
p1955
aVup
p1956
aVat
p1957
aVthis
p1958
aVhour
p1959
ag41
aVhow
p1960
aVare
p1961
aVyou
p1962
ag22
aVgreat
p1963
aVsure
p1964
aVwhat
p1965
aVtime
p1966
aVdoes
p1967
aVthe
p1968
aVplane
p1969
aVget
p1970
aVin
p1971
ag22
ag102
aVgot
p1972
aVmy
p1973
aVfriend
p1974
aVgeorge
p1975
aVto
p1976
aVtake
p1977
aVme
p1978
aaa(lp1979
Vkramer
p1980
a(lp1981
g384
aVslide
p1982
ag83
aVwow
p1983
ag83
aaa(lp1984
Vjerry
p1985
a(lp1986
Vno
p1987
ag6
aVit
p1988
aV's
p1989
ag6
aVit
p1990
aV's
p1991
aVjust
p1992
aVmy
p1993
aVneighbour
p1994
aVuhm
p1995
aVyeah
p1996
ag6
ag102
aVgot
p1997
aVit
p1998
aVten-fifteen
p1999
aVno
p2000
ag6
aVdo
p2001
aVn't
p2002
aVbe
p2003
aVsilly
p2004
ag6
aVgo
p2005
aVahead
p2006
aVand
p2007
aVask
p2008
aVyeah
p2009
ag6
aVsure
p2010
aVok
p2011
ag6
aVgreat
p2012
ag6
aVno
p2013
aVno
p2014
ag6
aVit
p2015
aV's
p2016
aVno
p2017
aVtrouble
p2018
aVat
p2019
aVall
p2020
ag102
aV'll
p2021
aVsee
p2022
aVyou
p2023
aVtomorrow
p2024
aVgreat
p2025
ag6
aVbye
p2026
ag41
ag102
ag6
ag102
aVdo
p2027
aVn't
p2028
aVbelieve
p2029
aVit
p2030
aVthat
p2031
ag6
aVthat
p2032
aVwas
p2033
aVher
p2034
ag41
aVshe
p2035
aVwants
p2036
aVto
p2037
aVstay
p2038
aVhere
p2039
ag83
aaa(lp2040
Vjerry
p2041
a(lp2042
Vif
p2043
aVmy
p2044
aVfather
p2045
aVwas
p2046
aVmoving
p2047
aVthis
p2048
aVhe
p2049
aV'd
p2050
aVhad
p2051
aVto
p2052
aVhave
p2053
ag384
aVcigarette
p2054
aVin
p2055
aVhis
p2056
aVmouth
p2057
aVthe
p2058
aVwhole
p2059
aVway
p2060
ag41
aVhave
p2061
aVyou
p2062
aVgot
p2063
aVyour
p2064
aVend
p2065
ag22
aVyour
p2066
aVend
p2067
aV's
p2068
aVgot
p2069
aVto
p2070
aVcome
p2071
aVdown
p2072
aVfirst
p2073
ag6
aVeasy
p2074
aVnow
p2075
ag6
aVdrop
p2076
aVit
p2077
aVdown
p2078
aVdrop
p2079
aVit
p2080
aVdown
p2081
ag6
aVyour
p2082
aVend
p2083
aV's
p2084
aVgot
p2085
aVto
p2086
aVcome
p2087
aVdown
p2088
ag41
aaa(lp2089
Vgeorge
p2090
a(lp2091
Vya
p2092
aVknow
p2093
ag6
ag102
aVca
p2094
aVn't
p2095
aVbelieve
p2096
aVyou
p2097
aV're
p2098
aVbringin
p2099
ag88
aVin
p2100
aVan
p2101
aVextra
p2102
aVbed
p2103
aVfor
p2104
aVwoman
p2105
ag6
aVthat
p2106
aVwants
p2107
aVto
p2108
aVsleep
p2109
aVwith
p2110
aVyou
p2111
ag41
aVwhy
p2112
aVdo
p2113
aVn't
p2114
aVyou
p2115
aVbring
p2116
aVin
p2117
aVan
p2118
aVextra
p2119
aVguy
p2120
aVtoo
p2121
ag22
aaa(lp2122
Vjerry
p2123
a(lp2124
Vlook
p2125
ag6
aVit
p2126
aV's
p2127
ag384
aVvery
p2128
aVawkward
p2129
aVsituation
p2130
ag6
ag102
ag6
ag102
aVdo
p2131
aVn't
p2132
aVwan
p2133
aVna
p2134
aVbe
p2135
aVpresumptuous
p2136
ag41
aaa(lp2137
Vgeorge
p2138
a(lp2139
Vall
p2140
aVright
p2141
ag6
aVall
p2142
aVright
p2143
ag6
aVone
p2144
aVmore
p2145
aVtime
p2146
ag6
aVone
p2147
aVmore
p2148
aVtime
p2149
ag83
aVwhat
p2150
aVwas
p2151
aVthe
p2152
aVexact
p2153
aVphrasing
p2154
aVof
p2155
aVthe
p2156
aVrequest
p2157
ag22
aaa(lp2158
Vjerry
p2159
a(lp2160
Vall
p2161
aVright
p2162
ag6
aVshe
p2163
aVsaid
p2164
aVshe
p2165
aVcould
p2166
aVn't
p2167
aVfind
p2168
ag384
aVdecent
p2169
aVhotel-
p2170
aVroom
p2171
aaa(lp2172
Vgeorge
p2173
a(lp2174
g384
aVdecent
p2175
aVhotel-room
p2176
aaa(lp2177
Vjerry
p2178
a(lp2179
Vyeah
p2180
ag6
ag384
aVdecent
p2181
aVhotel-room
p2182
ag6
aVwould
p2183
aVit
p2184
aVbe
p2185
aVterribly
p2186
aVinconvenient
p2187
aVif
p2188
aVshe
p2189
aVstayed
p2190
aVat
p2191
aVmy
p2192
aVplace
p2193
ag41
aaa(lp2194
Vgeorge
p2195
a(lp2196
Vyou
p2197
aVca
p2198
aVn't
p2199
aVbe
p2200
aVserious
p2201
ag41
aVthis
p2202
aVis
p2203
aVnew
p2204
aVyork
p2205
aVcity
p2206
aVthere
p2207
aVmust
p2208
aVbe
p2209
aVeleven
p2210
aVmillion
p2211
aVdecent
p2212
aVhotel-rooms
p2213
ag83
aVwhatta
p2214
aVya
p2215
aVneed
p2216
ag22
ag384
aVflag
p2217
ag22
aVthis
p2218
aVis
p2219
aVthe
p2220
aVsignal
p2221
ag6
aVjerry
p2222
ag6
aVthis
p2223
aVis
p2224
aVthe
p2225
aVsignal
p2226
ag83
aaa(lp2227
Vjerry
p2228
a(lp2229
Vthis
p2230
aVis
p2231
aVthe
p2232
aVsignal
p2233
ag41
aVthank
p2234
aVyou
p2235
ag6
aVmister
p2236
aVsignal
p2237
ag6
aVwhere
p2238
aVwere
p2239
aVyou
p2240
aVyesterday
p2241
ag22
aaa(lp2242
Vgeorge
p2243
a(lp2244
g102
aVthink
p2245
ag102
aVwas
p2246
aVaffected
p2247
aVby
p2248
aVthe
p2249
aVcaffeine
p2250
ag41
aVho
p2251
ag6
aVho
p2252
ag6
aVho
p2253
ag6
aVgood
p2254
aVdog
p2255
aaa(lp2256
Vkramer
p2257
a(lp2258
Vhe
p2259
aVreally
p2260
aVlikes
p2261
aVyou
p2262
ag6
aVgeorge
p2263
ag41
aaa(lp2264
Vgeorge
p2265
a(lp2266
Vwell
p2267
ag6
aVthat
p2268
aV's
p2269
aVflattering
p2270
ag41
aaa(lp2271
Vkramer
p2272
a(lp2273
Voh
p2274
ag6
aVhe
p2275
aV's
p2276
aVgetting
p2277
ag88
ag384
aVdrink
p2278
aVof
p2279
aVwater
p2280
ag41
aVis
p2281
aVthis
p2282
aVfor
p2283
aVthat
p2284
aVgirl
p2285
ag22
aaa(lp2286
Vjerry
p2287
a(lp2288
Vyeah
p2289
ag41
aaa(lp2290
Vkramer
p2291
a(lp2292
Vwhy
p2293
aVeven
p2294
aVgive
p2295
aVher
p2296
aVan
p2297
aVoption
p2298
ag22
aaa(lp2299
Vjerry
p2300
a(lp2301
Vthis
p2302
aVis
p2303
ag384
aVperson
p2304
ag102
aVlike
p2305
ag6
aVit
p2306
aV's
p2307
aVnot
p2308
aVhow
p2309
aVto
p2310
aVscore
p2311
aVon
p2312
aVspring
p2313
aVbreak
p2314
ag41
aaa(lp2315
Vgeorge
p2316
a(lp2317
Vright
p2318
ag6
aVcan
p2319
aVwe
p2320
aVgo
p2321
ag22
aV'cause
p2322
ag102
aV'm
p2323
aVdouble-parked
p2324
ag6
ag102
aV'm
p2325
aVgon
p2326
aVna
p2327
aVget
p2328
ag384
aVticket
p2329
ag41
aaa(lp2330
Vjerry
p2331
a(lp2332
Vyeah
p2333
ag6
aVok.
p2334
aVoh
p2335
ag6
aVwait
p2336
ag384
aVsecond
p2337
ag41
aVoh
p2338
ag6
ag102
ag6
ag102
aVforgot
p2339
aVto
p2340
aVclean
p2341
aVthe
p2342
aVbathroom
p2343
ag41
aaa(lp2344
Vgeorge
p2345
a(lp2346
Vso
p2347
aVwhat
p2348
ag22
aVthat
p2349
aV's
p2350
aVgood
p2351
ag41
aaa(lp2352
Vjerry
p2353
a(lp2354
Vnow
p2355
ag6
aVhow
p2356
aVcould
p2357
aVthat
p2358
aVbe
p2359
aVgood
p2360
ag22
aaa(lp2361
Vgeorge
p2362
a(lp2363
Vbecause
p2364
aVfilth
p2365
aVis
p2366
aVgood
p2367
aVwhatta
p2368
aVyou
p2369
aVthink
p2370
aVrock
p2371
aVstars
p2372
aVhave
p2373
aVsponges
p2374
aVand
p2375
aVammonia
p2376
aVlyin
p2377
ag88
aVaround
p2378
aVthe
p2379
aVbathroom
p2380
ag22
aVthey
p2381
ag6
aVthey
p2382
aVhave
p2383
ag384
aVwoman
p2384
aVcomin
p2385
ag88
aVover
p2386
ag102
aV've
p2387
aVgot
p2388
aVta
p2389
aVtidy
p2390
aVup
p2391
ag22
aVyeah
p2392
aVright
p2393
ag6
aVin
p2394
aVthese
p2395
aVmatters
p2396
aVyou
p2397
aVnever
p2398
aVdo
p2399
aVwhat
p2400
aVyour
p2401
aVinstincts
p2402
aVtell
p2403
aVyou
p2404
ag41
aValways
p2405
ag6
aValways
p2406
aVdo
p2407
aVthe
p2408
aVopposite
p2409
ag41
aaa(lp2410
Vjerry
p2411
a(lp2412
Vthis
p2413
aVis
p2414
aVhow
p2415
aVyou
p2416
aVoperate
p2417
ag22
aaa(lp2418
Vgeorge
p2419
a(lp2420
Vyeah
p2421
ag6
ag102
aVwish
p2422
ag41
aaa(lp2423
Vjerry
p2424
a(lp2425
Vlet
p2426
aVme
p2427
aVjust
p2428
aVwipe
p2429
aVthe
p2430
aVsink
p2431
ag41
aaa(lp2432
Vkramer
p2433
a(lp2434
Vwhy
p2435
aVeven
p2436
aVgive
p2437
aVher
p2438
aVan
p2439
aVoption
p2440
aVfor
p2441
ag22
aVit
p2442
aV's
p2443
aVunbelievable
p2444
ag41
aaa(lp2445
Vgeorge
p2446
a(lp2447
Vyeah
p2448
ag41
aaa(lp2449
Vkramer
p2450
a(lp2451
Vhow
p2452
aV's
p2453
aVthe
p2454
aVreal
p2455
aVestate-business
p2456
ag22
aaa(lp2457
Vgeorge
p2458
a(lp2459
Vit
p2460
aV's
p2461
aVuh
p2462
ag6
aVnot
p2463
aVbad
p2464
ag6
aVit
p2465
aV's
p2466
aVcomin
p2467
ag88
aValong
p2468
aVwhy
p2469
ag22
aVdid
p2470
aVyou
p2471
aVneed
p2472
aVsomething
p2473
ag41
aaa(lp2474
Vkramer
p2475
a(lp2476
Vdo
p2477
aVyou
p2478
aVhandle
p2479
aVany
p2480
aVof
p2481
aVthat
p2482
aVcommercial
p2483
aVreal
p2484
aVestate
p2485
ag22
aaa(lp2486
Vgeorge
p2487
a(lp2488
Vwell
p2489
ag6
ag102
aVmight
p2490
aVbe
p2491
aVgetting
p2492
aVin
p2493
aVto
p2494
aVthat
p2495
ag41
aaa(lp2496
Vkramer
p2497
a(lp2498
Vyou
p2499
aVkeep
p2500
aVme
p2501
aVposted
p2502
ag83
aaa(lp2503
Vgeorge
p2504
a(lp2505
g102
aV'm
p2506
aVaware
p2507
aVof
p2508
aVyou
p2509
ag6
aVall
p2510
aVright
p2511
ag6
aVlet
p2512
aV's
p2513
aVgo
p2514
ag6
aVlet
p2515
aV's
p2516
aVgo
p2517
ag83
aVyou
p2518
aV're
p2519
aVon
p2520
aVstage
p2521
aVin
p2522
aV25
p2523
aVminutes
p2524
ag41
aaa(lp2525
Vjerry
p2526
a(lp2527
Vthe
p2528
aVdating
p2529
aVworld
p2530
aVis
p2531
aVnot
p2532
ag384
aVfun
p2533
aVworld
p2534
aVit
p2535
aV's
p2536
ag384
aVpressure
p2537
aVworld
p2538
ag6
aVit
p2539
aV's
p2540
ag384
aVworld
p2541
aVof
p2542
aVtension
p2543
ag6
aVit
p2544
aV's
p2545
ag384
aVworld
p2546
aVof
p2547
aVpain
p2548
aVand
p2549
aVya
p2550
aVknow
p2551
ag6
aVif
p2552
ag384
aVwoman
p2553
aVcomes
p2554
aVover
p2555
aVto
p2556
aVmy
p2557
aVhouse
p2558
ag6
ag102
aVgot
p2559
aVta
p2560
aVget
p2561
aVthat
p2562
aVbathroom
p2563
aVready
p2564
ag6
aV'cause
p2565
aVshe
p2566
aVneeds
p2567
aVthings
p2568
ag41
aVwomen
p2569
aVneed
p2570
aVequipment
p2571
ag41
ag102
aVdo
p2572
aVn't
p2573
aVknow
p2574
aVwhat
p2575
aVthey
p2576
aVneed
p2577
ag41
ag102
aVknow
p2578
ag102
aVdo
p2579
aVn't
p2580
aVhave
p2581
aVit
p2582
ag6
ag102
aVknow
p2583
aVthat
p2584
aVya
p2585
aVknow
p2586
aVwhat
p2587
aVthey
p2588
aVneed
p2589
ag6
aVwomen
p2590
aVseem
p2591
aVto
p2592
aVneed
p2593
ag384
aVlot
p2594
aVof
p2595
aVcotton-balls
p2596
ag41
aVthis
p2597
aVis
p2598
aVthe
p2599
aVone
p2600
ag102
aV'm
p2601
ag6
aValways
p2602
aVhas
p2603
aVbeen
p2604
aVone
p2605
aVof
p2606
aVthe
p2607
aVamazing
p2608
aVthings
p2609
aVto
p2610
aVme
p2611
ag102
aVhave
p2612
aVno
p2613
aVcotton-balls
p2614
ag6
aVwe
p2615
aV're
p2616
aVall
p2617
aVhuman
p2618
aVbeings
p2619
ag6
aVwhat
p2620
aVis
p2621
aVthe
p2622
aVstory
p2623
ag22
ag102
aV've
p2624
aVnever
p2625
aVhad
p2626
aVone
p2627
ag102
aVnever
p2628
aVbought
p2629
aVone
p2630
ag6
ag102
aVnever
p2631
aVneeded
p2632
aVone
p2633
ag6
ag102
aV've
p2634
aVnever
p2635
aVbeen
p2636
aVin
p2637
ag384
aVsituation
p2638
ag6
aVwhen
p2639
ag102
aVthought
p2640
aVto
p2641
aVmyself
p2642
ag102
aVcould
p2643
aVuse
p2644
ag384
aVcotton-ball
p2645
aVright
p2646
aVnow
p2647
ag102
aVcan
p2648
aVcertainly
p2649
aVget
p2650
aVout
p2651
aVof
p2652
aVthis
p2653
aVmess
p2654
aVwomen
p2655
aVneed
p2656
aVthem
p2657
aVand
p2658
aVthey
p2659
aVdo
p2660
aVn't
p2661
aVneed
p2662
aVone
p2663
aVor
p2664
aVtwo
p2665
ag6
aVthey
p2666
aVneed
p2667
aVthousands
p2668
aVof
p2669
aVthem
p2670
ag6
aVthey
p2671
aVneed
p2672
aVbags
p2673
ag6
aVthey
p2674
aV're
p2675
aVlike
p2676
aVpeat-moss
p2677
aVbags
p2678
ag6
aVhave
p2679
aVyou
p2680
aVever
p2681
aVseen
p2682
aVthese
p2683
aVgiant
p2684
aVbags
p2685
ag22
aVthey
p2686
aV're
p2687
aVhuge
p2688
aVand
p2689
aVtwo
p2690
aVdays
p2691
aVlater
p2692
ag6
aVthey
p2693
aV're
p2694
aVout
p2695
ag6
aVthey
p2696
aV're
p2697
aVgone
p2698
ag6
aVthe
p2699
ag6
aVthe
p2700
aVbag
p2701
aVis
p2702
aVempty
p2703
ag6
aVwhere
p2704
aVare
p2705
aVthe
p2706
aVcotton-balls
p2707
ag6
aVladies
p2708
ag22
aVwhat
p2709
aVare
p2710
aVyou
p2711
aVdoin
p2712
ag88
aVwith
p2713
aVthem
p2714
ag22
aVthe
p2715
aVonly
p2716
aVtime
p2717
ag102
aVever
p2718
aVsee'em
p2719
aVis
p2720
aVin
p2721
aVthe
p2722
aVbottom
p2723
aVof
p2724
aVyour
p2725
aVlittle
p2726
aVwaste
p2727
aVbasket
p2728
ag6
aVthere
p2729
aV's
p2730
aVtwo
p2731
aVor
p2732
aVthree
p2733
ag6
aVthat
p2734
aVlook
p2735
aVlike
p2736
aVthey
p2737
aV've
p2738
aVbeen
p2739
aVthrough
p2740
aVsome
p2741
aVhorrible
p2742
aVexperience
p2743
aVtortured
p2744
ag6
aVinterrogated
p2745
ag6
ag102
aVdo
p2746
aVn't
p2747
aVknow
p2748
aVwhat
p2749
aVhappened
p2750
aVto
p2751
aVthem
p2752
ag102
aVonce
p2753
aVwent
p2754
aVout
p2755
aVwith
p2756
ag384
aVgirl
p2757
aVwho
p2758
aV's
p2759
aVleft
p2760
ag384
aVlittle
p2761
aVzip-lock-baggy
p2762
aVof
p2763
aVcotton-balls
p2764
aVover
p2765
aVmy
p2766
aVhouse
p2767
ag41
ag102
aVdo
p2768
aVn't
p2769
aVknow
p2770
aVwhat
p2771
aVto
p2772
aVdo
p2773
aVwith
p2774
aVthem
p2775
ag6
ag102
aVtook
p2776
aVthem
p2777
aVout
p2778
ag6
ag102
aVput
p2779
aVthem
p2780
aVon
p2781
aVmy
p2782
aVkitchen
p2783
aVfloor
p2784
aVlike
p2785
aVlittle
p2786
aVtumbleweeds
p2787
ag41
ag102
aVthought
p2788
aVmaybe
p2789
aVthe
p2790
aVcockroaches
p2791
aVwould
p2792
aVsee
p2793
aVit
p2794
ag6
aVfigure
p2795
aVthis
p2796
aVis
p2797
ag384
aVdead
p2798
aVtown
p2799
aVlet
p2800
aV's
p2801
aVmove
p2802
aVon
p2803
aVthe
p2804
aVdating
p2805
aVworld
p2806
aVis
p2807
ag384
aVworld
p2808
aVof
p2809
aVpressure
p2810
ag41
aVlet
p2811
aV's
p2812
aVface
p2813
aVit
p2814
ag384
aVdate
p2815
aVis
p2816
ag384
aVjob-interview
p2817
ag6
aVthat
p2818
aVlasts
p2819
aVall
p2820
aVnight
p2821
ag41
aVthe
p2822
aVonly
p2823
aVdifference
p2824
aVbetween
p2825
ag384
aVdate
p2826
aVand
p2827
ag384
aVjob-interview
p2828
aVis
p2829
aVnot
p2830
aVmany
p2831
aVjob-interviews
p2832
aVis
p2833
aVthere
p2834
ag384
aVchance
p2835
aVyou
p2836
aV'll
p2837
aVend
p2838
aVup
p2839
aVnaked
p2840
aVat
p2841
aVthe
p2842
aVend
p2843
aVof
p2844
aVit
p2845
aVya
p2846
aVknow
p2847
aVwell
p2848
ag6
aVbill
p2849
ag6
aVthe
p2850
aVboss
p2851
aVthinks
p2852
aVyou
p2853
aV're
p2854
aVthe
p2855
aVman
p2856
aVfor
p2857
aVthe
p2858
aVposition
p2859
ag6
aVwhy
p2860
aVdo
p2861
aVn't
p2862
aVyou
p2863
aVstrip
p2864
aVdown
p2865
aVand
p2866
aVmeet
p2867
aVsome
p2868
aVof
p2869
aVthe
p2870
aVpeople
p2871
aVyou
p2872
aV'll
p2873
aVbe
p2874
aVworkin
p2875
ag88
aVwith
p2876
ag22
ag41
aaa(lp2877
Vjerry
p2878
a(lp2879
Vwould
p2880
aVn't
p2881
aVit
p2882
aVbe
p2883
aVgreat
p2884
aVif
p2885
aVyou
p2886
aVcould
p2887
aVask
p2888
ag384
aVwoman
p2889
aVwhat
p2890
aVshe
p2891
aV's
p2892
aVthinking
p2893
ag22
aaa(lp2894
Vgeorge
p2895
a(lp2896
Vwhat
p2897
ag384
aVworld
p2898
aVthat
p2899
aVwould
p2900
aVbe
p2901
ag6
aVif
p2902
aVyou
p2903
aVjust
p2904
aVcould
p2905
aVask
p2906
ag384
aVwoman
p2907
aVwhat
p2908
aVshe
p2909
aV's
p2910
aVthinkin
p2911
ag88
ag41
aaa(lp2912
Vjerry
p2913
a(lp2914
Vya
p2915
aVknow
p2916
ag6
aVinstead
p2917
ag6
ag102
aV'm
p2918
aVlike
p2919
ag384
aVdetective
p2920
ag102
aV've
p2921
aVgot
p2922
aVta
p2923
aVpick
p2924
aVup
p2925
aVclues
p2926
ag6
aVthe
p2927
aVwhole
p2928
aVthing
p2929
aVis
p2930
ag384
aVmurder
p2931
aVinvestigation
p2932
ag41
aaa(lp2933
Vgeorge
p2934
a(lp2935
Vlisten
p2936
ag6
aVlisten
p2937
ag6
aVdo
p2938
aVn't
p2939
aVget
p2940
aVworked
p2941
aVup
p2942
ag6
aV'cause
p2943
aVyou
p2944
aV're
p2945
aVgon
p2946
aVna
p2947
aVknow
p2948
aVthe
p2949
aVwhole
p2950
aVstory
p2951
aVthe
p2952
aVminute
p2953
aVshe
p2954
aVsteps
p2955
aVoff
p2956
aVthe
p2957
aVplane
p2958
ag41
aaa(lp2959
Vjerry
p2960
a(lp2961
Vreally
p2962
ag22
aVhow
p2963
ag22
aaa(lp2964
Vgeorge
p2965
a(lp2966
V'cause
p2967
aVit
p2968
aV's
p2969
aVall
p2970
aVin
p2971
aVthe
p2972
aVgreeting
p2973
ag41
aaa(lp2974
Vjerry
p2975
a(lp2976
Vuh-huh
p2977
ag41
aaa(lp2978
Vgeorge
p2979
a(lp2980
Vall
p2981
aVright
p2982
ag6
aVif
p2983
aVshe
p2984
aVputs
p2985
aVthe
p2986
aVbags
p2987
aVdown
p2988
aVbefore
p2989
aVshe
p2990
aVgreets
p2991
aVyou
p2992
ag6
aVthat
p2993
aV's
p2994
ag384
aVgood
p2995
aVsign
p2996
ag41
aaa(lp2997
Vjerry
p2998
a(lp2999
Vright
p3000
ag41
aaa(lp3001
Vgeorge
p3002
a(lp3003
Vya
p3004
aVknow
p3005
ag6
aVanything
p3006
aVin
p3007
aVthe
p3008
ag6
aVin
p3009
aVthe
p3010
aVlip-area
p3011
aVis
p3012
aVgood
p3013
ag41
aaa(lp3014
Vjerry
p3015
a(lp3016
Vlip-area
p3017
ag41
aaa(lp3018
Vgeorge
p3019
a(lp3020
Vya
p3021
aVknow
p3022
ag384
aVhug
p3023
aVdefinitely
p3024
aVgood
p3025
ag41
aaa(lp3026
Vjerry
p3027
a(lp3028
Vhug
p3029
aVis
p3030
aVdefinitely
p3031
aVgood
p3032
ag41
aaa(lp3033
Vgeorge
p3034
a(lp3035
Vsure
p3036
ag41
aaa(lp3037
Vjerry
p3038
a(lp3039
Valthough
p3040
aVwhat
p3041
aVif
p3042
aVit
p3043
aV's
p3044
aVone
p3045
aVof
p3046
aVthose
p3047
aVhugs
p3048
aVwhere
p3049
aVthe
p3050
aVshoulders
p3051
aVare
p3052
aVtouching
p3053
ag6
aVthe
p3054
aVhips
p3055
aVare
p3056
aVeight
p3057
aVfeet
p3058
aVapart
p3059
ag22
aaa(lp3060
Vgeorge
p3061
a(lp3062
Vthat
p3063
aV's
p3064
aVso
p3065
aVbrutal
p3066
ag6
ag102
aVhate
p3067
aVthat
p3068
ag41
aaa(lp3069
Vjerry
p3070
a(lp3071
Vya
p3072
aVknow
p3073
aVhow
p3074
aVthey
p3075
aVdo
p3076
aVthat
p3077
ag22
aaa(lp3078
Vgeorge
p3079
a(lp3080
Vthat
p3081
aV's
p3082
aVwhy
p3083
ag6
aVya
p3084
aVknow
p3085
ag6
ag384
aVshake
p3086
aVis
p3087
aVbad
p3088
ag41
aaa(lp3089
Vjerry
p3090
a(lp3091
Vshake
p3092
aVis
p3093
aVbad
p3094
ag6
aVbut
p3095
aVwhat
p3096
aVif
p3097
aVit
p3098
aV's
p3099
aVthe
p3100
aVtwo-hander
p3101
ag22
aVthe
p3102
aVhand
p3103
aVon
p3104
aVthe
p3105
aVbottom
p3106
ag6
aVthe
p3107
aVhand
p3108
aVon
p3109
aVthe
p3110
aVtop
p3111
ag6
aVthe
p3112
aVwarm
p3113
aVlook
p3114
aVin
p3115
aVthe
p3116
aVeyes
p3117
ag22
aaa(lp3118
Vgeorge
p3119
a(lp3120
Vhand-sandwich
p3121
ag41
aaa(lp3122
Vjerry
p3123
a(lp3124
Vright
p3125
ag41
aaa(lp3126
Vgeorge
p3127
a(lp3128
g102
aVsee
p3129
ag6
aVwell
p3130
ag6
aVthat
p3131
aV's
p3132
aVopen
p3133
aVto
p3134
aVinterpretation
p3135
ag41
aVbecause
p3136
aVso
p3137
aVmuch
p3138
aVdepends
p3139
aVon
p3140
aVthe
p3141
aVlayering
p3142
aVand
p3143
aVthe
p3144
aVquality
p3145
aVof
p3146
aVthe
p3147
aVwetness
p3148
aVin
p3149
aVthe
p3150
aVeyes
p3151
aaa(lp3152
Vlaura
p3153
a(lp3154
Vguess
p3155
aVwho
p3156
ag22
aaa(lp3157
Vjerry
p3158
a(lp3159
Vhey
p3160
ag6
aVhey
p3161
ag41
aaa(lp3162
Vjerry
p3163
a(lp3164
Vheeeey
p3165
ag83
aaa(lp3166
Vlaura
p3167
ag3164
aa(lp3168
Vjerry
p3169
a(lp3170
Vit
p3171
aV's
p3172
aVgood
p3173
aVto
p3174
aVsee
p3175
aVyou
p3176
ag41
aaa(lp3177
Vlaura
p3178
a(lp3179
Vhi
p3180
ag41
aaa(lp3181
Vjerry
p3182
a(lp3183
Vthis
p3184
aVis
p3185
aVmy
p3186
aVfriend
p3187
aVgeorge
p3188
ag41
aaa(lp3189
Vlaura
p3190
a(lp3191
Vhi
p3192
ag6
aVhow
p3193
aVnice
p3194
aVto
p3195
aVmeet
p3196
aVyou
p3197
ag41
aaa(lp3198
Vgeorge
p3199
a(lp3200
Vhi
p3201
ag6
aVhow
p3202
aVare
p3203
aVyou
p3204
ag22
aaa(lp3205
Vjerry
p3206
a(lp3207
Vthis
p3208
aVis
p3209
aVlaura
p3210
ag41
aaa(lp3211
Vgeorge
p3212
a(lp3213
Vlaura
p3214
ag6
aVsure
p3215
ag41
aaa(lp3216
Vjerry
p3217
a(lp3218
g102
aVca
p3219
aVn't
p3220
aVbelieve
p3221
aVyou
p3222
aV're
p3223
aVhere
p3224
ag41
aaa(lp3225
Vjerry
p3226
a(lp3227
Vooh
p3228
aVyeah
p3229
ag6
aVthe
p3230
aVbags
p3231
ag6
aVsure
p3232
ag41
aaa(lp3233
Vgeorge
p3234
ag3227
aa(lp3235
Vlaura
p3236
a(lp3237
Voh
p3238
ag6
aVthank
p3239
aVyou
p3240
ag41
aaa(lp3241
Vjerry
p3242
a(lp3243
Vnow
p3244
aVthat
p3245
aVwas
p3246
aVan
p3247
aVinteresting
p3248
aVgreeting
p3249
ag6
aVdid
p3250
aVyou
p3251
aVnotice
p3252
aVthat
p3253
ag6
aVgeorge
p3254
ag22
aaa(lp3255
Vgeorge
p3256
a(lp3257
Vyes
p3258
ag6
aVthe
p3259
aVsurprise-blindfold-greeting
p3260
ag41
aVthat
p3261
aVwas
p3262
aVn't
p3263
aVin
p3264
aVthe
p3265
aVmanual
p3266
ag6
ag102
aVdo
p3267
aVn't
p3268
aVknow
p3269
ag41
aaa(lp3270
Vjerry
p3271
a(lp3272
Vso
p3273
aVuh
p3274
ag6
aVwhat
p3275
aVdo
p3276
aVya
p3277
aVthink
p3278
ag22
aaa(lp3279
Vlaura
p3280
a(lp3281
Vooohhh
p3282
ag6
aVwow
p3283
ag83
aVthis
p3284
aVplace
p3285
aVis
p3286
aVn't
p3287
aVso
p3288
aVbad
p3289
ag41
aaa(lp3290
Vjerry
p3291
a(lp3292
Vyeah
p3293
ag6
aVit
p3294
aVkind
p3295
ag384
aVmotivates
p3296
aVme
p3297
aVto
p3298
aVwork
p3299
aVon
p3300
aVthe
p3301
aVroad
p3302
aVso
p3303
aVuh
p3304
ag6
aVmake
p3305
aVyourself
p3306
aVat
p3307
aVhome
p3308
ag41
aVso
p3309
aVuh
p3310
ag6
aVcan
p3311
ag102
aVget
p3312
aVyou
p3313
aVanything
p3314
ag22
aVuuhhh
p3315
ag6
aVbread
p3316
ag6
aVwater
p3317
aVsalad-dressing
p3318
ag22
aaa(lp3319
Vlaura
p3320
a(lp3321
Vactually
p3322
aVuhm
p3323
ag6
aVdo
p3324
aVyou
p3325
aVhave
p3326
aVany
p3327
aVwine
p3328
ag22
aVjerry
p3329
aVuh
p3330
ag6
aVyeah
p3331
ag6
ag102
aVthink
p3332
ag102
aVdo
p3333
ag41
aaa(lp3334
Vlaura
p3335
a(lp3336
Voh
p3337
ag6
aVdo
p3338
ag6
aVdo
p3339
aVyou
p3340
aVmind
p3341
aVif
p3342
ag102
aVturn
p3343
aVthis
p3344
aVdown
p3345
ag22
aaa(lp3346
Vjerry
p3347
a(lp3348
Vuh
p3349
ag6
aVno
p3350
ag6
aVyeah
p3351
ag6
aVgo
p3352
aVright
p3353
aVahead
p3354
ag41
aaa(lp3355
Vlaura
p3356
a(lp3357
Vuh
p3358
ag6
aVjerry
p3359
ag6
aVuh
p3360
ag6
ag102
aVwas
p3361
aVwondering
p3362
aVwould
p3363
aVit
p3364
aVbe
p3365
aVpossible
p3366
ag6
aVand
p3367
aVif
p3368
aVit
p3369
aV's
p3370
aVnot
p3371
ag6
aVfine
p3372
ag6
aVfor
p3373
aVme
p3374
aVto
p3375
aVstay
p3376
aVhere
p3377
aVtomorrow
p3378
aVnight
p3379
aVtoo
p3380
ag22
aaa(lp3381
Vjerry
p3382
a(lp3383
Vuh
p3384
ag6
aVyeah
p3385
ag6
aVyeah
p3386
ag6
aVsure
p3387
ag6
aVwhy
p3388
aVdo
p3389
aVn't
p3390
aVyou
p3391
aVstay
p3392
ag22
aVyeah
p3393
ag6
aVuhm
p3394
aVwhat
p3395
aVis
p3396
aVyour
p3397
ag6
aVwhat
p3398
aVis
p3399
aVyour
p3400
aVschedule
p3401
aVfor
p3402
aVtomorrow
p3403
ag22
aVare
p3404
aVyou
p3405
ag6
aVare
p3406
aVyou
p3407
aVdoin
p3408
ag88
aVanything
p3409
ag22
aaa(lp3410
Vlaura
p3411
a(lp3412
Vno
p3413
ag6
ag102
aV'd
p3414
aVlove
p3415
aVto
p3416
aVdo
p3417
aVsomething
p3418
ag6
aVuh
p3419
ag6
ag102
aVhave
p3420
aVmy
p3421
aVseminar
p3422
aVin
p3423
aVthe
p3424
aVmorning
p3425
ag6
aVthen
p3426
aVafter
p3427
aVthat
p3428
ag102
aV'm
p3429
aVright
p3430
aVopen
p3431
ag41
aaa(lp3432
Vjerry
p3433
a(lp3434
Vreally
p3435
ag22
aVwhat
p3436
aVwould
p3437
aVyou
p3438
aVlike
p3439
aVto
p3440
aVdo
p3441
ag22
aaa(lp3442
Vlaura
p3443
a(lp3444
Vwell
p3445
aVnow
p3446
ag102
aVknow
p3447
aVthis
p3448
aVsounds
p3449
aVtouristy
p3450
ag6
aVbut
p3451
ag102
aV'd
p3452
aVjust
p3453
aVlove
p3454
aVto
p3455
aVgo
p3456
aVon
p3457
aVone
p3458
aVof
p3459
aVthose
p3460
aVfive-hour-boat-rides
p3461
aVaround
p3462
aVmanhattan
p3463
ag41
aaa(lp3464
Vjerry
p3465
a(lp3466
Vyeah
p3467
ag6
aVwe
p3468
aVcould
p3469
aVdo
p3470
aVthat
p3471
aVwhy
p3472
aVnot
p3473
ag6
aVwhy
p3474
aVnot
p3475
ag41
ag102
aV'm
p3476
aVjust
p3477
ag6
ag102
aV'm
p3478
aVreally
p3479
aVglad
p3480
aVyou
p3481
aV're
p3482
aVhere
p3483
ag41
aVyeah
p3484
ag6
aVhello
p3485
aVyes
p3486
aVyes
p3487
ag6
aVshe
p3488
aVis
p3489
ag6
aVhold
p3490
aVon
p3491
ag41
aVuhm
p3492
ag6
aVit
p3493
aV's
p3494
aVfor
p3495
aVyou
p3496
ag41
aaa(lp3497
Vlaura
p3498
a(lp3499
Vhello
p3500
ag22
aVhi
p3501
ag83
aVno
p3502
aVno
p3503
aVit
p3504
aVwas
p3505
aVgreat
p3506
ag6
aVright
p3507
aVon
p3508
aVtime
p3509
aVno
p3510
ag6
ag102
ag6
ag102
aV'm
p3511
aVgon
p3512
aVna
p3513
aVstay
p3514
aVhere
p3515
aVtomorrow
p3516
aVyes
p3517
ag6
aVyes
p3518
aVit
p3519
aV's
p3520
aVfine
p3521
aVno
p3522
ag6
aVwe
p3523
aV're
p3524
aVgoin
p3525
ag88
aVon
p3526
ag384
aVboat-ride
p3527
aVdo
p3528
aVn't
p3529
aVbe
p3530
aVsilly
p3531
ag102
aV'm
p3532
aVnot
p3533
aVgon
p3534
aVna
p3535
aVhave
p3536
aVthis
p3537
aVconversation
p3538
aVlook
p3539
ag102
ag6
ag102
aV'll
p3540
aVcall
p3541
aVyou
p3542
aVtomorrow
p3543
aVok
p3544
ag6
aVbye
p3545
ag41
aVnever
p3546
aVget
p3547
aVengaged
p3548
ag41
aaa(lp3549
Vjerry
p3550
a(lp3551
Vyou
p3552
aV're
p3553
aVengaged
p3554
ag22
aaa(lp3555
Vlaura
p3556
a(lp3557
Vyou
p3558
ag6
aVyou
p3559
aVreally
p3560
aVhave
p3561
aVno
p3562
aVidea
p3563
aVwhat
p3564
aVit
p3565
aV's
p3566
aVlike
p3567
aVuntil
p3568
aVyou
p3569
aVactually
p3570
aVdo
p3571
aVit
p3572
aVand
p3573
ag102
aV'm
p3574
aVon
p3575
aVthis
p3576
aVemotional
p3577
aVroller
p3578
aVcoaster
p3579
ag41
aaa(lp3580
Vjerry
p3581
a(lp3582
Vyou
p3583
aV're
p3584
aVengaged
p3585
ag22
aaa(lp3586
Vlaura
p3587
a(lp3588
Vya
p3589
aVknow
p3590
ag6
ag102
aVca
p3591
aVn't
p3592
aVbelieve
p3593
aVit
p3594
aVmyself
p3595
aVsometimes
p3596
ag41
aVyou
p3597
aVhave
p3598
aVto
p3599
aVstart
p3600
aVthinking
p3601
aVin
p3602
aVterms
p3603
aVof
p3604
aVwe
p3605
ag6
aVuh
p3606
ag6
aVit
p3607
aV's
p3608
ag384
aVvery
p3609
aVstressful
p3610
aVsituation
p3611
ag41
aaa(lp3612
Vjerry
p3613
a(lp3614
Vyou
p3615
aV're
p3616
aVengaged
p3617
ag83
aaa(lp3618
Vlaura
p3619
a(lp3620
Vyeah
p3621
aVyeah
p3622
ag6
aVhe
p3623
aV's
p3624
ag384
aVgreat
p3625
aVguy
p3626
aaa(lp3627
Vjerry
p3628
a(lp3629
Vyeah
p3630
ag41
aaa(lp3631
Vlaura
p3632
a(lp3633
Vyou
p3634
aV'd
p3635
aVreally
p3636
aVlike
p3637
aVhim
p3638
aVya
p3639
aVknow
p3640
aV,
p3641
aVi
p3642
aVca
p3643
aVn't
p3644
aVwait
p3645
aVto
p3646
aVget
p3647
aVon
p3648
aVthat
p3649
aVboat
p3650
aV.
p3651
aaa(lp3652
Vjerry
p3653
a(lp3654
Vme
p3655
aVtoo
p3656
aV!
p3657
aaa.