(lp0
(lp1
V JERRY 
p2
aV  THE STAKEOUT  Written by Larry David & Jerry Seinfeld   (Opening comedy)   So, I'm on line at the supermarket. Two women in front of me. One of    them, her total was eight dollars, the other three dollars. They both    of course choose to pay by the use of the (pause and gesture to audience    for response)  
p3
aa(lp4
V AUDIENCE 
p5
aV Cheque  
p6
aa(lp7
V JERRY 
p8
aV Cheque. Now, the fact is, if it's a woman in front of you that's    writing the cheque, you will not be waiting long. I have noticed that    women are very *fast* with cheques, y'know, 'cuz they write out so many    cheques. The keys, they can never find in their purse, they don't know    where that is, but the cheque book they got that. They never fumble for     book from an imaginary holster) ``Who do I make it out to?... There's my    ID...''. There's something about a cheque that, to a man, is not masculine.    I don't know exactly what it is... I think to a man, a cheque is like a note    from your mother that says ``I don't have any money, but if you'll     contact these people, I'm sure they'll stick up for me... If you    just trust me this one time I don't have any money but I have     these... I wrote on these; is this of any value at all?''   (End stand-up)    
p9
aa(lp10
V JERRY 
p11
aV What's that one?  
p12
aa(lp13
V ELAINE 
p14
aV "Coccoon II: The Return". I guess they didn't like it up there...   
p15
aa(lp16
V JERRY 
p17
aV Maybe they came back for Chinese food. Y'know Maureen Stapleton, if    she gets a craving, she's probably screamin' at those aliens, "I gotta have a Lo mein!"  
p18
aa(lp19
V ELAINE 
p20
aV Okay, what're we doing here? I have seen *everything*.   
p21
aa(lp22
V JERRY 
p23
aV Oh yeah? I don't believe you've seen... this.     
p24
aa(lp25
V ELAINE 
p26
aV Oh, lovely...  
p27
aa(lp28
V JERRY 
p29
aV Yeah...  
p30
aa(lp31
V ELAINE 
p32
aV What do you think their parents think?    
p33
aa(lp34
V JERRY 
p35
aV "So, uh, what's your son doing now, Dr. Stevens?"    "Oh, he's a public fornicator. Yes, he's a fine boy..."  
p36
aa(lp37
V ELAINE 
p38
aV Y'know what? This would be a really funny gift for Pamela's    birthday.  
p39
aa(lp40
V JERRY 
p41
aV Pamela? Do I know her?  
p42
aa(lp43
V ELAINE 
p44
aV Yeah, you met her when we were going out.   
p45
aa(lp46
V JERRY 
p47
aV Oh yeah, right...  
p48
aa(lp49
V ELAINE 
p50
aV You have *no* idea who I'm talking about, do you?   
p51
aa(lp52
V JERRY 
p53
aV (quickly) No.  
p54
aa(lp55
V ELAINE 
p56
aV Blonde hair remember? Glasses? (pause) Have you *totally* blocked    out the entire time we were a couple?   
p57
aa(lp58
V JERRY 
p59
aV Riverside Drive.  
p60
aa(lp61
V ELAINE 
p62
aV Right! In fact... No, never mind...    
p63
aa(lp64
V JERRY 
p65
aV Well, what is it?  
p66
aa(lp67
V ELAINE 
p68
aV Well, a bunch of people are getting together tomorrow night at some    bar for her birthday, but... you don't want to go to... that... no.   
p69
aa(lp70
V JERRY 
p71
aV Wait a second, wait a second. We could work out a little deal here.   
p72
aa(lp73
V ELAINE 
p74
aV What little deal?  
p75
aa(lp76
V JERRY 
p77
aV I will go to that, if you go with me to a little family wedding I    have on Saturday.  
p78
aa(lp79
V ELAINE 
p80
aV A *wedding*!? Have you *lost* it, man?    
p81
aa(lp82
V JERRY 
p83
aV Y'know, my parents are coming in for this...   
p84
aa(lp85
V ELAINE 
p86
aV They're coming in?  
p87
aa(lp88
V JERRY 
p89
aV Yeah, tomorrow.  
p90
aa(lp91
V ELAINE 
p92
aV Hey, did your father ever get that hair weave?   
p93
aa(lp94
V JERRY 
p95
aV No, no... Still doin' the big *sweep* across.   
p96
aa(lp97
V ELAINE 
p98
aV Why does he do that?  
p99
aa(lp100
V JERRY 
p101
aV Doesn't think anyone can tell?  
p102
aa(lp103
V JERRY 
p104
aV So c'mon, do we have a deal?  
p105
aa(lp106
V ELAINE 
p107
aV A *wedding*?  
p108
aa(lp109
V JERRY 
p110
aV There's a lot of people to mock...    
p111
aa(lp112
V ELAINE 
p113
aV Alright, what the Hell.  
p114
aa(lp115
V JERRY 
p116
aV Great!  
p117
aa(lp118
V WOMAN 
p119
aV When you're dead, you're dead. That's it. You're not goin'    anywhere...    
p120
aa(lp121
V ELAINE 
p122
aV C'mon lets go, c'mon...  
p123
aa(lp124
V JERRY 
p125
aV Was I supposed to bring something?    
p126
aa(lp127
V ELAINE 
p128
aV You could have.  
p129
aa(lp130
V JERRY 
p131
aV I met her *one* time...  
p132
aa(lp133
V ELAINE 
p134
aV It is not necessary.  
p135
aa(lp136
V JERRY 
p137
aV What did you say then?  
p138
aa(lp139
V ELAINE 
p140
aV Sssshhhhhh!!!  
p141
aa(lp142
V PAMELA 
p143
aV Hi  
p144
aa(lp145
V ELAINE 
p146
aV Hi Pamela, you remember Jerry.  
p147
aa(lp148
V PAMELA 
p149
aV Yes, we met.  
p150
aa(lp151
V JERRY 
p152
aV Hi, happy birthday.  
p153
aa(lp154
V PAMELA 
p155
aV Ahh, everybody, this is Elaine and Jerry.    
p156
aa(lp157
V GUESTS 
p158
aV Hi  
p159
aa(lp160
V JERRY 
p161
aV I didn't bring anything.  
p162
aa(lp163
V PAMELA 
p164
aV Ahh, I put you two right here.  
p165
aa(lp166
V JERRY 
p167
aV Oh, Okay (turns to rest of table) I'm sorry, I didn't know what    to bring, nobody told me.      
p168
aa(lp169
V VANESSA 
p170
aV How big a tip do you think it'd take to get him to stop?   
p171
aa(lp172
V JERRY 
p173
aV I'm in for five...  
p174
aa(lp175
V VANESSA 
p176
aV I'll supply the hat.  
p177
aa(lp178
V JERRY 
p179
aV (To himself) Uh-oh... What do we have here...   
p180
aa(lp181
V VANESSA 
p182
aV Why don't you relax and take your jacket off?   
p183
aa(lp184
V JERRY 
p185
aV Oh, I can't-- I have a tendency to get chilly.   
p186
aa(lp187
V VANESSA 
p188
aV How masculine...  
p189
aa(lp190
V JERRY 
p191
aV Plus I'm wearing short sleeves, I don't want to expose my tattoos.    (To himself) She's unbelievable!    
p192
aa(lp193
V ROGER 
p194
aV (To Vanessa) Hey, this guy says he knows Bricker...   
p195
aa(lp196
V VANESSA 
p197
aV Oh, you know Bricker! From where?   
p198
aa(lp199
V JERRY 
p200
aV (To himself) What's going on here? Gotta be her boyfriend, she's    too good to be alone... What's the difference, I can't maneuver     anyway with Elaine next to me...  
p201
aa(lp202
V VANESSA 
p203
aV (To Jerry) How do you know Pamela?    
p204
aa(lp205
V JERRY 
p206
aV Friend of a friend. And you?  
p207
aa(lp208
V VANESSA 
p209
aV We went to law school together.  
p210
aa(lp211
V ELAINE 
p212
aV Oh, Jerry!  
p213
aa(lp214
V JERRY 
p215
aV (To himself) Oh no, not *now*...  
p216
aa(lp217
V ELAINE 
p218
aV I had this dream last night and you were in it.   
p219
aa(lp220
V JERRY 
p221
aV Oh really... (To himself) Oh God, I gotta get out of this...   
p222
aa(lp223
V ELAINE 
p224
aV You were you, but, you weren't you...    
p225
aa(lp226
V JERRY 
p227
aV No kidding... (To himself) Why is this happening? Please, make    her stop!  
p228
aa(lp229
V ELAINE 
p230
aV I think, I think we were in my house where I grew up, and you were    standing there, you were looking out the window--  
p231
aa(lp232
V JERRY 
p233
aV (To himself) This is *brutal*...  
p234
aa(lp235
V ELAINE 
p236
aV You turned around and you had these wooden teeth...   
p237
aa(lp238
V JERRY 
p239
aV How do you like that... (To himself) Can I turn now? Is this    over? No, I can't, I can't... I'm stuck...  
p240
aa(lp241
V ELAINE 
p242
aV Jerry? Are you listening to me?  
p243
aa(lp244
V JERRY 
p245
aV Yes, I *heard* you.  
p246
aa(lp247
V PAMELA 
p248
aV Elaine, what's the name of that jewelry store you took me to that    time?  
p249
aa(lp250
V JERRY 
p251
aV (To himself) Thank *you*, Pamela!  
p252
aa(lp253
V JERRY 
p254
aV (To Vanessa) So, you're a lawyer...    
p255
aa(lp256
V VANESSA 
p257
aV Sagman, Bennet, Robbins, Oppenheim and Taft.   
p258
aa(lp259
V JERRY 
p260
aV (To himself, quickly) Sagman, Bennet, Robbins, Oppenheim and Taft.    Sagman, Bennet, Robbins, Oppenheim and Taft...   (To Vanessa) Of course, they handled my tattoo removal lawsuit!    
p261
aa(lp262
V VANESSA 
p263
aV Oh, that was you!  
p264
aa(lp265
V JERRY 
p266
aV Imagine, spelling "Mom" with two O's...    
p267
aa(lp268
V VANESSA 
p269
aV Very funny! What do you do?  
p270
aa(lp271
V JERRY 
p272
aV Comedian.  
p273
aa(lp274
V VANESSA 
p275
aV Really... That explains it...  
p276
aa(lp277
V JERRY 
p278
aV (To himself, quickly) Sagman, Bennet, Robbins, Oppenheim and Taft.    Sagman, Bennet, Robbins, Oppenheim and Taft.  
p279
aa(lp280
V ROGER 
p281
aV Are you ready?  
p282
aa(lp283
V VANESSA 
p284
aV We gotta run. Happy birthday!   
p285
aa(lp286
V JERRY 
p287
aV (To himself) I can't believe it-- I got *nothing*! I don't even    know her name!    
p288
aa(lp289
V JERRY 
p290
aV (To himself, *very* quickly) Sagman, Bennet, Robbins, Oppenheim and    Taft. Sagman, Bennet, Robbins, Oppen... Sagman... Sag...    
p291
aa(lp292
V JERRY 
p293
aV That wasn't so bad, really...  
p294
aa(lp295
V ELAINE 
p296
aV Y'know, uh, you could use a little work on your manners.   
p297
aa(lp298
V JERRY 
p299
aV Why? What did I do?   
p300
aa(lp301
V ELAINE 
p302
aV Well, I just don't appreciate these little "courtesy responses",    like I'm selling you aluminum siding.  
p303
aa(lp304
V JERRY 
p305
aV I was listening!  
p306
aa(lp307
V ELAINE 
p308
aV No! You couldn't wait to get back to your little... "conversation".     
p309
aa(lp310
V JERRY 
p311
aV No, you were talking about the, the um, the dream you had.   
p312
aa(lp313
V ELAINE 
p314
aV Uh-huh...   
p315
aa(lp316
V JERRY 
p317
aV Where you had, uh, wooden teeth.   
p318
aa(lp319
V ELAINE 
p320
aV No! No! *You* had wooden teeth! *You* had wooden teeth! *I*    didn't have wooden teeth, *you* did!  
p321
aa(lp322
V JERRY 
p323
aV Alright, so *I* had wooden teeth, so what?   
p324
aa(lp325
V ELAINE 
p326
aV So nothing... Nothing...   
p327
aa(lp328
V JERRY 
p329
aV Apparently Plato, who came up with the concept of the platonic    relationship, was pretty excited about it. He named it after     himself. He said ``Yeah, I got this new thing-- "platonic". My     idea, my name, callin' it after myself... What I do is, I go *out*    with the girls, I *talk* with them-- don't *do* anything... and go    right home. What'dya think? I think it's going to be *big*!''     I bet you there were other guys in history that tried to get     relationships named after them, but it didn't work. Y'know, I bet     Rico. Would you like to go to bed immediately? Hey, it's a   *"Riconic"* relationship...''    
p330
aa(lp331
V JERRY 
p332
aV Hey!  
p333
aa(lp334
V MORTY 
p335
aV Ah, there he is!  
p336
aa(lp337
V JERRY 
p338
aV This is what I like, see? You come home and your parents are in your    bed!  
p339
aa(lp340
V HELEN 
p341
aV Y'know, Jerry, we don't have to do this...    
p342
aa(lp343
V JERRY 
p344
aV What are you talkin' about? It's fine, I love having you here...   
p345
aa(lp346
V HELEN 
p347
aV Tomorrow we'll go to a hotel.  
p348
aa(lp349
V JERRY 
p350
aV Ma, will you stop?  
p351
aa(lp352
V HELEN 
p353
aV No, why should we take over your apartment?    
p354
aa(lp355
V JERRY 
p356
aV I don't care-- I'm sleeping next door.    
p357
aa(lp358
V HELEN 
p359
aV Your friend Kramer doesn't mind?  
p360
aa(lp361
V JERRY 
p362
aV No, he's making a bouillabaisse.  
p363
aa(lp364
V JERRY 
p365
aV So Dad, lemme ask you a question. How many people work at these big    law offices?  
p366
aa(lp367
V MORTY 
p368
aV Depends on the firm.  
p369
aa(lp370
V JERRY 
p371
aV Yeah, but if you called up and described someone, do you think they    would know who it was?  
p372
aa(lp373
V MORTY 
p374
aV What's the matter? You need a lawyer?    
p375
aa(lp376
V JERRY 
p377
aV No, I met someone at this party, and I know where she works, but I    don't know her name.  
p378
aa(lp379
V MORTY 
p380
aV So why don't you ask someone who was at the party?   
p381
aa(lp382
V JERRY 
p383
aV Nah, the only one I could ask is Elaine, and I can't ask her.   
p384
aa(lp385
V HELEN 
p386
aV Why not?  
p387
aa(lp388
V JERRY 
p389
aV Because it's complicated-- there's some tension there.   
p390
aa(lp391
V HELEN 
p392
aV He used to go with her...  
p393
aa(lp394
V HELEN 
p395
aV Which one is she?  
p396
aa(lp397
V MORTY 
p398
aV From Maryland. The one who brought you the chocolate covered    cherries you didn't like.  
p399
aa(lp400
V MORTY 
p401
aV Oh yeah, very alert. Warm person.  
p402
aa(lp403
V JERRY 
p404
aV Oh yeah, she's great.  
p405
aa(lp406
V HELEN 
p407
aV So, how come nothing materialized there?    
p408
aa(lp409
V JERRY 
p410
aV Well, it's a tough thing to talk about... I dunno...   
p411
aa(lp412
V HELEN 
p413
aV I know what it was...  
p414
aa(lp415
V JERRY 
p416
aV You don't know what it was...  
p417
aa(lp418
V HELEN 
p419
aV So, what was it?  
p420
aa(lp421
V JERRY 
p422
aV Well, we fight a lot for some reason...       H + M  Oh, well...  
p423
aa(lp424
V JERRY 
p425
aV And there was a little problem with the physical chemistry...     
p426
aa(lp427
V HELEN 
p428
aV Well, I think she's a very attractive girl.   
p429
aa(lp430
V JERRY 
p431
aV Oh, she is, she absolutely is.  
p432
aa(lp433
V HELEN 
p434
aV I can see if there was a *weight* problem...    
p435
aa(lp436
V JERRY 
p437
aV No, it's not that. It wasn't all one-sided.     
p438
aa(lp439
V HELEN 
p440
aV You know, you can't be so particular. Nobody's perfect.    
p441
aa(lp442
V JERRY 
p443
aV I know, I know...  
p444
aa(lp445
V MORTY 
p446
aV Y'know Jerry, it's a good thing I wasn't so particular.   
p447
aa(lp448
V HELEN 
p449
aV Idiot... (To Jerry) So who're you looking for, Sophia Loren?   
p450
aa(lp451
V JERRY 
p452
aV That's got *nothin'* to do with it.    
p453
aa(lp454
V MORTY 
p455
aV How about Loni Anderson?  
p456
aa(lp457
V HELEN 
p458
aV Where do you get Loni Anderson?  
p459
aa(lp460
V MORTY 
p461
aV Why, what's wrong with Loni Anderson?    
p462
aa(lp463
V HELEN 
p464
aV I like *Elaine* more than Loni Anderson...     
p465
aa(lp466
V JERRY 
p467
aV What are you two talking about? Look, Elaine just wasn't "the one".   
p468
aa(lp469
V HELEN 
p470
aV And this other one's "the one"?  
p471
aa(lp472
V JERRY 
p473
aV I dunno, maybe...  
p474
aa(lp475
V MORTY 
p476
aV So ask Elaine there for the number.    
p477
aa(lp478
V JERRY 
p479
aV I can't-- she'll get upset. I never talk about other women with her,    especially this one tonight.  
p480
aa(lp481
V HELEN 
p482
aV How could you still see her if your not interested?   
p483
aa(lp484
V JERRY 
p485
aV We're *friends*.  
p486
aa(lp487
V MORTY 
p488
aV Doesn't sound like you're friends to me. If you were friends you'd    ask her for the number. Do you know where this other one works?    
p489
aa(lp490
V JERRY 
p491
aV Oh yeah...   
p492
aa(lp493
V MORTY 
p494
aV Well, go up to the office.  
p495
aa(lp496
V HELEN 
p497
aV Up to her office?  
p498
aa(lp499
V MORTY 
p500
aV Go to the building. She goes out to lunch, doesn't she?   
p501
aa(lp502
V JERRY 
p503
aV I guess...  
p504
aa(lp505
V MORTY 
p506
aV So, you stand in the lobby, by the elevator, and wait for her to    come down for lunch.  
p507
aa(lp508
V JERRY 
p509
aV You mean "stakeout" the lobby?  
p510
aa(lp511
V HELEN 
p512
aV Morty, that's ridiculous. Just ask Elaine for the number!   
p513
aa(lp514
V MORTY 
p515
aV He doesn't want to ask Elaine for the number.   
p516
aa(lp517
V HELEN 
p518
aV So you've got him standing by the elevator like a *dope*! What    happens when he sees her?  
p519
aa(lp520
V MORTY 
p521
aV He pretends he *bumped* into her!  
p522
aa(lp523
V JERRY 
p524
aV Y'know what? This is *not* that *bad* an idea...    
p525
aa(lp526
V GEORGE 
p527
aV What does she look like?  
p528
aa(lp529
V JERRY 
p530
aV I dunno. Hard to say.  
p531
aa(lp532
V GEORGE 
p533
aV What actress does she remind you of?    
p534
aa(lp535
V JERRY 
p536
aV Loni Anderson.  
p537
aa(lp538
V GEORGE 
p539
aV Loni Anderson?!  
p540
aa(lp541
V JERRY 
p542
aV What, there's something wrong with Loni Anderson?   
p543
aa(lp544
V JERRY 
p545
aV Hey listen, thanks again for running over here. I appreciate it.   
p546
aa(lp547
V GEORGE 
p548
aV Yeah, sure. I was showing a condo on 48th st. Besides, you think    I wanna miss this?  
p549
aa(lp550
V JERRY 
p551
aV I'm a little nervous.  
p552
aa(lp553
V GEORGE 
p554
aV Yeah, me too...  
p555
aa(lp556
V JERRY 
p557
aV If I see her, what do I say that I'm doing here in the building?   
p558
aa(lp559
V GEORGE 
p560
aV You came to see me; I work in the building.    
p561
aa(lp562
V JERRY 
p563
aV What do you do?  
p564
aa(lp565
V GEORGE 
p566
aV I'm an *architect*.  
p567
aa(lp568
V JERRY 
p569
aV You're an *architect*?  
p570
aa(lp571
V GEORGE 
p572
aV I'm not?  
p573
aa(lp574
V JERRY 
p575
aV I don't see architecture comin from you...   
p576
aa(lp577
V GEORGE 
p578
aV I suppose *you* could be an architect...    
p579
aa(lp580
V JERRY 
p581
aV I never said that I was the architect. Just somethin' else...   
p582
aa(lp583
V GEORGE 
p584
aV Alright, she's not even gonna ask, if we *see* her, which is remote.   
p585
aa(lp586
V JERRY 
p587
aV Well what'dya want me to say, that I just wandered in here?!   
p588
aa(lp589
V GEORGE 
p590
aV We're having lunch with a friend-- he works in the building.   
p591
aa(lp592
V JERRY 
p593
aV What is *his* name?  
p594
aa(lp595
V GEORGE 
p596
aV Bert... Har... bin... son. Bert Har-bin-son.    
p597
aa(lp598
V JERRY 
p599
aV Bert Harbinson? It sounds made up.    
p600
aa(lp601
V GEORGE 
p602
aV No good? Alright, how about Art... Corr.....    
p603
aa(lp604
V JERRY 
p605
aV Art Corr...  
p606
aa(lp607
V GEORGE 
p608
aV ...velay...  
p609
aa(lp610
V JERRY 
p611
aV Corvelay?  
p612
aa(lp613
V GEORGE 
p614
aV Yeah, right.  
p615
aa(lp616
V JERRY 
p617
aV Well, what does *he* do?  
p618
aa(lp619
V GEORGE 
p620
aV He's an importer.  
p621
aa(lp622
V JERRY 
p623
aV Just imports, no exports?  
p624
aa(lp625
V GEORGE 
p626
aV He's an importer/exporter, okay?  
p627
aa(lp628
V GEORGE 
p629
aV Say, did Elaine ever call you back?    
p630
aa(lp631
V JERRY 
p632
aV No, I guess she's still mad.  
p633
aa(lp634
V GEORGE 
p635
aV I don't understand, you never talk to her about other women?   
p636
aa(lp637
V JERRY 
p638
aV Never.   
p639
aa(lp640
V JERRY 
p641
aV Wait a second... That's her... on the right.   
p642
aa(lp643
V GEORGE 
p644
aV I forgot who I am! Who am I?!  
p645
aa(lp646
V JERRY 
p647
aV You're you. We're having lunch with Art Corvelay.   
p648
aa(lp649
V GEORGE 
p650
aV Vandelay!  
p651
aa(lp652
V JERRY 
p653
aV Corvelay!  
p654
aa(lp655
V GEORGE 
p656
aV Let me be the architect, I can do it!     
p657
aa(lp658
V JERRY 
p659
aV Hey, hey... Pamela's birthday party, didn't I see you there...    Jerry.  
p660
aa(lp661
V VANESSA 
p662
aV Sure! Hi!  
p663
aa(lp664
V JERRY 
p665
aV This is George. ("Grasps" for her name) I'm sorry...   
p666
aa(lp667
V VANESSA 
p668
aV Vanessa.  
p669
aa(lp670
V GEORGE 
p671
aV Nice to meet you.  
p672
aa(lp673
V JERRY 
p674
aV Ah, Sagman, Bennet, Robbins, Oppenheim and Taft.   
p675
aa(lp676
V VANESSA 
p677
aV That's right! What're you doing here?    
p678
aa(lp679
V JERRY 
p680
aV Oh, were meeting a friend of ours for lunch. He works here in the    building.  
p681
aa(lp682
V GEORGE 
p683
aV Yeah, Art *Vandelay*.  
p684
aa(lp685
V VANESSA 
p686
aV Really? Which company?  
p687
aa(lp688
V JERRY 
p689
aV I don't know. He's an importer.  
p690
aa(lp691
V VANESSA 
p692
aV Importer?  
p693
aa(lp694
V GEORGE 
p695
aV ...And exporter.  
p696
aa(lp697
V JERRY 
p698
aV He's an importer/exporter.  
p699
aa(lp700
V GEORGE 
p701
aV I'm, uh, I'm an architect.  
p702
aa(lp703
V VANESSA 
p704
aV Really. What do you design?  
p705
aa(lp706
V GEORGE 
p707
aV Uh, railroads, uh...  
p708
aa(lp709
V VANESSA 
p710
aV I thought engineers do that.  
p711
aa(lp712
V GEORGE 
p713
aV They can...  
p714
aa(lp715
V JERRY 
p716
aV Y'know I'm sorry you had to leave so early the other night.   
p717
aa(lp718
V VANESSA 
p719
aV Oh, me too. My cousin had to go back to Boston.   
p720
aa(lp721
V JERRY 
p722
aV Oh, that guy was your *cousin*!  
p723
aa(lp724
V VANESSA 
p725
aV Yeah, and that woman was your--  
p726
aa(lp727
V JERRY 
p728
aV Friend!  
p729
aa(lp730
V GEORGE 
p731
aV I'll just, uh, get a paper...  
p732
aa(lp733
V JERRY 
p734
aV So, um, do you date immature men?  
p735
aa(lp736
V VANESSA 
p737
aV Almost exclusively...        
p738
aa(lp739
V HELEN 
p740
aV Bum bum bum bum... I have no letters... Bum bum bum bum...   
p741
aa(lp742
V JERRY 
p743
aV Ma, will you go already?  
p744
aa(lp745
V HELEN 
p746
aV Bum bum bum bum...   
p747
aa(lp748
V JERRY 
p749
aV What are you doing?!  
p750
aa(lp751
V HELEN 
p752
aV Wait, I just want to see something...    
p753
aa(lp754
V JERRY 
p755
aV You can't look in there, we're playing!     
p756
aa(lp757
V MORTY 
p758
aV Evening, Mr. Kramer!  
p759
aa(lp760
V KRAMER 
p761
aV Hey Morty! (To Jerry) Salad dressing?    
p762
aa(lp763
V JERRY 
p764
aV Look.  
p765
aa(lp766
V HELEN 
p767
aV "Quo"? Is that a word?  
p768
aa(lp769
V JERRY 
p770
aV Maybe!  
p771
aa(lp772
V HELEN 
p773
aV Will you challenge it?  
p774
aa(lp775
V JERRY 
p776
aV Ma, you can't look up words in the dictionary! Dad, she's cheating!   
p777
aa(lp778
V KRAMER 
p779
aV "Quo"? That's not a word.  
p780
aa(lp781
V HELEN 
p782
aV (To Jerry) You're such a stickler...    
p783
aa(lp784
V JERRY 
p785
aV Well put *something* down, you're taking twenty minutes on this.    So is Uncle Mac, and Artie, they're all coming over here before the    wedding?  
p786
aa(lp787
V HELEN 
p788
aV They'll be here at two o'clock... Oh, Elaine called. She said    SHE'D BE HERE AT 2  30. Oh, and she says ``Hope your meeting went    well with Art... "Vandelay"?''  
p789
aa(lp790
V JERRY 
p791
aV She said *what*?  
p792
aa(lp793
V HELEN 
p794
aV Just what I said, here.   
p795
aa(lp796
V JERRY 
p797
aV She knows! Oh, I am *such* a *jackass*...    
p798
aa(lp799
V HELEN 
p800
aV She knows what?  
p801
aa(lp802
V JERRY 
p803
aV She knows the whole stupid thing... Vanessa and the elevator...    
p804
aa(lp805
V HELEN 
p806
aV No, no, no, that won't do. He may have a "Z"...   
p807
aa(lp808
V MORTY 
p809
aV So, how did she find out?  
p810
aa(lp811
V JERRY 
p812
aV Because, Vanessa probably told Pamela, and Pamela probably told    Elaine.     
p813
aa(lp814
V MORTY 
p815
aV So, what are you? Afraid of her?  
p816
aa(lp817
V JERRY 
p818
aV Yes. *Yes* *I* *am*!  
p819
aa(lp820
V JERRY 
p821
aV What else did she say on the phone?    
p822
aa(lp823
V HELEN 
p824
aV Whatever I wrote down.  
p825
aa(lp826
V JERRY 
p827
aV Yeah, but what was the tone in her voice? How did she sound?   
p828
aa(lp829
V HELEN 
p830
aV Who am I, Rich Little?  
p831
aa(lp832
V MORTY 
p833
aV Well, she can't be too mad-- she's still coming to the wedding.   
p834
aa(lp835
V JERRY 
p836
aV Yeah, but now I'm nervous.  
p837
aa(lp838
V HELEN 
p839
aV Oh, stop it.   
p840
aa(lp841
V JERRY 
p842
aV "Quone"?  
p843
aa(lp844
V HELEN 
p845
aV ...30...31...   
p846
aa(lp847
V JERRY 
p848
aV "Quone"? No, I'm afraid that I'm going to have to challenge that.   
p849
aa(lp850
V HELEN 
p851
aV ...32...   
p852
aa(lp853
V KRAMER 
p854
aV No, you don't have to challenge that. That's a word. That's a    *definite* word.  
p855
aa(lp856
V JERRY 
p857
aV I am challenging...  
p858
aa(lp859
V KRAMER 
p860
aV Quone: to quone something.  
p861
aa(lp862
V JERRY 
p863
aV Uh-huh...  
p864
aa(lp865
V HELEN 
p866
aV I'm not playing with you anymore...    
p867
aa(lp868
V MORTY 
p869
aV Quone's not a word...  
p870
aa(lp871
V JERRY 
p872
aV No good. Sorry. There it is. Get it off...   
p873
aa(lp874
V HELEN 
p875
aV Why did you make me put that down?    
p876
aa(lp877
V KRAMER 
p878
aV Nah, we need a *medical* dictionary! If a patient gets difficult,    you *quone* him...     
p879
aa(lp880
V CAROL 
p881
aV You want some funny material, you oughta come down to where I work,    now that's a sitcom!  
p882
aa(lp883
V JERRY 
p884
aV You must have quite a time down there. (Checks his watch)   
p885
aa(lp886
V CAROL 
p887
aV We got plenty of time...  
p888
aa(lp889
V JERRY 
p890
aV Oh, I'm sorry. I'm just waiting for someone...   
p891
aa(lp892
V MAC 
p893
aV Watch what you say to this guy-- he'll put it in his next act!   
p894
aa(lp895
V JERRY 
p896
aV Yeah, yeah...  
p897
aa(lp898
V MAC 
p899
aV Jerry, did I tell you that I'm writing a book? An autobiography.   
p900
aa(lp901
V JERRY 
p902
aV Yeah, Uncle Mac, you mentioned it...    
p903
aa(lp904
V MAC 
p905
aV It's based on all my experiences!  
p906
aa(lp907
V JERRY 
p908
aV That's perfect. (Elaine enters) Could you excuse me one second.    I'm sorry.   
p909
aa(lp910
V JERRY 
p911
aV How do you do, Jerry Seinfeld.  
p912
aa(lp913
V ELAINE 
p914
aV Oh, how do you do. Elaine Benes.  
p915
aa(lp916
V JERRY 
p917
aV Um, do you want to do this now, or do you want to wait until we get    in the car?  
p918
aa(lp919
V ELAINE 
p920
aV Oh no, let's do it now.  
p921
aa(lp922
V JERRY 
p923
aV Alright, the whole elevator business, let me just explain--   
p924
aa(lp925
V ELAINE 
p926
aV Okay...  
p927
aa(lp928
V ARTIE 
p929
aV Jerry, were you goin' with us?  
p930
aa(lp931
V JERRY 
p932
aV No, I'm gonna take my car.  
p933
aa(lp934
V ARTIE 
p935
aV That's why I brought the wagon. Why the Hell did I bring the wagon?   
p936
aa(lp937
V JERRY 
p938
aV Anyway, you know why I didn't ask you, I mean I felt so    uncomfortable, and you were *so* annoyed in the cab.  
p939
aa(lp940
V ELAINE 
p941
aV Well, Jerry, I never saw you flirt with anyone before. It was    quite the spectacle.  
p942
aa(lp943
V CAROL 
p944
aV Jerry, we'll see you there. Bye, Elaine.    
p945
aa(lp946
V ELAINE 
p947
aV Oh, bye. Good to see you.  
p948
aa(lp949
V ARTIE 
p950
aV Oh, we didn't meet.  
p951
aa(lp952
V JERRY 
p953
aV Oh, I'm sorry. Elaine, this is my cousin Artie Levine.    
p954
aa(lp955
V ARTIE 
p956
aV Le*vine*.   
p957
aa(lp958
V JERRY 
p959
aV Yeah, "Le*vine*". And I'm Jerry Cougar Mellencamp... Anyway, I    admit it was a fairly ridiculous thing to do, but I mean, I mean,     obviously we have a little problem here.  
p960
aa(lp961
V ELAINE 
p962
aV Yeah, obviously.  
p963
aa(lp964
V JERRY 
p965
aV I mean, if we're gonna be friends, we gotta be able to talk about    other people...  
p966
aa(lp967
V ELAINE 
p968
aV Couldn't agree more.  
p969
aa(lp970
V JERRY 
p971
aV Good.  
p972
aa(lp973
V ELAINE 
p974
aV Good.  
p975
aa(lp976
V JERRY 
p977
aV Good.  
p978
aa(lp979
V ELAINE 
p980
aV Great!  
p981
aa(lp982
V JERRY 
p983
aV Great? Where do you get "great"?  
p984
aa(lp985
V ELAINE 
p986
aV It's great to... talk about... other people...   
p987
aa(lp988
V JERRY 
p989
aV ...Guys.  
p990
aa(lp991
V ELAINE 
p992
aV Yeah.  
p993
aa(lp994
V JERRY 
p995
aV Uh-huh... Yeah... So, anybody specific?    
p996
aa(lp997
V ELAINE 
p998
aV No. A general guy.  
p999
aa(lp1000
V JERRY 
p1001
aV Oh *really*... Elaine Marie Benes...    
p1002
aa(lp1003
V ELAINE 
p1004
aV What? No, it's not a big deal.  
p1005
aa(lp1006
V JERRY 
p1007
aV No, that's great! That's terrific!    
p1008
aa(lp1009
V ELAINE 
p1010
aV No, we just met...  
p1011
aa(lp1012
V JERRY 
p1013
aV Doesn't matter. What's the young man's name? I would like to    meet him.  
p1014
aa(lp1015
V ELAINE 
p1016
aV I don't think so...  
p1017
aa(lp1018
V JERRY 
p1019
aV Well, what does he do? Is he an artisan, a craftsman, a labourer    of some sort?  
p1020
aa(lp1021
V ELAINE 
p1022
aV Wall street.  
p1023
aa(lp1024
V JERRY 
p1025
aV Ahh, high finance: bulls... bears... people from Conneticut.   
p1026
aa(lp1027
V ELAINE 
p1028
aV And he happens to be pretty good lookin'    
p1029
aa(lp1030
V JERRY 
p1031
aV (pause) Alright, sir.  
p1032
aa(lp1033
V ELAINE 
p1034
aV And... he's *hilarious*.  
p1035
aa(lp1036
V JERRY 
p1037
aV Now that's not fair! So where did you meet this guy?   
p1038
aa(lp1039
V ELAINE 
p1040
aV I "staked" out his health club.    
p1041
aa(lp1042
V JERRY 
p1043
aV When you're on a stakeout, do you find it's better to stand up    against the wall, or kinda crouch down behind a big plant?...     
p1044
aa.