(lp0
(lp1
Vjerry
p2
a(lp3
Vthe
p4
aVstakeout
p5
aVwritten
p6
aVby
p7
aVlarry
p8
aVdavid
p9
aV&
p10
aVjerry
p11
aVseinfeld
p12
aVso
p13
aV,
p14
aVi
p15
aV'm
p16
aVon
p17
aVline
p18
aVat
p19
aVthe
p20
aVsupermarket
p21
aV.
p22
aVtwo
p23
aVwomen
p24
aVin
p25
aVfront
p26
aVof
p27
aVme
p28
ag22
aVone
p29
aVof
p30
aVthem
p31
ag14
aVher
p32
aVtotal
p33
aVwas
p34
aVeight
p35
aVdollars
p36
ag14
aVthe
p37
aVother
p38
aVthree
p39
aVdollars
p40
ag22
aVthey
p41
aVboth
p42
aVof
p43
aVcourse
p44
aVchoose
p45
aVto
p46
aVpay
p47
aVby
p48
aVthe
p49
aVuse
p50
aVof
p51
aVthe
p52
aaa(lp53
Vaudience
p54
a(lp55
Vcheque
p56
aaa(lp57
Vjerry
p58
a(lp59
Vcheque
p60
ag22
aVnow
p61
ag14
aVthe
p62
aVfact
p63
aVis
p64
ag14
aVif
p65
aVit
p66
aV's
p67
aVa
p68
aVwoman
p69
aVin
p70
aVfront
p71
aVof
p72
aVyou
p73
aVthat
p74
aV's
p75
aVwriting
p76
aVthe
p77
aVcheque
p78
ag14
aVyou
p79
aVwill
p80
aVnot
p81
aVbe
p82
aVwaiting
p83
aVlong
p84
ag22
ag15
aVhave
p85
aVnoticed
p86
aVthat
p87
aVwomen
p88
aVare
p89
aVvery
p90
aV*fast*
p91
aVwith
p92
aVcheques
p93
ag14
aVy'know
p94
ag14
aV'cuz
p95
aVthey
p96
aVwrite
p97
aVout
p98
aVso
p99
aVmany
p100
aVcheques
p101
ag22
aVthe
p102
aVkeys
p103
ag14
aVthey
p104
aVcan
p105
aVnever
p106
aVfind
p107
aVin
p108
aVtheir
p109
aVpurse
p110
ag14
aVthey
p111
aVdo
p112
aVn't
p113
aVknow
p114
aVwhere
p115
aVthat
p116
aVis
p117
ag14
aVbut
p118
aVthe
p119
aVcheque
p120
aVbook
p121
aVthey
p122
aVgot
p123
aVthat
p124
ag22
aVthey
p125
aVnever
p126
aVfumble
p127
aVfor
p128
aVbook
p129
aVfrom
p130
aVan
p131
aVimaginary
p132
aVholster
p133
aV)
p134
aV``
p135
aVwho
p136
aVdo
p137
ag15
aVmake
p138
aVit
p139
aVout
p140
aVto
p141
aV?
p142
aVthere
p143
aV's
p144
aVmy
p145
aVid
p146
aV''
p147
ag22
aVthere
p148
aV's
p149
aVsomething
p150
aVabout
p151
ag68
aVcheque
p152
aVthat
p153
ag14
aVto
p154
ag68
aVman
p155
ag14
aVis
p156
aVnot
p157
aVmasculine
p158
ag22
ag15
aVdo
p159
aVn't
p160
aVknow
p161
aVexactly
p162
aVwhat
p163
aVit
p164
aVis
p165
ag15
aVthink
p166
aVto
p167
ag68
aVman
p168
ag14
ag68
aVcheque
p169
aVis
p170
aVlike
p171
ag68
aVnote
p172
aVfrom
p173
aVyour
p174
aVmother
p175
aVthat
p176
aVsays
p177
aV``
p178
ag15
aVdo
p179
aVn't
p180
aVhave
p181
aVany
p182
aVmoney
p183
ag14
aVbut
p184
aVif
p185
aVyou
p186
aV'll
p187
aVcontact
p188
aVthese
p189
aVpeople
p190
ag14
ag15
aV'm
p191
aVsure
p192
aVthey
p193
aV'll
p194
aVstick
p195
aVup
p196
aVfor
p197
aVme
p198
aVif
p199
aVyou
p200
aVjust
p201
aVtrust
p202
aVme
p203
aVthis
p204
aVone
p205
aVtime
p206
ag15
aVdo
p207
aVn't
p208
aVhave
p209
aVany
p210
aVmoney
p211
aVbut
p212
ag15
aVhave
p213
aVthese
p214
ag15
aVwrote
p215
aVon
p216
aVthese
p217
aVis
p218
aVthis
p219
aVof
p220
aVany
p221
aVvalue
p222
aVat
p223
aVall
p224
ag142
aV''
p225
aaa(lp226
Vjerry
p227
a(lp228
Vwhat
p229
aV's
p230
aVthat
p231
aVone
p232
ag142
aaa(lp233
Velaine
p234
a(lp235
Vcoccoon
p236
aVii
p237
aVthe
p238
aVreturn
p239
ag22
ag15
aVguess
p240
aVthey
p241
aVdid
p242
aVn't
p243
aVlike
p244
aVit
p245
aVup
p246
aVthere
p247
aaa(lp248
Vjerry
p249
a(lp250
Vmaybe
p251
aVthey
p252
aVcame
p253
aVback
p254
aVfor
p255
aVchinese
p256
aVfood
p257
ag22
aVy'know
p258
aVmaureen
p259
aVstapleton
p260
ag14
aVif
p261
aVshe
p262
aVgets
p263
ag68
aVcraving
p264
ag14
aVshe
p265
aV's
p266
aVprobably
p267
aVscreamin
p268
aV'
p269
aVat
p270
aVthose
p271
aValiens
p272
ag14
ag15
aVgot
p273
aVta
p274
aVhave
p275
ag68
aVlo
p276
aVmein
p277
aV!
p278
aaa(lp279
Velaine
p280
a(lp281
Vokay
p282
ag14
aVwhat
p283
aV're
p284
aVwe
p285
aVdoing
p286
aVhere
p287
ag142
ag15
aVhave
p288
aVseen
p289
aV*everything*
p290
ag22
aaa(lp291
Vjerry
p292
a(lp293
Voh
p294
aVyeah
p295
ag142
ag15
aVdo
p296
aVn't
p297
aVbelieve
p298
aVyou
p299
aV've
p300
aVseen
p301
aVthis
p302
ag22
aaa(lp303
Velaine
p304
a(lp305
Voh
p306
ag14
aVlovely
p307
aaa(lp308
Vjerry
p309
a(lp310
Vyeah
p311
aaa(lp312
Velaine
p313
a(lp314
Vwhat
p315
aVdo
p316
aVyou
p317
aVthink
p318
aVtheir
p319
aVparents
p320
aVthink
p321
ag142
aaa(lp322
Vjerry
p323
a(lp324
Vso
p325
ag14
aVuh
p326
ag14
aVwhat
p327
aV's
p328
aVyour
p329
aVson
p330
aVdoing
p331
aVnow
p332
ag14
aVdr.
p333
aVstevens
p334
ag142
aVoh
p335
ag14
aVhe
p336
aV's
p337
ag68
aVpublic
p338
aVfornicator
p339
ag22
aVyes
p340
ag14
aVhe
p341
aV's
p342
ag68
aVfine
p343
aVboy
p344
aaa(lp345
Velaine
p346
a(lp347
Vy'know
p348
aVwhat
p349
ag142
aVthis
p350
aVwould
p351
aVbe
p352
ag68
aVreally
p353
aVfunny
p354
aVgift
p355
aVfor
p356
aVpamela
p357
aV's
p358
aVbirthday
p359
ag22
aaa(lp360
Vjerry
p361
a(lp362
Vpamela
p363
ag142
aVdo
p364
ag15
aVknow
p365
aVher
p366
ag142
aaa(lp367
Velaine
p368
a(lp369
Vyeah
p370
ag14
aVyou
p371
aVmet
p372
aVher
p373
aVwhen
p374
aVwe
p375
aVwere
p376
aVgoing
p377
aVout
p378
ag22
aaa(lp379
Vjerry
p380
a(lp381
Voh
p382
aVyeah
p383
ag14
aVright
p384
aaa(lp385
Velaine
p386
a(lp387
Vyou
p388
aVhave
p389
aV*no*
p390
aVidea
p391
aVwho
p392
ag15
aV'm
p393
aVtalking
p394
aVabout
p395
ag14
aVdo
p396
aVyou
p397
ag142
aaa(lp398
Vjerry
p399
a(lp400
Vno
p401
ag22
aaa(lp402
Velaine
p403
a(lp404
Vblonde
p405
aVhair
p406
aVremember
p407
ag142
aVglasses
p408
ag142
aVhave
p409
aVyou
p410
aV*totally*
p411
aVblocked
p412
aVout
p413
aVthe
p414
aVentire
p415
aVtime
p416
aVwe
p417
aVwere
p418
ag68
aVcouple
p419
ag142
aaa(lp420
Vjerry
p421
a(lp422
Vriverside
p423
aVdrive
p424
ag22
aaa(lp425
Velaine
p426
a(lp427
Vright
p428
ag278
aVin
p429
aVfact
p430
aVno
p431
ag14
aVnever
p432
aVmind
p433
aaa(lp434
Vjerry
p435
a(lp436
Vwell
p437
ag14
aVwhat
p438
aVis
p439
aVit
p440
ag142
aaa(lp441
Velaine
p442
a(lp443
Vwell
p444
ag14
ag68
aVbunch
p445
aVof
p446
aVpeople
p447
aVare
p448
aVgetting
p449
aVtogether
p450
aVtomorrow
p451
aVnight
p452
aVat
p453
aVsome
p454
aVbar
p455
aVfor
p456
aVher
p457
aVbirthday
p458
ag14
aVbut
p459
aVyou
p460
aVdo
p461
aVn't
p462
aVwant
p463
aVto
p464
aVgo
p465
aVto
p466
aVthat
p467
aVno
p468
ag22
aaa(lp469
Vjerry
p470
a(lp471
Vwait
p472
ag68
aVsecond
p473
ag14
aVwait
p474
ag68
aVsecond
p475
ag22
aVwe
p476
aVcould
p477
aVwork
p478
aVout
p479
ag68
aVlittle
p480
aVdeal
p481
aVhere
p482
ag22
aaa(lp483
Velaine
p484
a(lp485
Vwhat
p486
aVlittle
p487
aVdeal
p488
ag142
aaa(lp489
Vjerry
p490
a(lp491
g15
aVwill
p492
aVgo
p493
aVto
p494
aVthat
p495
ag14
aVif
p496
aVyou
p497
aVgo
p498
aVwith
p499
aVme
p500
aVto
p501
ag68
aVlittle
p502
aVfamily
p503
aVwedding
p504
ag15
aVhave
p505
aVon
p506
aVsaturday
p507
ag22
aaa(lp508
Velaine
p509
a(lp510
g68
aV*wedding*
p511
ag278
ag142
aVhave
p512
aVyou
p513
aV*lost*
p514
aVit
p515
ag14
aVman
p516
ag142
aaa(lp517
Vjerry
p518
a(lp519
Vy'know
p520
ag14
aVmy
p521
aVparents
p522
aVare
p523
aVcoming
p524
aVin
p525
aVfor
p526
aVthis
p527
aaa(lp528
Velaine
p529
a(lp530
Vthey
p531
aV're
p532
aVcoming
p533
aVin
p534
ag142
aaa(lp535
Vjerry
p536
a(lp537
Vyeah
p538
ag14
aVtomorrow
p539
ag22
aaa(lp540
Velaine
p541
a(lp542
Vhey
p543
ag14
aVdid
p544
aVyour
p545
aVfather
p546
aVever
p547
aVget
p548
aVthat
p549
aVhair
p550
aVweave
p551
ag142
aaa(lp552
Vjerry
p553
a(lp554
Vno
p555
ag14
aVno
p556
aVstill
p557
aVdoin
p558
ag269
aVthe
p559
aVbig
p560
aV*sweep*
p561
aVacross
p562
ag22
aaa(lp563
Velaine
p564
a(lp565
Vwhy
p566
aVdoes
p567
aVhe
p568
aVdo
p569
aVthat
p570
ag142
aaa(lp571
Vjerry
p572
a(lp573
Vdoes
p574
aVn't
p575
aVthink
p576
aVanyone
p577
aVcan
p578
aVtell
p579
ag142
aaa(lp580
Vjerry
p581
a(lp582
Vso
p583
aVc'mon
p584
ag14
aVdo
p585
aVwe
p586
aVhave
p587
ag68
aVdeal
p588
ag142
aaa(lp589
Velaine
p590
a(lp591
g68
aV*wedding*
p592
ag142
aaa(lp593
Vjerry
p594
a(lp595
Vthere
p596
aV's
p597
ag68
aVlot
p598
aVof
p599
aVpeople
p600
aVto
p601
aVmock
p602
aaa(lp603
Velaine
p604
a(lp605
Valright
p606
ag14
aVwhat
p607
aVthe
p608
aVhell
p609
ag22
aaa(lp610
Vjerry
p611
a(lp612
Vgreat
p613
ag278
aaa(lp614
Vwoman
p615
a(lp616
Vwhen
p617
aVyou
p618
aV're
p619
aVdead
p620
ag14
aVyou
p621
aV're
p622
aVdead
p623
ag22
aVthat
p624
aV's
p625
aVit
p626
ag22
aVyou
p627
aV're
p628
aVnot
p629
aVgoin
p630
ag269
aVanywhere
p631
aaa(lp632
Velaine
p633
a(lp634
Vc'mon
p635
aVlets
p636
aVgo
p637
ag14
aVc'mon
p638
aaa(lp639
Vjerry
p640
a(lp641
Vwas
p642
ag15
aVsupposed
p643
aVto
p644
aVbring
p645
aVsomething
p646
ag142
aaa(lp647
Velaine
p648
a(lp649
Vyou
p650
aVcould
p651
aVhave
p652
ag22
aaa(lp653
Vjerry
p654
a(lp655
g15
aVmet
p656
aVher
p657
aV*one*
p658
aVtime
p659
aaa(lp660
Velaine
p661
a(lp662
Vit
p663
aVis
p664
aVnot
p665
aVnecessary
p666
ag22
aaa(lp667
Vjerry
p668
a(lp669
Vwhat
p670
aVdid
p671
aVyou
p672
aVsay
p673
aVthen
p674
ag142
aaa(lp675
Velaine
p676
a(lp677
Vsssshhhhhh
p678
ag278
ag278
ag278
aaa(lp679
Vpamela
p680
a(lp681
Vhi
p682
aaa(lp683
Velaine
p684
a(lp685
Vhi
p686
aVpamela
p687
ag14
aVyou
p688
aVremember
p689
aVjerry
p690
ag22
aaa(lp691
Vpamela
p692
a(lp693
Vyes
p694
ag14
aVwe
p695
aVmet
p696
ag22
aaa(lp697
Vjerry
p698
a(lp699
Vhi
p700
ag14
aVhappy
p701
aVbirthday
p702
ag22
aaa(lp703
Vpamela
p704
a(lp705
Vahh
p706
ag14
aVeverybody
p707
ag14
aVthis
p708
aVis
p709
aVelaine
p710
aVand
p711
aVjerry
p712
ag22
aaa(lp713
Vguests
p714
a(lp715
Vhi
p716
aaa(lp717
Vjerry
p718
a(lp719
g15
aVdid
p720
aVn't
p721
aVbring
p722
aVanything
p723
ag22
aaa(lp724
Vpamela
p725
a(lp726
Vahh
p727
ag14
ag15
aVput
p728
aVyou
p729
aVtwo
p730
aVright
p731
aVhere
p732
ag22
aaa(lp733
Vjerry
p734
a(lp735
Voh
p736
ag14
aVokay
p737
ag15
aV'm
p738
aVsorry
p739
ag14
ag15
aVdid
p740
aVn't
p741
aVknow
p742
aVwhat
p743
aVto
p744
aVbring
p745
ag14
aVnobody
p746
aVtold
p747
aVme
p748
ag22
aaa(lp749
Vvanessa
p750
a(lp751
Vhow
p752
aVbig
p753
ag68
aVtip
p754
aVdo
p755
aVyou
p756
aVthink
p757
aVit
p758
aV'd
p759
aVtake
p760
aVto
p761
aVget
p762
aVhim
p763
aVto
p764
aVstop
p765
ag142
aaa(lp766
Vjerry
p767
a(lp768
g15
aV'm
p769
aVin
p770
aVfor
p771
aVfive
p772
aaa(lp773
Vvanessa
p774
a(lp775
g15
aV'll
p776
aVsupply
p777
aVthe
p778
aVhat
p779
ag22
aaa(lp780
Vjerry
p781
a(lp782
Vuh-oh
p783
aVwhat
p784
aVdo
p785
aVwe
p786
aVhave
p787
aVhere
p788
aaa(lp789
Vvanessa
p790
a(lp791
Vwhy
p792
aVdo
p793
aVn't
p794
aVyou
p795
aVrelax
p796
aVand
p797
aVtake
p798
aVyour
p799
aVjacket
p800
aVoff
p801
ag142
aaa(lp802
Vjerry
p803
a(lp804
Voh
p805
ag14
ag15
aVca
p806
aVn't
p807
aV--
p808
ag15
aVhave
p809
ag68
aVtendency
p810
aVto
p811
aVget
p812
aVchilly
p813
ag22
aaa(lp814
Vvanessa
p815
a(lp816
Vhow
p817
aVmasculine
p818
aaa(lp819
Vjerry
p820
a(lp821
Vplus
p822
ag15
aV'm
p823
aVwearing
p824
aVshort
p825
aVsleeves
p826
ag14
ag15
aVdo
p827
aVn't
p828
aVwant
p829
aVto
p830
aVexpose
p831
aVmy
p832
aVtattoos
p833
ag22
aVshe
p834
aV's
p835
aVunbelievable
p836
ag278
aaa(lp837
Vroger
p838
a(lp839
Vhey
p840
ag14
aVthis
p841
aVguy
p842
aVsays
p843
aVhe
p844
aVknows
p845
aVbricker
p846
aaa(lp847
Vvanessa
p848
a(lp849
Voh
p850
ag14
aVyou
p851
aVknow
p852
aVbricker
p853
ag278
aVfrom
p854
aVwhere
p855
ag142
aaa(lp856
Vjerry
p857
a(lp858
Vwhat
p859
aV's
p860
aVgoing
p861
aVon
p862
aVhere
p863
ag142
aVgot
p864
aVta
p865
aVbe
p866
aVher
p867
aVboyfriend
p868
ag14
aVshe
p869
aV's
p870
aVtoo
p871
aVgood
p872
aVto
p873
aVbe
p874
aValone
p875
aVwhat
p876
aV's
p877
aVthe
p878
aVdifference
p879
ag14
ag15
aVca
p880
aVn't
p881
aVmaneuver
p882
aVanyway
p883
aVwith
p884
aVelaine
p885
aVnext
p886
aVto
p887
aVme
p888
aaa(lp889
Vvanessa
p890
a(lp891
Vhow
p892
aVdo
p893
aVyou
p894
aVknow
p895
aVpamela
p896
ag142
aaa(lp897
Vjerry
p898
a(lp899
Vfriend
p900
aVof
p901
ag68
aVfriend
p902
ag22
aVand
p903
aVyou
p904
ag142
aaa(lp905
Vvanessa
p906
a(lp907
Vwe
p908
aVwent
p909
aVto
p910
aVlaw
p911
aVschool
p912
aVtogether
p913
ag22
aaa(lp914
Velaine
p915
a(lp916
Voh
p917
ag14
aVjerry
p918
ag278
aaa(lp919
Vjerry
p920
a(lp921
Voh
p922
aVno
p923
ag14
aVnot
p924
aV*now*
p925
aaa(lp926
Velaine
p927
a(lp928
g15
aVhad
p929
aVthis
p930
aVdream
p931
aVlast
p932
aVnight
p933
aVand
p934
aVyou
p935
aVwere
p936
aVin
p937
aVit
p938
ag22
aaa(lp939
Vjerry
p940
a(lp941
Voh
p942
aVreally
p943
aVoh
p944
aVgod
p945
ag14
ag15
aVgot
p946
aVta
p947
aVget
p948
aVout
p949
aVof
p950
aVthis
p951
aaa(lp952
Velaine
p953
a(lp954
Vyou
p955
aVwere
p956
aVyou
p957
ag14
aVbut
p958
ag14
aVyou
p959
aVwere
p960
aVn't
p961
aVyou
p962
aaa(lp963
Vjerry
p964
a(lp965
Vno
p966
aVkidding
p967
aVwhy
p968
aVis
p969
aVthis
p970
aVhappening
p971
ag142
aVplease
p972
ag14
aVmake
p973
aVher
p974
aVstop
p975
ag278
aaa(lp976
Velaine
p977
a(lp978
g15
aVthink
p979
ag14
ag15
aVthink
p980
aVwe
p981
aVwere
p982
aVin
p983
aVmy
p984
aVhouse
p985
aVwhere
p986
ag15
aVgrew
p987
aVup
p988
ag14
aVand
p989
aVyou
p990
aVwere
p991
aVstanding
p992
aVthere
p993
ag14
aVyou
p994
aVwere
p995
aVlooking
p996
aVout
p997
aVthe
p998
aVwindow
p999
aV--
p1000
aaa(lp1001
Vjerry
p1002
a(lp1003
Vthis
p1004
aVis
p1005
aV*brutal*
p1006
aaa(lp1007
Velaine
p1008
a(lp1009
Vyou
p1010
aVturned
p1011
aVaround
p1012
aVand
p1013
aVyou
p1014
aVhad
p1015
aVthese
p1016
aVwooden
p1017
aVteeth
p1018
aaa(lp1019
Vjerry
p1020
a(lp1021
Vhow
p1022
aVdo
p1023
aVyou
p1024
aVlike
p1025
aVthat
p1026
aVcan
p1027
ag15
aVturn
p1028
aVnow
p1029
ag142
aVis
p1030
aVthis
p1031
aVover
p1032
ag142
aVno
p1033
ag14
ag15
aVca
p1034
aVn't
p1035
ag14
ag15
aVca
p1036
aVn't
p1037
ag15
aV'm
p1038
aVstuck
p1039
aaa(lp1040
Velaine
p1041
a(lp1042
Vjerry
p1043
ag142
aVare
p1044
aVyou
p1045
aVlistening
p1046
aVto
p1047
aVme
p1048
ag142
aaa(lp1049
Vjerry
p1050
a(lp1051
Vyes
p1052
ag14
ag15
aV*heard*
p1053
aVyou
p1054
ag22
aaa(lp1055
Vpamela
p1056
a(lp1057
Velaine
p1058
ag14
aVwhat
p1059
aV's
p1060
aVthe
p1061
aVname
p1062
aVof
p1063
aVthat
p1064
aVjewelry
p1065
aVstore
p1066
aVyou
p1067
aVtook
p1068
aVme
p1069
aVto
p1070
aVthat
p1071
aVtime
p1072
ag142
aaa(lp1073
Vjerry
p1074
a(lp1075
Vthank
p1076
aV*you*
p1077
ag14
aVpamela
p1078
ag278
aaa(lp1079
Vjerry
p1080
a(lp1081
Vso
p1082
ag14
aVyou
p1083
aV're
p1084
ag68
aVlawyer
p1085
aaa(lp1086
Vvanessa
p1087
a(lp1088
Vsagman
p1089
ag14
aVbennet
p1090
ag14
aVrobbins
p1091
ag14
aVoppenheim
p1092
aVand
p1093
aVtaft
p1094
ag22
aaa(lp1095
Vjerry
p1096
a(lp1097
Vsagman
p1098
ag14
aVbennet
p1099
ag14
aVrobbins
p1100
ag14
aVoppenheim
p1101
aVand
p1102
aVtaft
p1103
ag22
aVsagman
p1104
ag14
aVbennet
p1105
ag14
aVrobbins
p1106
ag14
aVoppenheim
p1107
aVand
p1108
aVtaft
p1109
aVof
p1110
aVcourse
p1111
ag14
aVthey
p1112
aVhandled
p1113
aVmy
p1114
aVtattoo
p1115
aVremoval
p1116
aVlawsuit
p1117
ag278
aaa(lp1118
Vvanessa
p1119
a(lp1120
Voh
p1121
ag14
aVthat
p1122
aVwas
p1123
aVyou
p1124
ag278
aaa(lp1125
Vjerry
p1126
a(lp1127
Vimagine
p1128
ag14
aVspelling
p1129
aVmom
p1130
aVwith
p1131
aVtwo
p1132
aVo
p1133
aV's
p1134
aaa(lp1135
Vvanessa
p1136
a(lp1137
Vvery
p1138
aVfunny
p1139
ag278
aVwhat
p1140
aVdo
p1141
aVyou
p1142
aVdo
p1143
ag142
aaa(lp1144
Vjerry
p1145
a(lp1146
Vcomedian
p1147
ag22
aaa(lp1148
Vvanessa
p1149
a(lp1150
Vreally
p1151
aVthat
p1152
aVexplains
p1153
aVit
p1154
aaa(lp1155
Vjerry
p1156
a(lp1157
Vsagman
p1158
ag14
aVbennet
p1159
ag14
aVrobbins
p1160
ag14
aVoppenheim
p1161
aVand
p1162
aVtaft
p1163
ag22
aVsagman
p1164
ag14
aVbennet
p1165
ag14
aVrobbins
p1166
ag14
aVoppenheim
p1167
aVand
p1168
aVtaft
p1169
ag22
aaa(lp1170
Vroger
p1171
a(lp1172
Vare
p1173
aVyou
p1174
aVready
p1175
ag142
aaa(lp1176
Vvanessa
p1177
a(lp1178
Vwe
p1179
aVgot
p1180
aVta
p1181
aVrun
p1182
ag22
aVhappy
p1183
aVbirthday
p1184
ag278
aaa(lp1185
Vjerry
p1186
a(lp1187
g15
aVca
p1188
aVn't
p1189
aVbelieve
p1190
aVit
p1191
aV--
p1192
ag15
aVgot
p1193
aV*nothing*
p1194
ag278
ag15
aVdo
p1195
aVn't
p1196
aVeven
p1197
aVknow
p1198
aVher
p1199
aVname
p1200
ag278
aaa(lp1201
Vjerry
p1202
a(lp1203
Vsagman
p1204
ag14
aVbennet
p1205
ag14
aVrobbins
p1206
ag14
aVoppenheim
p1207
aVand
p1208
aVtaft
p1209
ag22
aVsagman
p1210
ag14
aVbennet
p1211
ag14
aVrobbins
p1212
ag14
aVoppen
p1213
aVsagman
p1214
aVsag
p1215
aaa(lp1216
Vjerry
p1217
a(lp1218
Vthat
p1219
aVwas
p1220
aVn't
p1221
aVso
p1222
aVbad
p1223
ag14
aVreally
p1224
aaa(lp1225
Velaine
p1226
a(lp1227
Vy'know
p1228
ag14
aVuh
p1229
ag14
aVyou
p1230
aVcould
p1231
aVuse
p1232
ag68
aVlittle
p1233
aVwork
p1234
aVon
p1235
aVyour
p1236
aVmanners
p1237
ag22
aaa(lp1238
Vjerry
p1239
a(lp1240
Vwhy
p1241
ag142
aVwhat
p1242
aVdid
p1243
ag15
aVdo
p1244
ag142
aaa(lp1245
Velaine
p1246
a(lp1247
Vwell
p1248
ag14
ag15
aVjust
p1249
aVdo
p1250
aVn't
p1251
aVappreciate
p1252
aVthese
p1253
aVlittle
p1254
aVcourtesy
p1255
aVresponses
p1256
ag14
aVlike
p1257
ag15
aV'm
p1258
aVselling
p1259
aVyou
p1260
aValuminum
p1261
aVsiding
p1262
ag22
aaa(lp1263
Vjerry
p1264
a(lp1265
g15
aVwas
p1266
aVlistening
p1267
ag278
aaa(lp1268
Velaine
p1269
a(lp1270
Vno
p1271
ag278
aVyou
p1272
aVcould
p1273
aVn't
p1274
aVwait
p1275
aVto
p1276
aVget
p1277
aVback
p1278
aVto
p1279
aVyour
p1280
aVlittle
p1281
aVconversation
p1282
ag22
aaa(lp1283
Vjerry
p1284
a(lp1285
Vno
p1286
ag14
aVyou
p1287
aVwere
p1288
aVtalking
p1289
aVabout
p1290
aVthe
p1291
ag14
aVthe
p1292
aVum
p1293
ag14
aVthe
p1294
aVdream
p1295
aVyou
p1296
aVhad
p1297
ag22
aaa(lp1298
Velaine
p1299
a(lp1300
Vuh-huh
p1301
aaa(lp1302
Vjerry
p1303
a(lp1304
Vwhere
p1305
aVyou
p1306
aVhad
p1307
ag14
aVuh
p1308
ag14
aVwooden
p1309
aVteeth
p1310
ag22
aaa(lp1311
Velaine
p1312
a(lp1313
Vno
p1314
ag278
aVno
p1315
ag278
aV*you*
p1316
aVhad
p1317
aVwooden
p1318
aVteeth
p1319
ag278
aV*you*
p1320
aVhad
p1321
aVwooden
p1322
aVteeth
p1323
ag278
aV*i*
p1324
aVdid
p1325
aVn't
p1326
aVhave
p1327
aVwooden
p1328
aVteeth
p1329
ag14
aV*you*
p1330
aVdid
p1331
ag278
aaa(lp1332
Vjerry
p1333
a(lp1334
Valright
p1335
ag14
aVso
p1336
aV*i*
p1337
aVhad
p1338
aVwooden
p1339
aVteeth
p1340
ag14
aVso
p1341
aVwhat
p1342
ag142
aaa(lp1343
Velaine
p1344
a(lp1345
Vso
p1346
aVnothing
p1347
aVnothing
p1348
aaa(lp1349
Vjerry
p1350
a(lp1351
Vapparently
p1352
aVplato
p1353
ag14
aVwho
p1354
aVcame
p1355
aVup
p1356
aVwith
p1357
aVthe
p1358
aVconcept
p1359
aVof
p1360
aVthe
p1361
aVplatonic
p1362
aVrelationship
p1363
ag14
aVwas
p1364
aVpretty
p1365
aVexcited
p1366
aVabout
p1367
aVit
p1368
ag22
aVhe
p1369
aVnamed
p1370
aVit
p1371
aVafter
p1372
aVhimself
p1373
ag22
aVhe
p1374
aVsaid
p1375
aV``
p1376
aVyeah
p1377
ag14
ag15
aVgot
p1378
aVthis
p1379
aVnew
p1380
aVthing
p1381
aV--
p1382
aVplatonic
p1383
ag22
aVmy
p1384
aVidea
p1385
ag14
aVmy
p1386
aVname
p1387
ag14
aVcallin
p1388
ag269
aVit
p1389
aVafter
p1390
aVmyself
p1391
aVwhat
p1392
ag15
aVdo
p1393
aVis
p1394
ag14
ag15
aVgo
p1395
aV*out*
p1396
aVwith
p1397
aVthe
p1398
aVgirls
p1399
ag14
ag15
aV*talk*
p1400
aVwith
p1401
aVthem
p1402
aV--
p1403
aVdo
p1404
aVn't
p1405
aV*do*
p1406
aVanything
p1407
aVand
p1408
aVgo
p1409
aVright
p1410
aVhome
p1411
ag22
aVwhat'dya
p1412
aVthink
p1413
ag142
ag15
aVthink
p1414
aVit
p1415
aV's
p1416
aVgoing
p1417
aVto
p1418
aVbe
p1419
aV*big*
p1420
ag278
aV''
p1421
ag15
aVbet
p1422
aVyou
p1423
aVthere
p1424
aVwere
p1425
aVother
p1426
aVguys
p1427
aVin
p1428
aVhistory
p1429
aVthat
p1430
aVtried
p1431
aVto
p1432
aVget
p1433
aVrelationships
p1434
aVnamed
p1435
aVafter
p1436
aVthem
p1437
ag14
aVbut
p1438
aVit
p1439
aVdid
p1440
aVn't
p1441
aVwork
p1442
ag22
aVy'know
p1443
ag14
ag15
aVbet
p1444
aVrico
p1445
ag22
aVwould
p1446
aVyou
p1447
aVlike
p1448
aVto
p1449
aVgo
p1450
aVto
p1451
aVbed
p1452
aVimmediately
p1453
ag142
aVhey
p1454
ag14
aVit
p1455
aV's
p1456
ag68
aV*
p1457
aVriconic
p1458
ag1457
aVrelationship
p1459
aV''
p1460
aaa(lp1461
Vjerry
p1462
a(lp1463
Vhey
p1464
ag278
aaa(lp1465
Vmorty
p1466
a(lp1467
Vah
p1468
ag14
aVthere
p1469
aVhe
p1470
aVis
p1471
ag278
aaa(lp1472
Vjerry
p1473
a(lp1474
Vthis
p1475
aVis
p1476
aVwhat
p1477
ag15
aVlike
p1478
ag14
aVsee
p1479
ag142
aVyou
p1480
aVcome
p1481
aVhome
p1482
aVand
p1483
aVyour
p1484
aVparents
p1485
aVare
p1486
aVin
p1487
aVyour
p1488
aVbed
p1489
ag278
aaa(lp1490
Vhelen
p1491
a(lp1492
Vy'know
p1493
ag14
aVjerry
p1494
ag14
aVwe
p1495
aVdo
p1496
aVn't
p1497
aVhave
p1498
aVto
p1499
aVdo
p1500
aVthis
p1501
aaa(lp1502
Vjerry
p1503
a(lp1504
Vwhat
p1505
aVare
p1506
aVyou
p1507
aVtalkin
p1508
ag269
aVabout
p1509
ag142
aVit
p1510
aV's
p1511
aVfine
p1512
ag14
ag15
aVlove
p1513
aVhaving
p1514
aVyou
p1515
aVhere
p1516
aaa(lp1517
Vhelen
p1518
a(lp1519
Vtomorrow
p1520
aVwe
p1521
aV'll
p1522
aVgo
p1523
aVto
p1524
ag68
aVhotel
p1525
ag22
aaa(lp1526
Vjerry
p1527
a(lp1528
Vma
p1529
ag14
aVwill
p1530
aVyou
p1531
aVstop
p1532
ag142
aaa(lp1533
Vhelen
p1534
a(lp1535
Vno
p1536
ag14
aVwhy
p1537
aVshould
p1538
aVwe
p1539
aVtake
p1540
aVover
p1541
aVyour
p1542
aVapartment
p1543
ag142
aaa(lp1544
Vjerry
p1545
a(lp1546
g15
aVdo
p1547
aVn't
p1548
aVcare
p1549
aV--
p1550
ag15
aV'm
p1551
aVsleeping
p1552
aVnext
p1553
aVdoor
p1554
ag22
aaa(lp1555
Vhelen
p1556
a(lp1557
Vyour
p1558
aVfriend
p1559
aVkramer
p1560
aVdoes
p1561
aVn't
p1562
aVmind
p1563
ag142
aaa(lp1564
Vjerry
p1565
a(lp1566
Vno
p1567
ag14
aVhe
p1568
aV's
p1569
aVmaking
p1570
ag68
aVbouillabaisse
p1571
ag22
aaa(lp1572
Vjerry
p1573
a(lp1574
Vso
p1575
aVdad
p1576
ag14
aVlem
p1577
aVme
p1578
aVask
p1579
aVyou
p1580
ag68
aVquestion
p1581
ag22
aVhow
p1582
aVmany
p1583
aVpeople
p1584
aVwork
p1585
aVat
p1586
aVthese
p1587
aVbig
p1588
aVlaw
p1589
aVoffices
p1590
ag142
aaa(lp1591
Vmorty
p1592
a(lp1593
Vdepends
p1594
aVon
p1595
aVthe
p1596
aVfirm
p1597
ag22
aaa(lp1598
Vjerry
p1599
a(lp1600
Vyeah
p1601
ag14
aVbut
p1602
aVif
p1603
aVyou
p1604
aVcalled
p1605
aVup
p1606
aVand
p1607
aVdescribed
p1608
aVsomeone
p1609
ag14
aVdo
p1610
aVyou
p1611
aVthink
p1612
aVthey
p1613
aVwould
p1614
aVknow
p1615
aVwho
p1616
aVit
p1617
aVwas
p1618
ag142
aaa(lp1619
Vmorty
p1620
a(lp1621
Vwhat
p1622
aV's
p1623
aVthe
p1624
aVmatter
p1625
ag142
aVyou
p1626
aVneed
p1627
ag68
aVlawyer
p1628
ag142
aaa(lp1629
Vjerry
p1630
a(lp1631
Vno
p1632
ag14
ag15
aVmet
p1633
aVsomeone
p1634
aVat
p1635
aVthis
p1636
aVparty
p1637
ag14
aVand
p1638
ag15
aVknow
p1639
aVwhere
p1640
aVshe
p1641
aVworks
p1642
ag14
aVbut
p1643
ag15
aVdo
p1644
aVn't
p1645
aVknow
p1646
aVher
p1647
aVname
p1648
ag22
aaa(lp1649
Vmorty
p1650
a(lp1651
Vso
p1652
aVwhy
p1653
aVdo
p1654
aVn't
p1655
aVyou
p1656
aVask
p1657
aVsomeone
p1658
aVwho
p1659
aVwas
p1660
aVat
p1661
aVthe
p1662
aVparty
p1663
ag142
aaa(lp1664
Vjerry
p1665
a(lp1666
Vnah
p1667
ag14
aVthe
p1668
aVonly
p1669
aVone
p1670
ag15
aVcould
p1671
aVask
p1672
aVis
p1673
aVelaine
p1674
ag14
aVand
p1675
ag15
aVca
p1676
aVn't
p1677
aVask
p1678
aVher
p1679
ag22
aaa(lp1680
Vhelen
p1681
a(lp1682
Vwhy
p1683
aVnot
p1684
ag142
aaa(lp1685
Vjerry
p1686
a(lp1687
Vbecause
p1688
aVit
p1689
aV's
p1690
aVcomplicated
p1691
aV--
p1692
aVthere
p1693
aV's
p1694
aVsome
p1695
aVtension
p1696
aVthere
p1697
ag22
aaa(lp1698
Vhelen
p1699
a(lp1700
Vhe
p1701
aVused
p1702
aVto
p1703
aVgo
p1704
aVwith
p1705
aVher
p1706
aaa(lp1707
Vhelen
p1708
a(lp1709
Vwhich
p1710
aVone
p1711
aVis
p1712
aVshe
p1713
ag142
aaa(lp1714
Vmorty
p1715
a(lp1716
Vfrom
p1717
aVmaryland
p1718
ag22
aVthe
p1719
aVone
p1720
aVwho
p1721
aVbrought
p1722
aVyou
p1723
aVthe
p1724
aVchocolate
p1725
aVcovered
p1726
aVcherries
p1727
aVyou
p1728
aVdid
p1729
aVn't
p1730
aVlike
p1731
ag22
aaa(lp1732
Vmorty
p1733
a(lp1734
Voh
p1735
aVyeah
p1736
ag14
aVvery
p1737
aValert
p1738
ag22
aVwarm
p1739
aVperson
p1740
ag22
aaa(lp1741
Vjerry
p1742
a(lp1743
Voh
p1744
aVyeah
p1745
ag14
aVshe
p1746
aV's
p1747
aVgreat
p1748
ag22
aaa(lp1749
Vhelen
p1750
a(lp1751
Vso
p1752
ag14
aVhow
p1753
aVcome
p1754
aVnothing
p1755
aVmaterialized
p1756
aVthere
p1757
ag142
aaa(lp1758
Vjerry
p1759
a(lp1760
Vwell
p1761
ag14
aVit
p1762
aV's
p1763
ag68
aVtough
p1764
aVthing
p1765
aVto
p1766
aVtalk
p1767
aVabout
p1768
ag15
aVdunno
p1769
aaa(lp1770
Vhelen
p1771
a(lp1772
g15
aVknow
p1773
aVwhat
p1774
aVit
p1775
aVwas
p1776
aaa(lp1777
Vjerry
p1778
a(lp1779
Vyou
p1780
aVdo
p1781
aVn't
p1782
aVknow
p1783
aVwhat
p1784
aVit
p1785
aVwas
p1786
aaa(lp1787
Vhelen
p1788
a(lp1789
Vso
p1790
ag14
aVwhat
p1791
aVwas
p1792
aVit
p1793
ag142
aaa(lp1794
Vjerry
p1795
a(lp1796
Vwell
p1797
ag14
aVwe
p1798
aVfight
p1799
ag68
aVlot
p1800
aVfor
p1801
aVsome
p1802
aVreason
p1803
aVh
p1804
aV+
p1805
aVm
p1806
aVoh
p1807
ag14
aVwell
p1808
aaa(lp1809
Vjerry
p1810
a(lp1811
Vand
p1812
aVthere
p1813
aVwas
p1814
ag68
aVlittle
p1815
aVproblem
p1816
aVwith
p1817
aVthe
p1818
aVphysical
p1819
aVchemistry
p1820
aaa(lp1821
Vhelen
p1822
a(lp1823
Vwell
p1824
ag14
ag15
aVthink
p1825
aVshe
p1826
aV's
p1827
ag68
aVvery
p1828
aVattractive
p1829
aVgirl
p1830
ag22
aaa(lp1831
Vjerry
p1832
a(lp1833
Voh
p1834
ag14
aVshe
p1835
aVis
p1836
ag14
aVshe
p1837
aVabsolutely
p1838
aVis
p1839
ag22
aaa(lp1840
Vhelen
p1841
a(lp1842
g15
aVcan
p1843
aVsee
p1844
aVif
p1845
aVthere
p1846
aVwas
p1847
ag68
aV*weight*
p1848
aVproblem
p1849
aaa(lp1850
Vjerry
p1851
a(lp1852
Vno
p1853
ag14
aVit
p1854
aV's
p1855
aVnot
p1856
aVthat
p1857
ag22
aVit
p1858
aVwas
p1859
aVn't
p1860
aVall
p1861
aVone-sided
p1862
ag22
aaa(lp1863
Vhelen
p1864
a(lp1865
Vyou
p1866
aVknow
p1867
ag14
aVyou
p1868
aVca
p1869
aVn't
p1870
aVbe
p1871
aVso
p1872
aVparticular
p1873
ag22
aVnobody
p1874
aV's
p1875
aVperfect
p1876
ag22
aaa(lp1877
Vjerry
p1878
a(lp1879
g15
aVknow
p1880
ag14
ag15
aVknow
p1881
aaa(lp1882
Vmorty
p1883
a(lp1884
Vy'know
p1885
aVjerry
p1886
ag14
aVit
p1887
aV's
p1888
ag68
aVgood
p1889
aVthing
p1890
ag15
aVwas
p1891
aVn't
p1892
aVso
p1893
aVparticular
p1894
ag22
aaa(lp1895
Vhelen
p1896
a(lp1897
Vidiot
p1898
aVso
p1899
aVwho
p1900
aV're
p1901
aVyou
p1902
aVlooking
p1903
aVfor
p1904
ag14
aVsophia
p1905
aVloren
p1906
ag142
aaa(lp1907
Vjerry
p1908
a(lp1909
Vthat
p1910
aV's
p1911
aVgot
p1912
aV*nothin'*
p1913
aVto
p1914
aVdo
p1915
aVwith
p1916
aVit
p1917
ag22
aaa(lp1918
Vmorty
p1919
a(lp1920
Vhow
p1921
aVabout
p1922
aVloni
p1923
aVanderson
p1924
ag142
aaa(lp1925
Vhelen
p1926
a(lp1927
Vwhere
p1928
aVdo
p1929
aVyou
p1930
aVget
p1931
aVloni
p1932
aVanderson
p1933
ag142
aaa(lp1934
Vmorty
p1935
a(lp1936
Vwhy
p1937
ag14
aVwhat
p1938
aV's
p1939
aVwrong
p1940
aVwith
p1941
aVloni
p1942
aVanderson
p1943
ag142
aaa(lp1944
Vhelen
p1945
a(lp1946
g15
aVlike
p1947
aV*elaine*
p1948
aVmore
p1949
aVthan
p1950
aVloni
p1951
aVanderson
p1952
aaa(lp1953
Vjerry
p1954
a(lp1955
Vwhat
p1956
aVare
p1957
aVyou
p1958
aVtwo
p1959
aVtalking
p1960
aVabout
p1961
ag142
aVlook
p1962
ag14
aVelaine
p1963
aVjust
p1964
aVwas
p1965
aVn't
p1966
aVthe
p1967
aVone
p1968
ag22
aaa(lp1969
Vhelen
p1970
a(lp1971
Vand
p1972
aVthis
p1973
aVother
p1974
aVone
p1975
aV's
p1976
aVthe
p1977
aVone
p1978
ag142
aaa(lp1979
Vjerry
p1980
a(lp1981
g15
aVdunno
p1982
ag14
aVmaybe
p1983
aaa(lp1984
Vmorty
p1985
a(lp1986
Vso
p1987
aVask
p1988
aVelaine
p1989
aVthere
p1990
aVfor
p1991
aVthe
p1992
aVnumber
p1993
ag22
aaa(lp1994
Vjerry
p1995
a(lp1996
g15
aVca
p1997
aVn't
p1998
aV--
p1999
aVshe
p2000
aV'll
p2001
aVget
p2002
aVupset
p2003
ag22
ag15
aVnever
p2004
aVtalk
p2005
aVabout
p2006
aVother
p2007
aVwomen
p2008
aVwith
p2009
aVher
p2010
ag14
aVespecially
p2011
aVthis
p2012
aVone
p2013
aVtonight
p2014
ag22
aaa(lp2015
Vhelen
p2016
a(lp2017
Vhow
p2018
aVcould
p2019
aVyou
p2020
aVstill
p2021
aVsee
p2022
aVher
p2023
aVif
p2024
aVyour
p2025
aVnot
p2026
aVinterested
p2027
ag142
aaa(lp2028
Vjerry
p2029
a(lp2030
Vwe
p2031
aV're
p2032
aV*friends*
p2033
ag22
aaa(lp2034
Vmorty
p2035
a(lp2036
Vdoes
p2037
aVn't
p2038
aVsound
p2039
aVlike
p2040
aVyou
p2041
aV're
p2042
aVfriends
p2043
aVto
p2044
aVme
p2045
ag22
aVif
p2046
aVyou
p2047
aVwere
p2048
aVfriends
p2049
aVyou
p2050
aV'd
p2051
aVask
p2052
aVher
p2053
aVfor
p2054
aVthe
p2055
aVnumber
p2056
ag22
aVdo
p2057
aVyou
p2058
aVknow
p2059
aVwhere
p2060
aVthis
p2061
aVother
p2062
aVone
p2063
aVworks
p2064
ag142
aaa(lp2065
Vjerry
p2066
a(lp2067
Voh
p2068
aVyeah
p2069
aaa(lp2070
Vmorty
p2071
a(lp2072
Vwell
p2073
ag14
aVgo
p2074
aVup
p2075
aVto
p2076
aVthe
p2077
aVoffice
p2078
ag22
aaa(lp2079
Vhelen
p2080
a(lp2081
Vup
p2082
aVto
p2083
aVher
p2084
aVoffice
p2085
ag142
aaa(lp2086
Vmorty
p2087
a(lp2088
Vgo
p2089
aVto
p2090
aVthe
p2091
aVbuilding
p2092
ag22
aVshe
p2093
aVgoes
p2094
aVout
p2095
aVto
p2096
aVlunch
p2097
ag14
aVdoes
p2098
aVn't
p2099
aVshe
p2100
ag142
aaa(lp2101
Vjerry
p2102
a(lp2103
g15
aVguess
p2104
aaa(lp2105
Vmorty
p2106
a(lp2107
Vso
p2108
ag14
aVyou
p2109
aVstand
p2110
aVin
p2111
aVthe
p2112
aVlobby
p2113
ag14
aVby
p2114
aVthe
p2115
aVelevator
p2116
ag14
aVand
p2117
aVwait
p2118
aVfor
p2119
aVher
p2120
aVto
p2121
aVcome
p2122
aVdown
p2123
aVfor
p2124
aVlunch
p2125
ag22
aaa(lp2126
Vjerry
p2127
a(lp2128
Vyou
p2129
aVmean
p2130
aVstakeout
p2131
aVthe
p2132
aVlobby
p2133
ag142
aaa(lp2134
Vhelen
p2135
a(lp2136
Vmorty
p2137
ag14
aVthat
p2138
aV's
p2139
aVridiculous
p2140
ag22
aVjust
p2141
aVask
p2142
aVelaine
p2143
aVfor
p2144
aVthe
p2145
aVnumber
p2146
ag278
aaa(lp2147
Vmorty
p2148
a(lp2149
Vhe
p2150
aVdoes
p2151
aVn't
p2152
aVwant
p2153
aVto
p2154
aVask
p2155
aVelaine
p2156
aVfor
p2157
aVthe
p2158
aVnumber
p2159
ag22
aaa(lp2160
Vhelen
p2161
a(lp2162
Vso
p2163
aVyou
p2164
aV've
p2165
aVgot
p2166
aVhim
p2167
aVstanding
p2168
aVby
p2169
aVthe
p2170
aVelevator
p2171
aVlike
p2172
ag68
aV*dope*
p2173
ag278
aVwhat
p2174
aVhappens
p2175
aVwhen
p2176
aVhe
p2177
aVsees
p2178
aVher
p2179
ag142
aaa(lp2180
Vmorty
p2181
a(lp2182
Vhe
p2183
aVpretends
p2184
aVhe
p2185
aV*bumped*
p2186
aVinto
p2187
aVher
p2188
ag278
aaa(lp2189
Vjerry
p2190
a(lp2191
Vy'know
p2192
aVwhat
p2193
ag142
aVthis
p2194
aVis
p2195
aV*not*
p2196
aVthat
p2197
aV*bad*
p2198
aVan
p2199
aVidea
p2200
aaa(lp2201
Vgeorge
p2202
a(lp2203
Vwhat
p2204
aVdoes
p2205
aVshe
p2206
aVlook
p2207
aVlike
p2208
ag142
aaa(lp2209
Vjerry
p2210
a(lp2211
g15
aVdunno
p2212
ag22
aVhard
p2213
aVto
p2214
aVsay
p2215
ag22
aaa(lp2216
Vgeorge
p2217
a(lp2218
Vwhat
p2219
aVactress
p2220
aVdoes
p2221
aVshe
p2222
aVremind
p2223
aVyou
p2224
aVof
p2225
ag142
aaa(lp2226
Vjerry
p2227
a(lp2228
Vloni
p2229
aVanderson
p2230
ag22
aaa(lp2231
Vgeorge
p2232
a(lp2233
Vloni
p2234
aVanderson
p2235
ag142
ag278
aaa(lp2236
Vjerry
p2237
a(lp2238
Vwhat
p2239
ag14
aVthere
p2240
aV's
p2241
aVsomething
p2242
aVwrong
p2243
aVwith
p2244
aVloni
p2245
aVanderson
p2246
ag142
aaa(lp2247
Vjerry
p2248
a(lp2249
Vhey
p2250
aVlisten
p2251
ag14
aVthanks
p2252
aVagain
p2253
aVfor
p2254
aVrunning
p2255
aVover
p2256
aVhere
p2257
ag22
ag15
aVappreciate
p2258
aVit
p2259
ag22
aaa(lp2260
Vgeorge
p2261
a(lp2262
Vyeah
p2263
ag14
aVsure
p2264
ag22
ag15
aVwas
p2265
aVshowing
p2266
ag68
aVcondo
p2267
aVon
p2268
aV48th
p2269
aVst.
p2270
aVbesides
p2271
ag14
aVyou
p2272
aVthink
p2273
ag15
aVwan
p2274
aVna
p2275
aVmiss
p2276
aVthis
p2277
ag142
aaa(lp2278
Vjerry
p2279
a(lp2280
g15
aV'm
p2281
ag68
aVlittle
p2282
aVnervous
p2283
ag22
aaa(lp2284
Vgeorge
p2285
a(lp2286
Vyeah
p2287
ag14
aVme
p2288
aVtoo
p2289
aaa(lp2290
Vjerry
p2291
a(lp2292
Vif
p2293
ag15
aVsee
p2294
aVher
p2295
ag14
aVwhat
p2296
aVdo
p2297
ag15
aVsay
p2298
aVthat
p2299
ag15
aV'm
p2300
aVdoing
p2301
aVhere
p2302
aVin
p2303
aVthe
p2304
aVbuilding
p2305
ag142
aaa(lp2306
Vgeorge
p2307
a(lp2308
Vyou
p2309
aVcame
p2310
aVto
p2311
aVsee
p2312
aVme
p2313
ag15
aVwork
p2314
aVin
p2315
aVthe
p2316
aVbuilding
p2317
ag22
aaa(lp2318
Vjerry
p2319
a(lp2320
Vwhat
p2321
aVdo
p2322
aVyou
p2323
aVdo
p2324
ag142
aaa(lp2325
Vgeorge
p2326
a(lp2327
g15
aV'm
p2328
aVan
p2329
aV*architect*
p2330
ag22
aaa(lp2331
Vjerry
p2332
a(lp2333
Vyou
p2334
aV're
p2335
aVan
p2336
aV*architect*
p2337
ag142
aaa(lp2338
Vgeorge
p2339
a(lp2340
g15
aV'm
p2341
aVnot
p2342
ag142
aaa(lp2343
Vjerry
p2344
a(lp2345
g15
aVdo
p2346
aVn't
p2347
aVsee
p2348
aVarchitecture
p2349
aVcomin
p2350
aVfrom
p2351
aVyou
p2352
aaa(lp2353
Vgeorge
p2354
a(lp2355
g15
aVsuppose
p2356
aV*you*
p2357
aVcould
p2358
aVbe
p2359
aVan
p2360
aVarchitect
p2361
aaa(lp2362
Vjerry
p2363
a(lp2364
g15
aVnever
p2365
aVsaid
p2366
aVthat
p2367
ag15
aVwas
p2368
aVthe
p2369
aVarchitect
p2370
ag22
aVjust
p2371
aVsomethin
p2372
ag269
aVelse
p2373
aaa(lp2374
Vgeorge
p2375
a(lp2376
Valright
p2377
ag14
aVshe
p2378
aV's
p2379
aVnot
p2380
aVeven
p2381
aVgon
p2382
aVna
p2383
aVask
p2384
ag14
aVif
p2385
aVwe
p2386
aV*see*
p2387
aVher
p2388
ag14
aVwhich
p2389
aVis
p2390
aVremote
p2391
ag22
aaa(lp2392
Vjerry
p2393
a(lp2394
Vwell
p2395
aVwhat'dya
p2396
aVwant
p2397
aVme
p2398
aVto
p2399
aVsay
p2400
ag14
aVthat
p2401
ag15
aVjust
p2402
aVwandered
p2403
aVin
p2404
aVhere
p2405
ag142
ag278
aaa(lp2406
Vgeorge
p2407
a(lp2408
Vwe
p2409
aV're
p2410
aVhaving
p2411
aVlunch
p2412
aVwith
p2413
ag68
aVfriend
p2414
aV--
p2415
aVhe
p2416
aVworks
p2417
aVin
p2418
aVthe
p2419
aVbuilding
p2420
ag22
aaa(lp2421
Vjerry
p2422
a(lp2423
Vwhat
p2424
aVis
p2425
aV*his*
p2426
aVname
p2427
ag142
aaa(lp2428
Vgeorge
p2429
a(lp2430
Vbert
p2431
aVhar
p2432
aVbin
p2433
aVson
p2434
ag22
aVbert
p2435
aVhar-bin-son
p2436
ag22
aaa(lp2437
Vjerry
p2438
a(lp2439
Vbert
p2440
aVharbinson
p2441
ag142
aVit
p2442
aVsounds
p2443
aVmade
p2444
aVup
p2445
ag22
aaa(lp2446
Vgeorge
p2447
a(lp2448
Vno
p2449
aVgood
p2450
ag142
aValright
p2451
ag14
aVhow
p2452
aVabout
p2453
aVart
p2454
aVcorr
p2455
aaa(lp2456
Vjerry
p2457
a(lp2458
Vart
p2459
aVcorr
p2460
aaa(lp2461
Vgeorge
p2462
a(lp2463
Vvelay
p2464
aaa(lp2465
Vjerry
p2466
a(lp2467
Vcorvelay
p2468
ag142
aaa(lp2469
Vgeorge
p2470
a(lp2471
Vyeah
p2472
ag14
aVright
p2473
ag22
aaa(lp2474
Vjerry
p2475
a(lp2476
Vwell
p2477
ag14
aVwhat
p2478
aVdoes
p2479
aV*he*
p2480
aVdo
p2481
ag142
aaa(lp2482
Vgeorge
p2483
a(lp2484
Vhe
p2485
aV's
p2486
aVan
p2487
aVimporter
p2488
ag22
aaa(lp2489
Vjerry
p2490
a(lp2491
Vjust
p2492
aVimports
p2493
ag14
aVno
p2494
aVexports
p2495
ag142
aaa(lp2496
Vgeorge
p2497
a(lp2498
Vhe
p2499
aV's
p2500
aVan
p2501
aVimporter/exporter
p2502
ag14
aVokay
p2503
ag142
aaa(lp2504
Vgeorge
p2505
a(lp2506
Vsay
p2507
ag14
aVdid
p2508
aVelaine
p2509
aVever
p2510
aVcall
p2511
aVyou
p2512
aVback
p2513
ag142
aaa(lp2514
Vjerry
p2515
a(lp2516
Vno
p2517
ag14
ag15
aVguess
p2518
aVshe
p2519
aV's
p2520
aVstill
p2521
aVmad
p2522
ag22
aaa(lp2523
Vgeorge
p2524
a(lp2525
g15
aVdo
p2526
aVn't
p2527
aVunderstand
p2528
ag14
aVyou
p2529
aVnever
p2530
aVtalk
p2531
aVto
p2532
aVher
p2533
aVabout
p2534
aVother
p2535
aVwomen
p2536
ag142
aaa(lp2537
Vjerry
p2538
a(lp2539
Vnever
p2540
ag22
aaa(lp2541
Vjerry
p2542
a(lp2543
Vwait
p2544
ag68
aVsecond
p2545
aVthat
p2546
aV's
p2547
aVher
p2548
aVon
p2549
aVthe
p2550
aVright
p2551
ag22
aaa(lp2552
Vgeorge
p2553
a(lp2554
g15
aVforgot
p2555
aVwho
p2556
ag15
aVam
p2557
ag278
aVwho
p2558
aVam
p2559
ag15
ag142
ag278
aaa(lp2560
Vjerry
p2561
a(lp2562
Vyou
p2563
aV're
p2564
aVyou
p2565
ag22
aVwe
p2566
aV're
p2567
aVhaving
p2568
aVlunch
p2569
aVwith
p2570
aVart
p2571
aVcorvelay
p2572
ag22
aaa(lp2573
Vgeorge
p2574
a(lp2575
Vvandelay
p2576
ag278
aaa(lp2577
Vjerry
p2578
a(lp2579
Vcorvelay
p2580
ag278
aaa(lp2581
Vgeorge
p2582
a(lp2583
Vlet
p2584
aVme
p2585
aVbe
p2586
aVthe
p2587
aVarchitect
p2588
ag14
ag15
aVcan
p2589
aVdo
p2590
aVit
p2591
ag278
aaa(lp2592
Vjerry
p2593
a(lp2594
Vhey
p2595
ag14
aVhey
p2596
aVpamela
p2597
aV's
p2598
aVbirthday
p2599
aVparty
p2600
ag14
aVdid
p2601
aVn't
p2602
ag15
aVsee
p2603
aVyou
p2604
aVthere
p2605
aVjerry
p2606
ag22
aaa(lp2607
Vvanessa
p2608
a(lp2609
Vsure
p2610
ag278
aVhi
p2611
ag278
aaa(lp2612
Vjerry
p2613
a(lp2614
Vthis
p2615
aVis
p2616
aVgeorge
p2617
ag22
ag15
aV'm
p2618
aVsorry
p2619
aaa(lp2620
Vvanessa
p2621
a(lp2622
Vvanessa
p2623
ag22
aaa(lp2624
Vgeorge
p2625
a(lp2626
Vnice
p2627
aVto
p2628
aVmeet
p2629
aVyou
p2630
ag22
aaa(lp2631
Vjerry
p2632
a(lp2633
Vah
p2634
ag14
aVsagman
p2635
ag14
aVbennet
p2636
ag14
aVrobbins
p2637
ag14
aVoppenheim
p2638
aVand
p2639
aVtaft
p2640
ag22
aaa(lp2641
Vvanessa
p2642
a(lp2643
Vthat
p2644
aV's
p2645
aVright
p2646
ag278
aVwhat
p2647
aV're
p2648
aVyou
p2649
aVdoing
p2650
aVhere
p2651
ag142
aaa(lp2652
Vjerry
p2653
a(lp2654
Voh
p2655
ag14
aVwere
p2656
aVmeeting
p2657
ag68
aVfriend
p2658
aVof
p2659
aVours
p2660
aVfor
p2661
aVlunch
p2662
ag22
aVhe
p2663
aVworks
p2664
aVhere
p2665
aVin
p2666
aVthe
p2667
aVbuilding
p2668
ag22
aaa(lp2669
Vgeorge
p2670
a(lp2671
Vyeah
p2672
ag14
aVart
p2673
aV*vandelay*
p2674
ag22
aaa(lp2675
Vvanessa
p2676
a(lp2677
Vreally
p2678
ag142
aVwhich
p2679
aVcompany
p2680
ag142
aaa(lp2681
Vjerry
p2682
a(lp2683
g15
aVdo
p2684
aVn't
p2685
aVknow
p2686
ag22
aVhe
p2687
aV's
p2688
aVan
p2689
aVimporter
p2690
ag22
aaa(lp2691
Vvanessa
p2692
a(lp2693
Vimporter
p2694
ag142
aaa(lp2695
Vgeorge
p2696
a(lp2697
Vand
p2698
aVexporter
p2699
ag22
aaa(lp2700
Vjerry
p2701
a(lp2702
Vhe
p2703
aV's
p2704
aVan
p2705
aVimporter/exporter
p2706
ag22
aaa(lp2707
Vgeorge
p2708
a(lp2709
g15
aV'm
p2710
ag14
aVuh
p2711
ag14
ag15
aV'm
p2712
aVan
p2713
aVarchitect
p2714
ag22
aaa(lp2715
Vvanessa
p2716
a(lp2717
Vreally
p2718
ag22
aVwhat
p2719
aVdo
p2720
aVyou
p2721
aVdesign
p2722
ag142
aaa(lp2723
Vgeorge
p2724
a(lp2725
Vuh
p2726
ag14
aVrailroads
p2727
ag14
aVuh
p2728
aaa(lp2729
Vvanessa
p2730
a(lp2731
g15
aVthought
p2732
aVengineers
p2733
aVdo
p2734
aVthat
p2735
ag22
aaa(lp2736
Vgeorge
p2737
a(lp2738
Vthey
p2739
aVcan
p2740
aaa(lp2741
Vjerry
p2742
a(lp2743
Vy'know
p2744
ag15
aV'm
p2745
aVsorry
p2746
aVyou
p2747
aVhad
p2748
aVto
p2749
aVleave
p2750
aVso
p2751
aVearly
p2752
aVthe
p2753
aVother
p2754
aVnight
p2755
ag22
aaa(lp2756
Vvanessa
p2757
a(lp2758
Voh
p2759
ag14
aVme
p2760
aVtoo
p2761
ag22
aVmy
p2762
aVcousin
p2763
aVhad
p2764
aVto
p2765
aVgo
p2766
aVback
p2767
aVto
p2768
aVboston
p2769
ag22
aaa(lp2770
Vjerry
p2771
a(lp2772
Voh
p2773
ag14
aVthat
p2774
aVguy
p2775
aVwas
p2776
aVyour
p2777
aV*cousin*
p2778
ag278
aaa(lp2779
Vvanessa
p2780
a(lp2781
Vyeah
p2782
ag14
aVand
p2783
aVthat
p2784
aVwoman
p2785
aVwas
p2786
aVyour
p2787
aV--
p2788
aaa(lp2789
Vjerry
p2790
a(lp2791
Vfriend
p2792
ag278
aaa(lp2793
Vgeorge
p2794
a(lp2795
g15
aV'll
p2796
aVjust
p2797
ag14
aVuh
p2798
ag14
aVget
p2799
ag68
aVpaper
p2800
aaa(lp2801
Vjerry
p2802
a(lp2803
Vso
p2804
ag14
aVum
p2805
ag14
aVdo
p2806
aVyou
p2807
aVdate
p2808
aVimmature
p2809
aVmen
p2810
ag142
aaa(lp2811
Vvanessa
p2812
a(lp2813
Valmost
p2814
aVexclusively
p2815
aaa(lp2816
Vhelen
p2817
a(lp2818
Vbum
p2819
aVbum
p2820
aVbum
p2821
aVbum
p2822
ag15
aVhave
p2823
aVno
p2824
aVletters
p2825
aVbum
p2826
aVbum
p2827
aVbum
p2828
aVbum
p2829
aaa(lp2830
Vjerry
p2831
a(lp2832
Vma
p2833
ag14
aVwill
p2834
aVyou
p2835
aVgo
p2836
aValready
p2837
ag142
aaa(lp2838
Vhelen
p2839
a(lp2840
Vbum
p2841
aVbum
p2842
aVbum
p2843
aVbum
p2844
aaa(lp2845
Vjerry
p2846
a(lp2847
Vwhat
p2848
aVare
p2849
aVyou
p2850
aVdoing
p2851
ag142
ag278
aaa(lp2852
Vhelen
p2853
a(lp2854
Vwait
p2855
ag14
ag15
aVjust
p2856
aVwant
p2857
aVto
p2858
aVsee
p2859
aVsomething
p2860
aaa(lp2861
Vjerry
p2862
a(lp2863
Vyou
p2864
aVca
p2865
aVn't
p2866
aVlook
p2867
aVin
p2868
aVthere
p2869
ag14
aVwe
p2870
aV're
p2871
aVplaying
p2872
ag278
aaa(lp2873
Vmorty
p2874
a(lp2875
Vevening
p2876
ag14
aVmr.
p2877
aVkramer
p2878
ag278
aaa(lp2879
Vkramer
p2880
a(lp2881
Vhey
p2882
aVmorty
p2883
ag278
aVsalad
p2884
aVdressing
p2885
ag142
aaa(lp2886
Vjerry
p2887
a(lp2888
Vlook
p2889
ag22
aaa(lp2890
Vhelen
p2891
a(lp2892
Vquo
p2893
ag142
aVis
p2894
aVthat
p2895
ag68
aVword
p2896
ag142
aaa(lp2897
Vjerry
p2898
a(lp2899
Vmaybe
p2900
ag278
aaa(lp2901
Vhelen
p2902
a(lp2903
Vwill
p2904
aVyou
p2905
aVchallenge
p2906
aVit
p2907
ag142
aaa(lp2908
Vjerry
p2909
a(lp2910
Vma
p2911
ag14
aVyou
p2912
aVca
p2913
aVn't
p2914
aVlook
p2915
aVup
p2916
aVwords
p2917
aVin
p2918
aVthe
p2919
aVdictionary
p2920
ag278
aVdad
p2921
ag14
aVshe
p2922
aV's
p2923
aVcheating
p2924
ag278
aaa(lp2925
Vkramer
p2926
a(lp2927
Vquo
p2928
ag142
aVthat
p2929
aV's
p2930
aVnot
p2931
ag68
aVword
p2932
ag22
aaa(lp2933
Vhelen
p2934
a(lp2935
Vyou
p2936
aV're
p2937
aVsuch
p2938
ag68
aVstickler
p2939
aaa(lp2940
Vjerry
p2941
a(lp2942
Vwell
p2943
aVput
p2944
aV*something*
p2945
aVdown
p2946
ag14
aVyou
p2947
aV're
p2948
aVtaking
p2949
aVtwenty
p2950
aVminutes
p2951
aVon
p2952
aVthis
p2953
ag22
aVso
p2954
aVis
p2955
aVuncle
p2956
aVmac
p2957
ag14
aVand
p2958
aVartie
p2959
ag14
aVthey
p2960
aV're
p2961
aVall
p2962
aVcoming
p2963
aVover
p2964
aVhere
p2965
aVbefore
p2966
aVthe
p2967
aVwedding
p2968
ag142
aaa(lp2969
Vhelen
p2970
a(lp2971
Vthey
p2972
aV'll
p2973
aVbe
p2974
aVhere
p2975
aVat
p2976
aVtwo
p2977
aVo'clock
p2978
aVoh
p2979
ag14
aVelaine
p2980
aVcalled
p2981
ag22
aVshe
p2982
aVsaid
p2983
aVshe
p2984
aV'd
p2985
aVbe
p2986
aVhere
p2987
aVat
p2988
aV2
p2989
aV30.
p2990
aVoh
p2991
ag14
aVand
p2992
aVshe
p2993
aVsays
p2994
aV``
p2995
aVhope
p2996
aVyour
p2997
aVmeeting
p2998
aVwent
p2999
aVwell
p3000
aVwith
p3001
aVart
p3002
aVvandelay
p3003
ag142
aV''
p3004
aaa(lp3005
Vjerry
p3006
a(lp3007
Vshe
p3008
aVsaid
p3009
aV*what*
p3010
ag142
aaa(lp3011
Vhelen
p3012
a(lp3013
Vjust
p3014
aVwhat
p3015
ag15
aVsaid
p3016
ag14
aVhere
p3017
ag22
aaa(lp3018
Vjerry
p3019
a(lp3020
Vshe
p3021
aVknows
p3022
ag278
aVoh
p3023
ag14
ag15
aVam
p3024
aV*such*
p3025
ag68
aV*jackass*
p3026
aaa(lp3027
Vhelen
p3028
a(lp3029
Vshe
p3030
aVknows
p3031
aVwhat
p3032
ag142
aaa(lp3033
Vjerry
p3034
a(lp3035
Vshe
p3036
aVknows
p3037
aVthe
p3038
aVwhole
p3039
aVstupid
p3040
aVthing
p3041
aVvanessa
p3042
aVand
p3043
aVthe
p3044
aVelevator
p3045
aaa(lp3046
Vhelen
p3047
a(lp3048
Vno
p3049
ag14
aVno
p3050
ag14
aVno
p3051
ag14
aVthat
p3052
aVwo
p3053
aVn't
p3054
aVdo
p3055
ag22
aVhe
p3056
aVmay
p3057
aVhave
p3058
ag68
aVz
p3059
aaa(lp3060
Vmorty
p3061
a(lp3062
Vso
p3063
ag14
aVhow
p3064
aVdid
p3065
aVshe
p3066
aVfind
p3067
aVout
p3068
ag142
aaa(lp3069
Vjerry
p3070
a(lp3071
Vbecause
p3072
ag14
aVvanessa
p3073
aVprobably
p3074
aVtold
p3075
aVpamela
p3076
ag14
aVand
p3077
aVpamela
p3078
aVprobably
p3079
aVtold
p3080
aVelaine
p3081
ag22
aaa(lp3082
Vmorty
p3083
a(lp3084
Vso
p3085
ag14
aVwhat
p3086
aVare
p3087
aVyou
p3088
ag142
aVafraid
p3089
aVof
p3090
aVher
p3091
ag142
aaa(lp3092
Vjerry
p3093
a(lp3094
Vyes
p3095
ag22
aV*yes*
p3096
aV*i*
p3097
aV*am*
p3098
ag278
aaa(lp3099
Vjerry
p3100
a(lp3101
Vwhat
p3102
aVelse
p3103
aVdid
p3104
aVshe
p3105
aVsay
p3106
aVon
p3107
aVthe
p3108
aVphone
p3109
ag142
aaa(lp3110
Vhelen
p3111
a(lp3112
Vwhatever
p3113
ag15
aVwrote
p3114
aVdown
p3115
ag22
aaa(lp3116
Vjerry
p3117
a(lp3118
Vyeah
p3119
ag14
aVbut
p3120
aVwhat
p3121
aVwas
p3122
aVthe
p3123
aVtone
p3124
aVin
p3125
aVher
p3126
aVvoice
p3127
ag142
aVhow
p3128
aVdid
p3129
aVshe
p3130
aVsound
p3131
ag142
aaa(lp3132
Vhelen
p3133
a(lp3134
Vwho
p3135
aVam
p3136
ag15
ag14
aVrich
p3137
aVlittle
p3138
ag142
aaa(lp3139
Vmorty
p3140
a(lp3141
Vwell
p3142
ag14
aVshe
p3143
aVca
p3144
aVn't
p3145
aVbe
p3146
aVtoo
p3147
aVmad
p3148
aV--
p3149
aVshe
p3150
aV's
p3151
aVstill
p3152
aVcoming
p3153
aVto
p3154
aVthe
p3155
aVwedding
p3156
ag22
aaa(lp3157
Vjerry
p3158
a(lp3159
Vyeah
p3160
ag14
aVbut
p3161
aVnow
p3162
ag15
aV'm
p3163
aVnervous
p3164
ag22
aaa(lp3165
Vhelen
p3166
a(lp3167
Voh
p3168
ag14
aVstop
p3169
aVit
p3170
ag22
aaa(lp3171
Vjerry
p3172
a(lp3173
Vquone
p3174
ag142
aaa(lp3175
Vhelen
p3176
a(lp3177
V30
p3178
aV31
p3179
aaa(lp3180
Vjerry
p3181
a(lp3182
Vquone
p3183
ag142
aVno
p3184
ag14
ag15
aV'm
p3185
aVafraid
p3186
aVthat
p3187
ag15
aV'm
p3188
aVgoing
p3189
aVto
p3190
aVhave
p3191
aVto
p3192
aVchallenge
p3193
aVthat
p3194
ag22
aaa(lp3195
Vhelen
p3196
a(lp3197
V32
p3198
aaa(lp3199
Vkramer
p3200
a(lp3201
Vno
p3202
ag14
aVyou
p3203
aVdo
p3204
aVn't
p3205
aVhave
p3206
aVto
p3207
aVchallenge
p3208
aVthat
p3209
ag22
aVthat
p3210
aV's
p3211
ag68
aVword
p3212
ag22
aVthat
p3213
aV's
p3214
ag68
aV*definite*
p3215
aVword
p3216
ag22
aaa(lp3217
Vjerry
p3218
a(lp3219
g15
aVam
p3220
aVchallenging
p3221
aaa(lp3222
Vkramer
p3223
a(lp3224
Vquone
p3225
aVto
p3226
aVquone
p3227
aVsomething
p3228
ag22
aaa(lp3229
Vjerry
p3230
a(lp3231
Vuh-huh
p3232
aaa(lp3233
Vhelen
p3234
a(lp3235
g15
aV'm
p3236
aVnot
p3237
aVplaying
p3238
aVwith
p3239
aVyou
p3240
aVanymore
p3241
aaa(lp3242
Vmorty
p3243
a(lp3244
Vquone
p3245
aV's
p3246
aVnot
p3247
ag68
aVword
p3248
aaa(lp3249
Vjerry
p3250
a(lp3251
Vno
p3252
aVgood
p3253
ag22
aVsorry
p3254
ag22
aVthere
p3255
aVit
p3256
aVis
p3257
ag22
aVget
p3258
aVit
p3259
aVoff
p3260
aaa(lp3261
Vhelen
p3262
a(lp3263
Vwhy
p3264
aVdid
p3265
aVyou
p3266
aVmake
p3267
aVme
p3268
aVput
p3269
aVthat
p3270
aVdown
p3271
ag142
aaa(lp3272
Vkramer
p3273
a(lp3274
Vnah
p3275
ag14
aVwe
p3276
aVneed
p3277
ag68
aV*medical*
p3278
aVdictionary
p3279
ag278
aVif
p3280
ag68
aVpatient
p3281
aVgets
p3282
aVdifficult
p3283
ag14
aVyou
p3284
aV*quone*
p3285
aVhim
p3286
aaa(lp3287
Vcarol
p3288
a(lp3289
Vyou
p3290
aVwant
p3291
aVsome
p3292
aVfunny
p3293
aVmaterial
p3294
ag14
aVyou
p3295
aVoughta
p3296
aVcome
p3297
aVdown
p3298
aVto
p3299
aVwhere
p3300
ag15
aVwork
p3301
ag14
aVnow
p3302
aVthat
p3303
aV's
p3304
ag68
aVsitcom
p3305
ag278
aaa(lp3306
Vjerry
p3307
a(lp3308
Vyou
p3309
aVmust
p3310
aVhave
p3311
aVquite
p3312
ag68
aVtime
p3313
aVdown
p3314
aVthere
p3315
ag22
aaa(lp3316
Vcarol
p3317
a(lp3318
Vwe
p3319
aVgot
p3320
aVplenty
p3321
aVof
p3322
aVtime
p3323
aaa(lp3324
Vjerry
p3325
a(lp3326
Voh
p3327
ag14
ag15
aV'm
p3328
aVsorry
p3329
ag22
ag15
aV'm
p3330
aVjust
p3331
aVwaiting
p3332
aVfor
p3333
aVsomeone
p3334
aaa(lp3335
Vmac
p3336
a(lp3337
Vwatch
p3338
aVwhat
p3339
aVyou
p3340
aVsay
p3341
aVto
p3342
aVthis
p3343
aVguy
p3344
aV--
p3345
aVhe
p3346
aV'll
p3347
aVput
p3348
aVit
p3349
aVin
p3350
aVhis
p3351
aVnext
p3352
aVact
p3353
ag278
aaa(lp3354
Vjerry
p3355
a(lp3356
Vyeah
p3357
ag14
aVyeah
p3358
aaa(lp3359
Vmac
p3360
a(lp3361
Vjerry
p3362
ag14
aVdid
p3363
ag15
aVtell
p3364
aVyou
p3365
aVthat
p3366
ag15
aV'm
p3367
aVwriting
p3368
ag68
aVbook
p3369
ag142
aVan
p3370
aVautobiography
p3371
ag22
aaa(lp3372
Vjerry
p3373
a(lp3374
Vyeah
p3375
ag14
aVuncle
p3376
aVmac
p3377
ag14
aVyou
p3378
aVmentioned
p3379
aVit
p3380
aaa(lp3381
Vmac
p3382
a(lp3383
Vit
p3384
aV's
p3385
aVbased
p3386
aVon
p3387
aVall
p3388
aVmy
p3389
aVexperiences
p3390
ag278
aaa(lp3391
Vjerry
p3392
a(lp3393
Vthat
p3394
aV's
p3395
aVperfect
p3396
ag22
aVcould
p3397
aVyou
p3398
aVexcuse
p3399
aVme
p3400
aVone
p3401
aVsecond
p3402
ag22
ag15
aV'm
p3403
aVsorry
p3404
ag22
aaa(lp3405
Vjerry
p3406
a(lp3407
Vhow
p3408
aVdo
p3409
aVyou
p3410
aVdo
p3411
ag14
aVjerry
p3412
aVseinfeld
p3413
ag22
aaa(lp3414
Velaine
p3415
a(lp3416
Voh
p3417
ag14
aVhow
p3418
aVdo
p3419
aVyou
p3420
aVdo
p3421
ag22
aVelaine
p3422
aVbenes
p3423
ag22
aaa(lp3424
Vjerry
p3425
a(lp3426
Vum
p3427
ag14
aVdo
p3428
aVyou
p3429
aVwant
p3430
aVto
p3431
aVdo
p3432
aVthis
p3433
aVnow
p3434
ag14
aVor
p3435
aVdo
p3436
aVyou
p3437
aVwant
p3438
aVto
p3439
aVwait
p3440
aVuntil
p3441
aVwe
p3442
aVget
p3443
aVin
p3444
aVthe
p3445
aVcar
p3446
ag142
aaa(lp3447
Velaine
p3448
a(lp3449
Voh
p3450
aVno
p3451
ag14
aVlet
p3452
aV's
p3453
aVdo
p3454
aVit
p3455
aVnow
p3456
ag22
aaa(lp3457
Vjerry
p3458
a(lp3459
Valright
p3460
ag14
aVthe
p3461
aVwhole
p3462
aVelevator
p3463
aVbusiness
p3464
ag14
aVlet
p3465
aVme
p3466
aVjust
p3467
aVexplain
p3468
aV--
p3469
aaa(lp3470
Velaine
p3471
a(lp3472
Vokay
p3473
aaa(lp3474
Vartie
p3475
a(lp3476
Vjerry
p3477
ag14
aVwere
p3478
aVyou
p3479
aVgoin
p3480
ag269
aVwith
p3481
aVus
p3482
ag142
aaa(lp3483
Vjerry
p3484
a(lp3485
Vno
p3486
ag14
ag15
aV'm
p3487
aVgon
p3488
aVna
p3489
aVtake
p3490
aVmy
p3491
aVcar
p3492
ag22
aaa(lp3493
Vartie
p3494
a(lp3495
Vthat
p3496
aV's
p3497
aVwhy
p3498
ag15
aVbrought
p3499
aVthe
p3500
aVwagon
p3501
ag22
aVwhy
p3502
aVthe
p3503
aVhell
p3504
aVdid
p3505
ag15
aVbring
p3506
aVthe
p3507
aVwagon
p3508
ag142
aaa(lp3509
Vjerry
p3510
a(lp3511
Vanyway
p3512
ag14
aVyou
p3513
aVknow
p3514
aVwhy
p3515
ag15
aVdid
p3516
aVn't
p3517
aVask
p3518
aVyou
p3519
ag14
ag15
aVmean
p3520
ag15
aVfelt
p3521
aVso
p3522
aVuncomfortable
p3523
ag14
aVand
p3524
aVyou
p3525
aVwere
p3526
aV*so*
p3527
aVannoyed
p3528
aVin
p3529
aVthe
p3530
aVcab
p3531
ag22
aaa(lp3532
Velaine
p3533
a(lp3534
Vwell
p3535
ag14
aVjerry
p3536
ag14
ag15
aVnever
p3537
aVsaw
p3538
aVyou
p3539
aVflirt
p3540
aVwith
p3541
aVanyone
p3542
aVbefore
p3543
ag22
aVit
p3544
aVwas
p3545
aVquite
p3546
aVthe
p3547
aVspectacle
p3548
ag22
aaa(lp3549
Vcarol
p3550
a(lp3551
Vjerry
p3552
ag14
aVwe
p3553
aV'll
p3554
aVsee
p3555
aVyou
p3556
aVthere
p3557
ag22
aVbye
p3558
ag14
aVelaine
p3559
ag22
aaa(lp3560
Velaine
p3561
a(lp3562
Voh
p3563
ag14
aVbye
p3564
ag22
aVgood
p3565
aVto
p3566
aVsee
p3567
aVyou
p3568
ag22
aaa(lp3569
Vartie
p3570
a(lp3571
Voh
p3572
ag14
aVwe
p3573
aVdid
p3574
aVn't
p3575
aVmeet
p3576
ag22
aaa(lp3577
Vjerry
p3578
a(lp3579
Voh
p3580
ag14
ag15
aV'm
p3581
aVsorry
p3582
ag22
aVelaine
p3583
ag14
aVthis
p3584
aVis
p3585
aVmy
p3586
aVcousin
p3587
aVartie
p3588
aVlevine
p3589
ag22
aaa(lp3590
Vartie
p3591
a(lp3592
Vle*vine*
p3593
ag22
aaa(lp3594
Vjerry
p3595
a(lp3596
Vyeah
p3597
ag14
aVle*vine*
p3598
ag22
aVand
p3599
ag15
aV'm
p3600
aVjerry
p3601
aVcougar
p3602
aVmellencamp
p3603
aVanyway
p3604
ag14
ag15
aVadmit
p3605
aVit
p3606
aVwas
p3607
ag68
aVfairly
p3608
aVridiculous
p3609
aVthing
p3610
aVto
p3611
aVdo
p3612
ag14
aVbut
p3613
ag15
aVmean
p3614
ag14
ag15
aVmean
p3615
ag14
aVobviously
p3616
aVwe
p3617
aVhave
p3618
ag68
aVlittle
p3619
aVproblem
p3620
aVhere
p3621
ag22
aaa(lp3622
Velaine
p3623
a(lp3624
Vyeah
p3625
ag14
aVobviously
p3626
ag22
aaa(lp3627
Vjerry
p3628
a(lp3629
g15
aVmean
p3630
ag14
aVif
p3631
aVwe
p3632
aV're
p3633
aVgon
p3634
aVna
p3635
aVbe
p3636
aVfriends
p3637
ag14
aVwe
p3638
aVgot
p3639
aVta
p3640
aVbe
p3641
aVable
p3642
aVto
p3643
aVtalk
p3644
aVabout
p3645
aVother
p3646
aVpeople
p3647
aaa(lp3648
Velaine
p3649
a(lp3650
Vcould
p3651
aVn't
p3652
aVagree
p3653
aVmore
p3654
ag22
aaa(lp3655
Vjerry
p3656
a(lp3657
Vgood
p3658
ag22
aaa(lp3659
Velaine
p3660
a(lp3661
Vgood
p3662
ag22
aaa(lp3663
Vjerry
p3664
a(lp3665
Vgood
p3666
ag22
aaa(lp3667
Velaine
p3668
a(lp3669
Vgreat
p3670
ag278
aaa(lp3671
Vjerry
p3672
a(lp3673
Vgreat
p3674
ag142
aVwhere
p3675
aVdo
p3676
aVyou
p3677
aVget
p3678
aVgreat
p3679
ag142
aaa(lp3680
Velaine
p3681
a(lp3682
Vit
p3683
aV's
p3684
aVgreat
p3685
aVto
p3686
aVtalk
p3687
aVabout
p3688
aVother
p3689
aVpeople
p3690
aaa(lp3691
Vjerry
p3692
a(lp3693
Vguys
p3694
ag22
aaa(lp3695
Velaine
p3696
a(lp3697
Vyeah
p3698
ag22
aaa(lp3699
Vjerry
p3700
a(lp3701
Vuh-huh
p3702
aVyeah
p3703
aVso
p3704
ag14
aVanybody
p3705
aVspecific
p3706
ag142
aaa(lp3707
Velaine
p3708
a(lp3709
Vno
p3710
ag22
ag68
aVgeneral
p3711
aVguy
p3712
ag22
aaa(lp3713
Vjerry
p3714
a(lp3715
Voh
p3716
aV*really*
p3717
aVelaine
p3718
aVmarie
p3719
aVbenes
p3720
aaa(lp3721
Velaine
p3722
a(lp3723
Vwhat
p3724
ag142
aVno
p3725
ag14
aVit
p3726
aV's
p3727
aVnot
p3728
ag68
aVbig
p3729
aVdeal
p3730
ag22
aaa(lp3731
Vjerry
p3732
a(lp3733
Vno
p3734
ag14
aVthat
p3735
aV's
p3736
aVgreat
p3737
ag278
aVthat
p3738
aV's
p3739
aVterrific
p3740
ag278
aaa(lp3741
Velaine
p3742
a(lp3743
Vno
p3744
ag14
aVwe
p3745
aVjust
p3746
aVmet
p3747
aaa(lp3748
Vjerry
p3749
a(lp3750
Vdoes
p3751
aVn't
p3752
aVmatter
p3753
ag22
aVwhat
p3754
aV's
p3755
aVthe
p3756
aVyoung
p3757
aVman
p3758
aV's
p3759
aVname
p3760
ag142
ag15
aVwould
p3761
aVlike
p3762
aVto
p3763
aVmeet
p3764
aVhim
p3765
ag22
aaa(lp3766
Velaine
p3767
a(lp3768
g15
aVdo
p3769
aVn't
p3770
aVthink
p3771
aVso
p3772
aaa(lp3773
Vjerry
p3774
a(lp3775
Vwell
p3776
ag14
aVwhat
p3777
aVdoes
p3778
aVhe
p3779
aVdo
p3780
ag142
aVis
p3781
aVhe
p3782
aVan
p3783
aVartisan
p3784
ag14
ag68
aVcraftsman
p3785
ag14
ag68
aVlabourer
p3786
aVof
p3787
aVsome
p3788
aVsort
p3789
ag142
aaa(lp3790
Velaine
p3791
a(lp3792
Vwall
p3793
aVstreet
p3794
ag22
aaa(lp3795
Vjerry
p3796
a(lp3797
Vahh
p3798
ag14
aVhigh
p3799
aVfinance
p3800
aVbulls
p3801
aVbears
p3802
aVpeople
p3803
aVfrom
p3804
aVconneticut
p3805
ag22
aaa(lp3806
Velaine
p3807
a(lp3808
Vand
p3809
aVhe
p3810
aVhappens
p3811
aVto
p3812
aVbe
p3813
aVpretty
p3814
aVgood
p3815
aVlookin
p3816
ag269
aaa(lp3817
Vjerry
p3818
a(lp3819
Valright
p3820
ag14
aVsir
p3821
ag22
aaa(lp3822
Velaine
p3823
a(lp3824
Vand
p3825
aVhe
p3826
aV's
p3827
aV*hilarious*
p3828
ag22
aaa(lp3829
Vjerry
p3830
a(lp3831
Vnow
p3832
aVthat
p3833
aV's
p3834
aVnot
p3835
aVfair
p3836
ag278
aVso
p3837
aVwhere
p3838
aVdid
p3839
aVyou
p3840
aVmeet
p3841
aVthis
p3842
aVguy
p3843
ag142
aaa(lp3844
Velaine
p3845
a(lp3846
g15
aVstaked
p3847
aVout
p3848
aVhis
p3849
aVhealth
p3850
aVclub
p3851
ag22
aaa(lp3852
Vjerry
p3853
a(lp3854
Vwhen
p3855
aVyou
p3856
aV're
p3857
aVon
p3858
ag68
aVstakeout
p3859
ag14
aVdo
p3860
aVyou
p3861
aVfind
p3862
aVit
p3863
aV's
p3864
aVbetter
p3865
aVto
p3866
aVstand
p3867
aVup
p3868
aVagainst
p3869
aVthe
p3870
aVwall
p3871
ag14
aVor
p3872
aVkinda
p3873
aVcrouch
p3874
aVdown
p3875
aVbehind
p3876
ag68
aVbig
p3877
aVplant
p3878
ag142
aaa.