(lp0
(lp1
Vjerry
p2
a(lp3
Vthe
p4
aVstatue
p5
aVwritten
p6
aVby
p7
aVlarry
p8
aVcharles
p9
aVi
p10
aVhave
p11
aVto
p12
aVtell
p13
aVyou
p14
aVthat
p15
ag10
aVdid
p16
aVsome
p17
aVvery
p18
aVexciting
p19
aVnews
p20
aVrecently
p21
aV,
p22
aVand
p23
ag10
aVdo
p24
aVn't
p25
aVknow
p26
aVif
p27
ag10
aVshould
p28
aVreally
p29
aVtell
p30
aVyou
p31
aVexactly
p32
aVwhat
p33
aVit
p34
aVis
p35
aVbecause
p36
aVit
p37
aV's
p38
aVreally
p39
aVnot
p40
aVa
p41
aVdefinite
p42
aVthing
p43
aVyet
p44
aV.
p45
aVwell
p46
ag22
ag10
aVwill
p47
aVtell
p48
aVyou
p49
aVwhat
p50
ag10
aVknow
p51
aVso
p52
aVfar
p53
ag45
aVaccording
p54
aVto
p55
aVthe
p56
aVinformation
p57
aVthat
p58
ag10
aVhave
p59
aVin
p60
aVthe
p61
aVenvelope
p62
aVthat
p63
ag10
aV've
p64
aVreceived
p65
ag22
aVit
p66
aVseems
p67
aVthat
p68
ag10
aVmay
p69
aVhave
p70
aValready
p71
aVwon
p72
aVsome
p73
aVvery
p74
aVvaluable
p75
aVprizes
p76
ag45
aVwell
p77
ag22
aVthank
p78
aVyou
p79
ag22
aVthank
p80
aVyou
p81
aVvery
p82
aVmuch
p83
ag22
aVwell
p84
aVthank
p85
aVyou
p86
ag45
aVit
p87
aV's
p88
aVvery
p89
aVnice
p90
aVto
p91
aVhear
p92
aVthat
p93
ag45
aVbut
p94
ag22
aVin
p95
aVall
p96
aVhonesty
p97
ag22
ag10
aVhave
p98
aVto
p99
aVsay
p100
ag22
ag10
aVdid
p101
aVn't
p102
aVeven
p103
aVknow
p104
ag10
aVwas
p105
aVin
p106
aVthis
p107
aVthing
p108
ag45
aVbut
p109
ag22
aVaccording
p110
aVto
p111
aVthe
p112
aVreadout
p113
ag22
aVit
p114
aVlooks
p115
aVlike
p116
ag10
aVam
p117
aVamong
p118
aVthe
p119
aVtop
p120
aVpeople
p121
aVthat
p122
aVthey
p123
aVare
p124
aVconsidering
p125
ag45
aVyou
p126
aVknow
p127
ag22
aVthat
p128
aV's
p129
aVwhat
p130
aVannoys
p131
aVme
p132
aVabout
p133
aVthe
p134
aVsweepstakes
p135
aVcompanies
p136
ag22
aVthey
p137
aValways
p138
aVtease
p139
aVyou
p140
aVwith
p141
aVthat
p142
ag22
aVyou
p143
aVmay
p144
aVhave
p145
aValready
p146
aVwon
p147
ag45
ag10
aV'd
p148
aVlike
p149
aVonce
p150
aVfor
p151
ag41
aVsweepstakes
p152
aVcompany
p153
aVto
p154
aVhave
p155
aVsome
p156
aVguts
p157
ag22
aVcome
p158
aVout
p159
aVwith
p160
aVthe
p161
aVtruth
p162
ag22
aVjust
p163
aVtell
p164
aVpeople
p165
aVthe
p166
aVtruth
p167
aVone
p168
aVtime
p169
ag45
aVsend
p170
aVout
p171
aVenvelopes
p172
ag22
aVyou
p173
aVhave
p174
aVdefinitely
p175
aVlost
p176
aV!
p177
aVyou
p178
aVturn
p179
aVit
p180
aVover
p181
ag22
aVgiant
p182
aVprinting
p183
ag22
aVnot
p184
aVeven
p185
aVclose
p186
ag177
aVyou
p187
aVopen
p188
aVit
p189
aVup
p190
ag22
aVthere
p191
aV's
p192
aVthis
p193
aVwhole
p194
aVletter
p195
aVof
p196
aVexplanation
p197
ag22
aVeven
p198
aVwe
p199
aVcan
p200
aVnot
p201
aVbelieve
p202
aVhow
p203
aVbadly
p204
aVyou
p205
aV've
p206
aVdone
p207
aVin
p208
aVthis
p209
aVcontest
p210
ag45
aaa(lp211
Vjerry
p212
a(lp213
Vto
p214
aVthe
p215
aVright
p216
ag45
aaa(lp217
Vgeorge
p218
a(lp219
Vthat
p220
aVtook
p221
aVawhile
p222
ag45
aaa(lp223
Vjerry
p224
a(lp225
Vdo
p226
aVn't
p227
aVget
p228
aVup
p229
ag45
aaa(lp230
Vgeorge
p231
a(lp232
g10
aV'd
p233
aVlike
p234
aVto
p235
aVhelp
p236
ag22
aVbut
p237
aVmy
p238
aVneck
p239
aaa(lp240
Vgeorge
p241
a(lp242
Vso
p243
aVhow
p244
aVlong
p245
aVhas
p246
aVit
p247
aVbeen
p248
aVin
p249
aVthe
p250
aVbasement
p251
aV?
p252
aaa(lp253
Vjerry
p254
a(lp255
Vsince
p256
aVmy
p257
aVgrandfather
p258
aVdied
p259
ag45
ag10
aVwas
p260
aVsuppose
p261
aVto
p262
aVsend
p263
aVit
p264
aVdown
p265
aVto
p266
aVmy
p267
aVparents
p268
aVin
p269
aVflorida
p270
ag22
aVbut
p271
aVthey
p272
aVdid
p273
aVn't
p274
aVwant
p275
aVit
p276
ag45
aVthey
p277
aVtold
p278
aVme
p279
aVto
p280
aVget
p281
aVrid
p282
aVof
p283
aVit
p284
ag22
aVbut
p285
ag10
aVfelt
p286
aVfunny
p287
aVand
p288
aVthen
p289
ag10
aVsort
p290
aVof
p291
aVforgot
p292
aVabout
p293
aVit
p294
ag45
aVand
p295
aVit
p296
aV's
p297
aVbeen
p298
aVsitting
p299
aVdown
p300
aVthere
p301
aVfor
p302
aVthree
p303
aVyears
p304
aVuntil
p305
aVhe
p306
aVsaw
p307
aVit
p308
ag45
aValright
p309
ag22
aVso
p310
ag22
aVjust
p311
aVtake
p312
aVwhat
p313
aVyou
p314
aVwant
p315
aVand
p316
aVlet
p317
aV's
p318
aVget
p319
aVit
p320
aVout
p321
aVof
p322
aVhere
p323
ag45
aaa(lp324
Vgeorge
p325
a(lp326
Vwhat
p327
aV's
p328
aVin
p329
aVit
p330
ag252
aaa(lp331
Vjerry
p332
a(lp333
Vgrandpa
p334
aVclothes
p335
ag45
ag10
aVca
p336
aVn't
p337
aVwear
p338
aVthem
p339
ag45
aaa(lp340
Vkramer
p341
a(lp342
Vyou
p343
aVwant
p344
aVthese
p345
ag252
aVknee
p346
aVsocks
p347
ag45
aVyou
p348
aVdo
p349
aVn't
p350
aVwear
p351
aVknee
p352
aVsocks
p353
ag45
aaa(lp354
Vjerry
p355
a(lp356
Vno
p357
ag22
aVgo
p358
aVahead
p359
ag45
aVlook
p360
aVat
p361
aVthis
p362
aVplace
p363
ag45
ag10
aVca
p364
aVn't
p365
aVwait
p366
aVto
p367
aVget
p368
aVit
p369
aVcleaned
p370
ag45
aaa(lp371
Vgeorge
p372
a(lp373
g10
aVknow
p374
aVsomeone
p375
aVwho
p376
aV'll
p377
aVdo
p378
aVit
p379
ag45
aVshe
p380
aV's
p381
aVgood
p382
ag45
aVshe
p383
aV's
p384
aVhonest
p385
ag45
aaa(lp386
Vjerry
p387
a(lp388
Vno
p389
ag22
aVelaine
p390
aVgot
p391
aVthis
p392
aVwriter
p393
aVfriend
p394
aVfrom
p395
aVfinland
p396
ag22
aVrava
p397
ag45
aVher
p398
aVboyfriend
p399
aVgoes
p400
aVto
p401
aVcolumbia
p402
aVgrad
p403
aVschool
p404
ag22
aVand
p405
aVhe
p406
aV's
p407
aVsuppose
p408
aVto
p409
aVdo
p410
aVit
p411
ag45
aaa(lp412
Vgeorge
p413
a(lp414
Vstudents
p415
aVca
p416
aVn't
p417
aVclean
p418
ag45
aVit
p419
aV's
p420
aVanathema
p421
ag45
aVthey
p422
aVdo
p423
aVn't
p424
aVlike
p425
aVit
p426
ag45
aaa(lp427
Vjerry
p428
a(lp429
Vhow
p430
aVlong
p431
aVhave
p432
aVyou
p433
aVbeen
p434
aVwaiting
p435
aVto
p436
aVsqueeze
p437
aVthat
p438
aVinto
p439
ag41
aVconversation
p440
ag252
aaa(lp441
Vkramer
p442
a(lp443
Vnow
p444
aVthis
p445
ag22
ag10
aVlike
p446
ag45
aaa(lp447
Vgeorge
p448
a(lp449
Vwait
p450
ag41
aVsecond
p451
ag45
ag10
aVca
p452
aVn't
p453
aVbelieve
p454
aVthis
p455
ag177
aVlet
p456
aVme
p457
aVsee
p458
aVthis
p459
ag45
aaa(lp460
Vkramer
p461
a(lp462
Vwait
p463
ag22
aVwait
p464
ag22
aVwait
p465
aaa(lp466
Vgeorge
p467
a(lp468
Vlet
p469
aVme
p470
aVjust
p471
aVsee
p472
aVit
p473
ag45
aaa(lp474
Vkramer
p475
a(lp476
Vcome
p477
aVon
p478
aaa(lp479
Vgeorge
p480
a(lp481
Vlet
p482
aVme
p483
aVjust
p484
aVsee
p485
aVit
p486
aVfor
p487
ag41
aVsecond
p488
ag45
aVoh
p489
aVmy
p490
aVgod
p491
ag22
aVit
p492
aV's
p493
aVexactly
p494
aVthe
p495
aVsame
p496
ag177
aaa(lp497
Vjerry
p498
a(lp499
Vwhat
p500
ag252
aaa(lp501
Vgeorge
p502
a(lp503
Vwhen
p504
ag10
aVwas
p505
aVten
p506
aVyears
p507
aVold
p508
ag22
aVmy
p509
aVparents
p510
aVhad
p511
aVthis
p512
aVvery
p513
aVsame
p514
aVstatue
p515
aVon
p516
aVthe
p517
aVmantle
p518
aVof
p519
aVour
p520
aVapartment
p521
ag45
aVexactly
p522
ag45
aVand
p523
ag22
aVone
p524
aVday
p525
ag22
ag10
aVgrabbed
p526
aVit
p527
ag22
aVand
p528
ag10
aVwas
p529
aVusing
p530
aVit
p531
aVas
p532
ag41
aVmicrophone
p533
ag45
ag10
aVwas
p534
aVsinging
p535
ag22
aVmacarthur
p536
aVpark
p537
ag22
aVand
p538
ag10
aVgot
p539
aVto
p540
aVthe
p541
aVpart
p542
aVabout
p543
ag22
ag10
aV'll
p544
aVnever
p545
aVhave
p546
aVthat
p547
aVrecipe
p548
aVagain
p549
ag22
aVand
p550
aVit
p551
aVslipped
p552
aVout
p553
aVof
p554
aVmy
p555
aVhand
p556
aVand
p557
aVit
p558
aVbroke
p559
ag45
aVmy
p560
aVparents
p561
aVlooked
p562
aVat
p563
aVme
p564
aVlike
p565
ag10
aVsmashed
p566
aVthe
p567
aVten
p568
aVcommandments
p569
ag45
aVto
p570
aVthis
p571
aVday
p572
ag22
aVthey
p573
aVbring
p574
aVit
p575
aVup
p576
ag45
aVit
p577
aVwas
p578
aVthe
p579
aVsingle
p580
aVmost
p581
aVdamaging
p582
aVexperience
p583
aVin
p584
aVmy
p585
aVlife
p586
ag22
aVaside
p587
aVfrom
p588
aVseeing
p589
aVmy
p590
aVfather
p591
aVnaked
p592
ag45
aaa(lp593
Vkramer
p594
a(lp595
Vc'mon
p596
ag22
aVgeorge
p597
ag45
ag10
aVsaw
p598
aVit
p599
aVfirst
p600
ag45
aaa(lp601
Vgeorge
p602
a(lp603
Vno
p604
ag22
aVkramer
p605
ag45
ag10
aVhave
p606
aVto
p607
aVhave
p608
aVthis
p609
aVstatue
p610
ag45
aaa(lp611
Vkramer
p612
a(lp613
Vno
p614
ag22
ag10
aVgot
p615
aVdibs
p616
ag177
aaa(lp617
Vgeorge
p618
a(lp619
Vwhat
p620
ag252
aVno
p621
aVdibs
p622
ag177
ag10
aVneed
p623
aVthis
p624
aVstatue
p625
ag45
aVc'mon
p626
ag22
aVgive
p627
aVit
p628
ag177
aaa(lp629
Vjerry
p630
a(lp631
Vspread
p632
aVout
p633
ag22
aVspread
p634
aVout
p635
aVyou
p636
aVnumbskulls
p637
ag45
aVwhy
p638
aVdo
p639
aVn't
p640
aVyou
p641
aVjust
p642
aVsettle
p643
aVit
p644
aVlike
p645
aVmature
p646
aVadults
p647
ag252
aaa(lp648
Vkramer
p649
a(lp650
Vpotato
p651
aVman
p652
ag177
aaa(lp653
Vgeorge
p654
a(lp655
Vno
p656
ag22
aVno
p657
ag22
aVno
p658
aVpotato
p659
aVman
p660
aVinka-dink
p661
ag45
aaa(lp662
Vkramer
p663
a(lp664
Vokay
p665
aVstart
p666
aVwith
p667
aVme
p668
ag45
aaa(lp669
Vgeorge
p670
a(lp671
Vyeah
p672
ag22
aVgood
p673
ag22
aVgood
p674
ag45
aaa(lp675
Vjerry
p676
a(lp677
Vinka-dink
p678
ag22
ag41
aVbottle
p679
aVof
p680
aVink
p681
ag45
aVthe
p682
aVcork
p683
aVfell
p684
aVout
p685
ag22
aVand
p686
aVyou
p687
aVstink
p688
ag45
aVnot
p689
aVbecause
p690
aVyou
p691
aV're
p692
aVdirty
p693
ag22
aVnot
p694
aVbecause
p695
aVyou
p696
aV're
p697
aVclean
p698
aV-
p699
aVjust
p700
aVbecause
p701
aVyou
p702
aVkissed
p703
aVthe
p704
aVgirl
p705
aVbehind
p706
aVthe
p707
aVmagazine
p708
aVand
p709
aVyou
p710
aVare
p711
aVit
p712
ag177
aaa(lp713
Vkramer
p714
a(lp715
Vwhat
p716
ag252
ag177
aVwait
p717
ag41
aVminute
p718
ag45
aVno
p719
ag22
aVno
p720
ag22
aVno
p721
ag45
aVwhat
p722
aVare
p723
aVyou
p724
aVdoing
p725
ag252
aVno
p726
ag22
aVno
p727
ag22
aVoh
p728
ag22
aVoh
p729
ag22
aVokay
p730
ag45
aVhe
p731
aV's
p732
aVout
p733
ag45
ag10
aVget
p734
aVit
p735
ag45
aaa(lp736
Vgeorge
p737
a(lp738
Vno
p739
ag22
aVno
p740
ag22
aVno
p741
ag22
aVno
p742
ag10
aV'm
p743
aVit
p744
ag45
ag10
aVwin
p745
ag45
aaa(lp746
Vjerry
p747
a(lp748
Vno
p749
ag22
aVhe
p750
aV's
p751
aVit
p752
ag45
aVhe
p753
aVwins
p754
ag45
aVit
p755
aVis
p756
aVgood
p757
ag45
aaa(lp758
Vkramer
p759
a(lp760
Vdo
p761
aVover
p762
ag699
aVstart
p763
aVwith
p764
aVhim
p765
ag45
aaa(lp766
Vjerry
p767
a(lp768
Vno
p769
ag22
aVno
p770
ag22
aVno
p771
ag22
aVcome
p772
aVon
p773
ag22
aVkramer
p774
ag45
aVnow
p775
ag22
aVyou
p776
aVgot
p777
aVthe
p778
aVsocks
p779
ag45
aaa(lp780
Vkramer
p781
a(lp782
Valright
p783
ag22
aVyou
p784
aVcan
p785
aVhave
p786
aVit
p787
ag45
aVokay
p788
ag22
ag10
aV'm
p789
aVgon
p790
aVna
p791
aVtake
p792
aVthe
p793
aVsuit
p794
ag22
aVand
p795
aVthe
p796
aVshoes
p797
ag22
aVand
p798
aVthe
p799
aVhat
p800
ag45
aaa(lp801
Vjerry
p802
a(lp803
Valright
p804
ag22
aVc'mon
p805
ag45
aVlet
p806
aV's
p807
aVgo
p808
ag45
aaa(lp809
Vkramer
p810
a(lp811
Vhey
p812
ag22
ag10
aV'll
p813
aVlook
p814
aVlike
p815
aVjoe
p816
aVfriday
p817
aVin
p818
aVdragnet
p819
ag45
aaa(lp820
Vgeorge
p821
a(lp822
g10
aVca
p823
aVn't
p824
aVbelieve
p825
ag10
aVwon
p826
aVat
p827
aVinka-dink
p828
ag45
aaa(lp829
Vjerry
p830
a(lp831
Vcome
p832
aVon
p833
ag22
aVlet
p834
aV's
p835
aVgo
p836
ag45
aVare
p837
aVn't
p838
aVyou
p839
aVgon
p840
aVna
p841
aVtake
p842
aVit
p843
ag252
aaa(lp844
Vgeorge
p845
a(lp846
Vno
p847
ag22
aVno
p848
ag22
aVno
p849
ag22
ag10
aVdo
p850
aVn't
p851
aVwant
p852
aVto
p853
aVcarry
p854
aVit
p855
aVaround
p856
aVall
p857
aVnight
p858
ag45
ag10
aV'll
p859
aVpick
p860
aVit
p861
aVup
p862
aVlater
p863
ag45
aaa(lp864
Vgoerge
p865
a(lp866
Vwhat
p867
aVabout
p868
aVyour
p869
aVstuff
p870
ag252
aaa(lp871
Vkramer
p872
a(lp873
Voh
p874
ag22
aVuh
p875
ag22
aVwell
p876
ag699
aVokay
p877
ag45
aaa(lp878
Vjerry
p879
a(lp880
Valright
p881
ag22
aVlet
p882
aV's
p883
aVgo
p884
ag45
aVhey
p885
ag22
aVyou
p886
aVknow
p887
ag22
aVyou
p888
aVowe
p889
aVme
p890
aVone
p891
ag45
aaa(lp892
Vgeorge
p893
a(lp894
Vwhat
p895
ag252
aaa(lp896
Vjerry
p897
a(lp898
Vthe
p899
aVinka-dink
p900
aVyou
p901
aVwere
p902
aVit
p903
ag45
aaa(lp904
Vgeorge
p905
a(lp906
Vit
p907
aV's
p908
aVbad
p909
ag252
aaa(lp910
Vjerry
p911
a(lp912
Vit
p913
aVvery
p914
aVbad
p915
ag45
aaa(lp916
Vrava
p917
a(lp918
Vwell
p919
ag22
aVif
p920
aVthey
p921
aVdo
p922
aVn't
p923
aVlet
p924
aVyou
p925
aVbe
p926
aVmy
p927
aVeditor
p928
aVon
p929
aVthis
p930
aVbook
p931
ag22
ag10
aV'll
p932
aVgo
p933
aVto
p934
aVanother
p935
aVpublisher
p936
ag45
aVit
p937
aV's
p938
aVthat
p939
aVsimple
p940
ag45
aaa(lp941
Velaine
p942
a(lp943
Vyou
p944
aVtold
p945
aVthem
p946
aVthat
p947
ag252
aaa(lp948
Vrava
p949
a(lp950
Vof
p951
aVcourse
p952
ag45
aaa(lp953
Velaine
p954
a(lp955
Vthis
p956
aVis
p957
aVso
p958
aVfantastic
p959
ag45
ag10
aVdo
p960
aVn't
p961
aVknow
p962
aVhow
p963
aVto
p964
aVthank
p965
aVyou
p966
ag45
aaa(lp967
Vjerry
p968
a(lp969
Vso
p970
ag22
aVwhere
p971
aV's
p972
aVthis
p973
aVboyfriend
p974
aVof
p975
aVyours
p976
ag252
ag10
aVca
p977
aVn't
p978
aVwait
p979
aVmuch
p980
aVlonger
p981
ag45
ag10
aV've
p982
aVgot
p983
ag41
aVflight
p984
ag45
aaa(lp985
Velaine
p986
a(lp987
Voh
p988
ag22
aVprobably
p989
aVcaught
p990
aVin
p991
aVtraffic
p992
ag45
aaa(lp993
Vrava
p994
a(lp995
Vor
p996
aVmaybe
p997
aVhe
p998
aV's
p999
aVdead
p1000
ag45
aaa(lp1001
Vjerry
p1002
a(lp1003
Vso
p1004
aVwhat
p1005
aVdo
p1006
aVyou
p1007
aVwrite
p1008
ag22
aVchildren
p1009
aV's
p1010
aVbooks
p1011
ag252
aaa(lp1012
Vrava
p1013
a(lp1014
Vthat
p1015
aV's
p1016
aVray
p1017
ag45
aaa(lp1018
Vray
p1019
a(lp1020
Vah
p1021
ag22
aVgreetings
p1022
ag22
aVgreetings
p1023
ag22
aVand
p1024
aVsalutations
p1025
ag45
ag10
aVbeg
p1026
aVyour
p1027
aVforgiveness
p1028
ag45
aVmy
p1029
aVtardiness
p1030
aVwas
p1031
aVunavoidable
p1032
ag45
aVrava
p1033
ag22
aVmy
p1034
aVlove
p1035
ag45
aVelaine
p1036
ag22
aVmy
p1037
aVdear
p1038
aVfriend
p1039
aVand
p1040
aVyou
p1041
aVmust
p1042
aVbe
p1043
aVjerry
p1044
ag45
aVlord
p1045
aVof
p1046
aVthe
p1047
aVmanor
p1048
ag45
aVah
p1049
ag22
aVmy
p1050
aVliege
p1051
ag45
ag41
aVpleasure
p1052
aVto
p1053
aVserve
p1054
aVyou
p1055
ag45
aaa(lp1056
Vjerry
p1057
a(lp1058
Valright
p1059
ag45
aaa(lp1060
Vrava
p1061
a(lp1062
Vand
p1063
aVwe
p1064
aVhave
p1065
aVto
p1066
aVget
p1067
aVback
p1068
aVto
p1069
aVwork
p1070
ag45
aaa(lp1071
Vjerry
p1072
a(lp1073
g10
aVgot
p1074
aVta
p1075
aVget
p1076
aVto
p1077
aVthe
p1078
aVairport
p1079
ag45
aaa(lp1080
Vray
p1081
a(lp1082
Vyour
p1083
aVplace
p1084
aVshall
p1085
aVsparkle
p1086
aVlike
p1087
aVthe
p1088
aVstars
p1089
aVin
p1090
aVheaven
p1091
aVupon
p1092
aVyour
p1093
aVsave
p1094
aVarrival
p1095
ag22
aVsire
p1096
ag45
aaa(lp1097
Vjerry
p1098
a(lp1099
Vthe
p1100
aVtoilet
p1101
aVbrush
p1102
aVis
p1103
aVunder
p1104
aVthe
p1105
aVsink
p1106
aaa(lp1107
Vjerry
p1108
a(lp1109
g10
aVdo
p1110
aVn't
p1111
aVreally
p1112
aVfeel
p1113
aVthat
p1114
aVcomfortable
p1115
aVwith
p1116
ag41
aVmaid
p1117
ag22
aVeither
p1118
ag22
aVbecause
p1119
aVthere
p1120
aV's
p1121
aVthat
p1122
aVguilt
p1123
aVwhen
p1124
aVyou
p1125
aVhave
p1126
aVsomeone
p1127
aVcleaning
p1128
aVyour
p1129
aVhouse
p1130
ag45
aVyou
p1131
aVknow
p1132
ag22
aVyou
p1133
aV're
p1134
aVsitting
p1135
aVthere
p1136
aVon
p1137
aVyour
p1138
aVsofa
p1139
ag22
aVand
p1140
aVthey
p1141
aVgo
p1142
aVby
p1143
aVwith
p1144
aVthe
p1145
aVvacuum
p1146
ag22
ag10
aV'm
p1147
aVreally
p1148
aVsorry
p1149
aVabout
p1150
aVthis
p1151
ag45
ag10
aVdo
p1152
aVn't
p1153
aVknow
p1154
aVwhy
p1155
ag10
aVlet
p1156
aVthat
p1157
aVstuff
p1158
aVover
p1159
aVthere
p1160
ag45
aVand
p1161
aVthat
p1162
aV's
p1163
aVwhy
p1164
ag10
aVcould
p1165
aVnever
p1166
aVbe
p1167
ag41
aVmaid
p1168
ag22
aVbecause
p1169
ag10
aV'd
p1170
aVhave
p1171
aVan
p1172
aVattitude
p1173
ag45
ag10
aV'd
p1174
aVfind
p1175
aVthem
p1176
ag22
aVwhereever
p1177
aVthey
p1178
aVare
p1179
aVin
p1180
aVthe
p1181
aVhouse
p1182
ag22
aVoh
p1183
ag22
ag10
aVsuppose
p1184
aVyou
p1185
aVcould
p1186
aVn't
p1187
aVdo
p1188
aVthis
p1189
ag252
aVno
p1190
ag22
aVdo
p1191
aVn't
p1192
aVget
p1193
aVup
p1194
ag22
aVlet
p1195
aVme
p1196
aVclean
p1197
aVup
p1198
aVyour
p1199
aVfilth
p1200
ag45
aVno
p1201
ag22
aVyou
p1202
aVcould
p1203
aVn't
p1204
aVdust
p1205
ag45
aVno
p1206
ag22
aVthis
p1207
aVis
p1208
aVtoo
p1209
aVtough
p1210
ag22
aVis
p1211
aVn't
p1212
aVit
p1213
ag252
aaa(lp1214
Vjerry
p1215
a(lp1216
Vhe
p1217
aVreally
p1218
aVdid
p1219
aVan
p1220
aVamazing
p1221
aVjob
p1222
ag22
aVlook
p1223
ag177
aVhe
p1224
aVuncoagulated
p1225
aVthe
p1226
aVtop
p1227
aVof
p1228
aVthe
p1229
aVdishwashing
p1230
aVliquid
p1231
ag45
aVhe
p1232
aVcleaned
p1233
aVout
p1234
aVthe
p1235
aVbottom
p1236
aVof
p1237
aVthe
p1238
aVlittle
p1239
aVegg
p1240
aVcups
p1241
ag45
aVcome
p1242
aVhere
p1243
ag22
aVlook
p1244
aVat
p1245
aVthis
p1246
ag45
aVhe
p1247
aVcleaned
p1248
aVthe
p1249
aVlittle
p1250
aVone-inch
p1251
aVarea
p1252
aVbetween
p1253
aVthe
p1254
aVrefrigerator
p1255
aVand
p1256
aVthe
p1257
aVcounter
p1258
ag45
aVhow
p1259
aVdid
p1260
aVhe
p1261
aVget
p1262
aVin
p1263
aVthere
p1264
ag252
aVhe
p1265
aVmust
p1266
aVbe
p1267
aVlike
p1268
aVrubber
p1269
aVman
p1270
ag177
aaa(lp1271
Velaine
p1272
a(lp1273
Vthere
p1274
aV's
p1275
aVno
p1276
aVrubber
p1277
aVman
p1278
ag45
aaa(lp1279
Vjerry
p1280
a(lp1281
Vwhy
p1282
aVdid
p1283
ag10
aVthink
p1284
aVthere
p1285
aVwas
p1286
ag41
aVrubber
p1287
aVman
p1288
ag252
aVthere
p1289
aV's
p1290
aVelastic
p1291
aVman
p1292
aVand
p1293
aVplastic
p1294
aVman
p1295
ag45
aaa(lp1296
Velaine
p1297
a(lp1298
g10
aV'm
p1299
aVleaving
p1300
ag45
aaa(lp1301
Vjerry
p1302
a(lp1303
Vwhere
p1304
aVare
p1305
aVyou
p1306
aVgoing
p1307
ag252
aaa(lp1308
Velaine
p1309
a(lp1310
Vto
p1311
aVrava
p1312
aV's
p1313
aVhouse
p1314
ag45
ag10
aV've
p1315
aVgot
p1316
aVta
p1317
aVpick
p1318
aVup
p1319
aVher
p1320
aVmanuscript
p1321
ag45
aaa(lp1322
Vjerry
p1323
a(lp1324
Vwait
p1325
ag45
ag10
aV'll
p1326
aVgo
p1327
aVwith
p1328
aVyou
p1329
ag45
aVelaine
p1330
ag22
aVhe
p1331
aVwindexed
p1332
aVthe
p1333
aVlittle
p1334
aVpeep
p1335
aVhole
p1336
ag177
aaa(lp1337
Velaine
p1338
a(lp1339
Vso
p1340
ag22
aVthe
p1341
aVmeeting
p1342
aVwith
p1343
aVlippman
p1344
aVis
p1345
aVall
p1346
aVset
p1347
ag45
aVhe
p1348
aV's
p1349
aVthe
p1350
aVeditor-in-chief
p1351
ag177
ag10
aVthink
p1352
aVbecause
p1353
aVof
p1354
aVyour
p1355
aVrequest
p1356
aaa(lp1357
Vrava
p1358
a(lp1359
Vdemand
p1360
ag45
aVthere
p1361
aV's
p1362
aVray
p1363
aVlate
p1364
aVas
p1365
aVusual
p1366
ag45
aaa(lp1367
Vray
p1368
a(lp1369
Vwell
p1370
ag22
aVthis
p1371
aVis
p1372
aVan
p1373
aVunexpected
p1374
aVsurprise
p1375
ag699
aVand
p1376
aVdelight
p1377
ag177
aVthe
p1378
aVonce
p1379
aVand
p1380
aVfuture
p1381
aVking
p1382
aVof
p1383
aVcomedy
p1384
ag22
aVjerry
p1385
aVthe
p1386
aVfirst
p1387
ag22
aVgracing
p1388
aVour
p1389
aVhumble
p1390
aVabode
p1391
ag45
aVrava
p1392
ag22
aVwe
p1393
aV're
p1394
aVin
p1395
aVthe
p1396
aVpresence
p1397
aVof
p1398
aVroyalty
p1399
ag45
aaa(lp1400
Vjerry
p1401
a(lp1402
Vhey
p1403
ag22
aVray
p1404
ag22
aVlisten
p1405
ag22
aVyou
p1406
aVreally
p1407
aVdid
p1408
ag41
aVtremendous
p1409
aVjob
p1410
aVcleaning
p1411
aVthat
p1412
aVapartment
p1413
ag45
aaa(lp1414
Vray
p1415
a(lp1416
Vbut
p1417
ag10
aVdid
p1418
aVn't
p1419
aVjust
p1420
aVclean
p1421
aVyour
p1422
aVapartment
p1423
ag45
aVit
p1424
aVwas
p1425
ag41
aVritual
p1426
ag22
ag41
aVceremony
p1427
ag22
ag41
aVcelebration
p1428
aVof
p1429
aVlife
p1430
ag45
aaa(lp1431
Vjerry
p1432
a(lp1433
Vshould
p1434
aVn't
p1435
aVyou
p1436
aVbe
p1437
aVout
p1438
aVon
p1439
ag41
aVledge
p1440
aVsomewhere
p1441
ag252
aaa(lp1442
Vrava
p1443
a(lp1444
Vthe
p1445
aVwater
p1446
aVis
p1447
aVboiling
p1448
ag45
aVare
p1449
aVyou
p1450
aVhaving
p1451
aVtea
p1452
ag252
aaa(lp1453
Vray
p1454
a(lp1455
Vyes
p1456
ag45
aaa(lp1457
Velaine
p1458
ag1455
aa(lp1459
Velaine
p1460
a(lp1461
Vjerry
p1462
ag252
aVjerry
p1463
ag177
aaa(lp1464
Vjerry
p1465
a(lp1466
Vwhat
p1467
ag252
aaa(lp1468
Vrava
p1469
a(lp1470
Vray
p1471
ag22
aVwould
p1472
aVyou
p1473
aVgive
p1474
aVme
p1475
ag41
aVhand
p1476
ag252
aaa(lp1477
Vray
p1478
a(lp1479
Vyeah
p1480
ag22
ag10
aV'm
p1481
aVcoming
p1482
ag177
aaa(lp1483
Vjerry
p1484
a(lp1485
g10
aVthink
p1486
aVthat
p1487
aV's
p1488
aVthe
p1489
aVstatue
p1490
aVfrom
p1491
aVmy
p1492
aVhouse
p1493
ag45
aVthat
p1494
aVlooks
p1495
aVlike
p1496
aVthe
p1497
aVstatue
p1498
aVfrom
p1499
aVmy
p1500
aVhouse
p1501
ag177
aaa(lp1502
Velaine
p1503
a(lp1504
Vwhat
p1505
aVstatue
p1506
ag252
aaa(lp1507
Vjerry
p1508
a(lp1509
g10
aVhad
p1510
ag41
aVstatue
p1511
ag177
aaa(lp1512
Velaine
p1513
a(lp1514
Vyou
p1515
aVhave
p1516
ag41
aVstatue
p1517
ag252
ag10
aVnever
p1518
aVsaw
p1519
ag41
aVstatue
p1520
ag45
aaa(lp1521
Vjerry
p1522
a(lp1523
Vmy
p1524
aVgrandfather
p1525
aVgave
p1526
aVme
p1527
ag41
aVstatue
p1528
ag177
aaa(lp1529
Velaine
p1530
a(lp1531
Vsince
p1532
aVwhen
p1533
ag252
aaa(lp1534
Vjerry
p1535
a(lp1536
Vwhat
p1537
aV's
p1538
aVthe
p1539
aVdifference
p1540
ag252
ag177
aVthat
p1541
aV's
p1542
aVthe
p1543
aVone
p1544
ag177
aVhe
p1545
aVripped
p1546
aVme
p1547
aVoff
p1548
ag177
aVthis
p1549
aVguy
p1550
aVripped
p1551
aVme
p1552
aVoff
p1553
ag177
aaa(lp1554
Vray
p1555
a(lp1556
Vdo
p1557
aVyou
p1558
aVtake
p1559
aVsugar
p1560
ag252
aaa(lp1561
Velaine
p1562
a(lp1563
Vuhh
p1564
aVno
p1565
ag45
aaa(lp1566
Vjerry
p1567
ag1563
aa(lp1568
Vjerry
p1569
a(lp1570
g10
aVca
p1571
aVn't
p1572
aVbelieve
p1573
aVit
p1574
ag177
aVthis
p1575
aVguy
p1576
aVripped
p1577
aVme
p1578
aVoff
p1579
ag177
aaa(lp1580
Velaine
p1581
a(lp1582
Vdo
p1583
aVyou
p1584
aVrealize
p1585
aVwhat
p1586
aVyou
p1587
aV're
p1588
aVsaying
p1589
ag252
aaa(lp1590
Vjerry
p1591
a(lp1592
Vyes
p1593
ag177
aVthis
p1594
aVguy
p1595
aVripped
p1596
aVme
p1597
aVoff
p1598
ag177
aVhe
p1599
aVstole
p1600
aVthat
p1601
aVstatue
p1602
aVright
p1603
aVout
p1604
aVof
p1605
aVmy
p1606
aVhouse
p1607
ag177
aaa(lp1608
Vray
p1609
a(lp1610
Vlemon
p1611
ag252
aaa(lp1612
Velaine
p1613
a(lp1614
Vuh
p1615
aVsure
p1616
ag22
aVyeah
p1617
aaa(lp1618
Vjerry
p1619
ag1614
aa(lp1620
Velaine
p1621
a(lp1622
Vare
p1623
aVyou
p1624
aVsure
p1625
ag252
aaa(lp1626
Vjerry
p1627
a(lp1628
Vpretty
p1629
aVsure
p1630
ag177
aVninety-nine
p1631
aVpercent
p1632
aVsure
p1633
ag45
aaa(lp1634
Velaine
p1635
a(lp1636
Vninety-nine
p1637
aVpercent
p1638
aVsure
p1639
ag252
ag177
aaa(lp1640
Vray
p1641
a(lp1642
Vah
p1643
ag22
aVsweet
p1644
aVelixir
p1645
ag45
aVit
p1646
aV's
p1647
aVfragrant
p1648
aVnectar
p1649
ag699
ag41
aVsoothing
p1650
aVbalm
p1651
aVfor
p1652
aVthe
p1653
aVsoul
p1654
ag45
aaa(lp1655
Vray
p1656
a(lp1657
Vthe
p1658
aVpastries
p1659
ag177
aaa(lp1660
Velaine
p1661
a(lp1662
Vmaybe
p1663
aVit
p1664
aVjust
p1665
aVlooks
p1666
aVthe
p1667
aVsame
p1668
ag45
aVmaybe
p1669
aVit
p1670
aV's
p1671
aVjust
p1672
ag41
aVcoincidence
p1673
ag45
aaa(lp1674
Vjerry
p1675
a(lp1676
Vcoincidence
p1677
ag252
aVthis
p1678
aVguy
p1679
aV's
p1680
aVin
p1681
aVmy
p1682
aVapartment
p1683
aVand
p1684
aVthen
p1685
ag22
aVjust
p1686
aVby
p1687
aVcoincidence
p1688
ag22
aVhe
p1689
aVhas
p1690
aVthe
p1691
aVsame
p1692
aVexact
p1693
aVstatue
p1694
aVin
p1695
aVhis
p1696
aVapartment
p1697
ag45
aaa(lp1698
Velaine
p1699
a(lp1700
g10
aVnever
p1701
aVsaw
p1702
aVthe
p1703
aVstatue
p1704
ag45
aaa(lp1705
Vjerry
p1706
a(lp1707
g10
aVhad
p1708
ag41
aVstatue
p1709
ag177
aVwhat
p1710
aVshould
p1711
ag10
aVdo
p1712
ag252
aaa(lp1713
Velaine
p1714
a(lp1715
g10
aVdo
p1716
aVn't
p1717
aVknow
p1718
ag45
aaa(lp1719
Vjerry
p1720
a(lp1721
g10
aV'll
p1722
aVcall
p1723
aVkramer
p1724
ag45
aVhe
p1725
aVcan
p1726
aVcheck
p1727
aVmy
p1728
aVhouse
p1729
ag45
aaa(lp1730
Velaine
p1731
a(lp1732
Voh
p1733
aVjerry
p1734
ag22
aVdo
p1735
aVn't
p1736
aVblow
p1737
aVthis
p1738
aVfor
p1739
aVme
p1740
ag45
aaa(lp1741
Vjerry
p1742
a(lp1743
Vdo
p1744
aVn't
p1745
aVworry
p1746
aVkramer
p1747
ag177
aVkramer
p1748
ag177
aVit
p1749
aV's
p1750
aVjerry
p1751
ag177
aVjerry
p1752
ag177
aVfrom
p1753
aVnext
p1754
aVdoor
p1755
ag177
aVnever
p1756
aVmind
p1757
aVwhere
p1758
ag10
aVam
p1759
ag177
aVyes
p1760
ag22
aVjerry
p1761
aVseinfeld
p1762
ag177
aaa(lp1763
Vjerry
p1764
a(lp1765
Vma
p1766
ag22
ag10
aVtold
p1767
aVya
p1768
ag22
aVjust
p1769
aVdip
p1770
aVthe
p1771
aVbread
p1772
aVin
p1773
aVthe
p1774
aVbatter
p1775
ag22
aVand
p1776
aVput
p1777
aVin
p1778
aVright
p1779
aVin
p1780
aVthe
p1781
aVpan
p1782
ag45
aVokay
p1783
ag22
aVbye
p1784
ag45
aVmy
p1785
aVmother
p1786
aVshe
p1787
aVforgot
p1788
aVhow
p1789
aVto
p1790
aVmake
p1791
aVfrench
p1792
aVtoast
p1793
ag45
aVyou
p1794
aVknow
p1795
aVhow
p1796
aVmothers
p1797
aVare
p1798
ag45
aaa(lp1799
Vrava
p1800
a(lp1801
Vmy
p1802
aVmother
p1803
aVleft
p1804
aVus
p1805
aVwhen
p1806
ag10
aVwas
p1807
aVsix
p1808
aVyears
p1809
aVold
p1810
ag45
aVall
p1811
aVseven
p1812
aVof
p1813
aVus
p1814
ag45
aVhe
p1815
aVever
p1816
aVheard
p1817
aVfrom
p1818
aVher
p1819
aVagain
p1820
ag45
ag10
aVhope
p1821
aVshe
p1822
aV's
p1823
aVrotting
p1824
aVin
p1825
aVan
p1826
aValley
p1827
aVsomewhere
p1828
ag45
aaa(lp1829
Vjerry
p1830
a(lp1831
Vmy
p1832
aVmom
p1833
aV's
p1834
aVdown
p1835
aVin
p1836
aVflorida
p1837
aVshe
p1838
aV's
p1839
aVgo
p1840
aVone
p1841
aVof
p1842
aVthose
p1843
aVcondos
p1844
aVhot
p1845
aVdown
p1846
aVthere
p1847
aVin
p1848
aVthe
p1849
aVsummer
p1850
ag45
aVyou
p1851
aVever
p1852
aVbeen
p1853
aVdown
p1854
aVthere
p1855
ag252
aaa(lp1856
Vray
p1857
a(lp1858
g10
aVlove
p1859
aVthese
p1860
aVpastries
p1861
ag45
aVyou
p1862
aVknow
p1863
ag22
aVin
p1864
aVscandinavian
p1865
aVmythology
p1866
ag22
aVthe
p1867
aVpastries
p1868
aVwere
p1869
aVthe
p1870
aVfood
p1871
aVof
p1872
aVthe
p1873
aVgods
p1874
ag45
aaa(lp1875
Vjerry
p1876
a(lp1877
Vlisten
p1878
ag22
ag10
aVjust
p1879
aVremembered
p1880
ag10
aV'm
p1881
aVuh
p1882
ag22
aVgetting
p1883
ag41
aVfacial
p1884
ag45
aaa(lp1885
Velaine
p1886
a(lp1887
Voh
p1888
ag22
aVsee
p1889
aVyou
p1890
aVtomarrow
p1891
aVmorning
p1892
ag45
aaa(lp1893
Vray
p1894
a(lp1895
Voh
p1896
ag22
aVhow
p1897
aVabout
p1898
aVdinner
p1899
ag252
aaa(lp1900
Vjerry
p1901
a(lp1902
Vno
p1903
ag22
ag10
aVdo
p1904
aVn't
p1905
aVeat
p1906
aVdinner
p1907
ag45
aVdinner
p1908
aV's
p1909
aVfor
p1910
aVsuckers
p1911
ag45
aaa(lp1912
Vjerry
p1913
a(lp1914
Vuh
p1915
aVhuh
p1916
aVyeah
p1917
aVokay
p1918
ag22
aVthanks
p1919
aVanyway
p1920
ag45
aVbye
p1921
ag45
aVnope
p1922
ag22
aVthe
p1923
aVcop
p1924
aVsays
p1925
aVit
p1926
aV's
p1927
aVmy
p1928
aVword
p1929
aVagainst
p1930
aVhis
p1931
ag45
aVthere
p1932
aV's
p1933
aVnothing
p1934
aVthey
p1935
aVcan
p1936
aVdo
p1937
ag45
aaa(lp1938
Vkramer
p1939
a(lp1940
Vlet
p1941
aV's
p1942
aVgo
p1943
aVget
p1944
aVhim
p1945
ag45
aaa(lp1946
Vjerry
p1947
a(lp1948
Vyeah
p1949
ag22
aVright
p1950
ag45
aaa(lp1951
Vgeorge
p1952
a(lp1953
Vwe
p1954
aVca
p1955
aVn't
p1956
aVjust
p1957
aVlet
p1958
aVhim
p1959
aVget
p1960
aVaway
p1961
aVwith
p1962
aVthis
p1963
ag45
aaa(lp1964
Vjerry
p1965
a(lp1966
Vdo
p1967
aVyou
p1968
aVrealize
p1969
aVhow
p1970
aVcrazy
p1971
aVhe
p1972
aVhad
p1973
aVto
p1974
aVbe
p1975
aVto
p1976
aVdo
p1977
aVsomething
p1978
aVlike
p1979
aVthis
p1980
ag252
aVhe
p1981
aVknew
p1982
ag10
aVwas
p1983
aVgon
p1984
aVna
p1985
aVknow
p1986
aVit
p1987
aV's
p1988
aVmissing
p1989
ag22
aVand
p1990
aVhe
p1991
aVtook
p1992
aVit
p1993
ag177
aVand
p1994
aVof
p1995
aVall
p1996
aVthings
p1997
aVto
p1998
aVtake
p1999
ag699
ag10
aVleft
p2000
aVmy
p2001
aVwatch
p2002
ag22
aVtape
p2003
aVrecorder
p2004
ag22
aVstereo
p2005
ag45
aVhe
p2006
aV's
p2007
aVcrazy
p2008
ag45
aaa(lp2009
Vkramer
p2010
a(lp2011
Vyou
p2012
aVwanta
p2013
aVgo
p2014
aVget
p2015
aVhim
p2016
ag252
aaa(lp2017
Velaine
p2018
a(lp2019
Vwell
p2020
ag22
aVthen
p2021
ag22
aVif
p2022
aVhe
p2023
aV's
p2024
aVcrazy
p2025
aVyou
p2026
aVshould
p2027
aVjust
p2028
aVforget
p2029
aVit
p2030
ag45
aaa(lp2031
Vgeorge
p2032
a(lp2033
Vforget
p2034
aVit
p2035
ag252
ag10
aValready
p2036
aVcalled
p2037
aVmy
p2038
aVparents
p2039
ag45
ag10
aVtold
p2040
aVthem
p2041
aVto
p2042
aVexpect
p2043
aVthe
p2044
aVsurprise
p2045
aVof
p2046
ag41
aVlifetime
p2047
ag45
aVmy
p2048
aVmother
p2049
aV's
p2050
aVmaking
p2051
aVher
p2052
aVroasted
p2053
aVpotatoes
p2054
ag177
aaa(lp2055
Velaine
p2056
a(lp2057
Vgeorge
p2058
ag22
aVdo
p2059
aVyou
p2060
aVrealize
p2061
aVthat
p2062
aVrava
p2063
aV's
p2064
aVasked
p2065
aVme
p2066
aVto
p2067
aVedit
p2068
aVher
p2069
aVbook
p2070
ag252
aaa(lp2071
Vgeorge
p2072
a(lp2073
Vwho
p2074
aVis
p2075
aVthis
p2076
aVrava
p2077
ag252
aaa(lp2078
Vkramer
p2079
a(lp2080
g10
aVsay
p2081
aVwe
p2082
aVget
p2083
aVhim
p2084
ag45
aaa(lp2085
Velaine
p2086
a(lp2087
Vno
p2088
ag177
aaa(lp2089
Vgeorge
p2090
a(lp2091
Vlet
p2092
aVme
p2093
aVjust
p2094
aVcall
p2095
aVhim
p2096
ag45
aaa(lp2097
Vjerry
p2098
a(lp2099
g10
aV'll
p2100
aVcall
p2101
aVhim
p2102
ag45
aVhello
p2103
ag22
aVray
p2104
ag252
aVhi
p2105
ag22
aVray
p2106
ag22
aVthis
p2107
aVis
p2108
aVrava
p2109
aV's
p2110
aVfriend
p2111
ag22
aVelaine
p2112
aV's
p2113
aVfrined
p2114
ag22
aVjerry
p2115
aVthe
p2116
aVking
p2117
aVof
p2118
aVcomedy
p2119
aVright
p2120
ag45
aVlisten
p2121
ag22
aVyou
p2122
aVknow
p2123
aVthat
p2124
aVstatue
p2125
aVon
p2126
aVyour
p2127
aVmantle
p2128
ag22
aVthe
p2129
aVone
p2130
aVwith
p2131
aVthe
p2132
aVblue
p2133
aVlady
p2134
ag252
aVwill
p2135
aVyou
p2136
aVshut
p2137
aVup
p2138
ag252
ag177
aVyeah
p2139
ag22
aVyou
p2140
aVdo
p2141
aVn't
p2142
aVwant
p2143
aVto
p2144
aVtalk
p2145
aVabout
p2146
aVit
p2147
aVover
p2148
aVthe
p2149
aVphone
p2150
ag252
aVyou
p2151
aVdo
p2152
aVn't
p2153
aVwant
p2154
aVrava
p2155
aVto
p2156
aVhear
p2157
ag252
aVyeah
p2158
ag22
ag10
aVunderstand
p2159
aVyou
p2160
aVknow
p2161
aVthat
p2162
aVcoffee
p2163
aVshop
p2164
aVnear
p2165
aVmy
p2166
aVhouse
p2167
ag22
aVmonk
p2168
aV's
p2169
ag252
aValright
p2170
ag22
aVtomarrow
p2171
ag45
aVone
p2172
aVo
p2173
aV'
p2174
aVclock
p2175
ag45
aVgreat
p2176
ag22
aVokay
p2177
ag22
aVbye
p2178
ag45
aaa(lp2179
Velaine
p2180
a(lp2181
Valright
p2182
ag22
aVlook
p2183
ag22
aVlook
p2184
ag22
aVlook
p2185
ag22
aVlet
p2186
aV's
p2187
aVsay
p2188
aVhe
p2189
aVstole
p2190
aVit
p2191
ag45
aaa(lp2192
Vgeorge
p2193
a(lp2194
Voh
p2195
ag22
aVhe
p2196
aVstole
p2197
aVit
p2198
ag252
aaa(lp2199
Velaine
p2200
a(lp2201
Vc'mon
p2202
ag22
aVyou
p2203
aVca
p2204
aVn't
p2205
aVdo
p2206
aVanything
p2207
aVabout
p2208
aVit
p2209
ag45
aVthe
p2210
aVcops
p2211
aVwo
p2212
aVn't
p2213
aVdo
p2214
aVanything
p2215
ag45
aVwhat
p2216
ag22
aVare
p2217
aVyou
p2218
aVgoing
p2219
aVto
p2220
aVfight
p2221
aVhim
p2222
ag252
aVwhy
p2223
aVdo
p2224
aVn't
p2225
aVyou
p2226
aVjust
p2227
aVforget
p2228
aVit
p2229
ag252
aaa(lp2230
Vgeorge
p2231
a(lp2232
Vno
p2233
ag45
aaa(lp2234
Vjerry
p2235
ag2232
aa(lp2236
Vgeorge
p2237
a(lp2238
g10
aVthought
p2239
aVyou
p2240
aVsaid
p2241
aVone
p2242
ag2173
ag2174
aVclock
p2243
ag45
aaa(lp2244
Vjerry
p2245
a(lp2246
Vrelax
p2247
ag22
aVhe
p2248
aV's
p2249
aVlate
p2250
ag45
aVhe
p2251
aV's
p2252
aValways
p2253
aVlate
p2254
ag45
aVit
p2255
aV's
p2256
aVpart
p2257
aVof
p2258
aVhis
p2259
aVm.o
p2260
ag45
aaa(lp2261
Vgeorge
p2262
a(lp2263
Vremember
p2264
ag22
aVdo
p2265
aVn't
p2266
aVtake
p2267
aVany
p2268
aVcrap
p2269
ag45
aaa(lp2270
Vjerry
p2271
a(lp2272
Vyeah
p2273
ag22
aVyeah
p2274
aVdo
p2275
aVn't
p2276
aVworry
p2277
aVabout
p2278
aVit
p2279
ag45
aaa(lp2280
Vgeorge
p2281
a(lp2282
g10
aV'll
p2283
aVbe
p2284
aVright
p2285
aVhere
p2286
ag45
aaa(lp2287
Vjerry
p2288
a(lp2289
Vthat
p2290
aV's
p2291
aVcomforting
p2292
aVshh
p2293
ag45
aVhe
p2294
aV's
p2295
aVhere
p2296
ag45
aVray
p2297
ag252
aaa(lp2298
Vray
p2299
a(lp2300
Voh
p2301
ag22
aVjerry
p2302
ag45
ag10
aVca
p2303
aVn't
p2304
aVbelieve
p2305
aVyou
p2306
aVasked
p2307
aVme
p2308
aVabout
p2309
aVthat
p2310
aVstatue
p2311
ag45
aVdo
p2312
aVyou
p2313
aVknow
p2314
aVhow
p2315
aVmuch
p2316
aVtrouble
p2317
aVyou
p2318
aVcould
p2319
aV've
p2320
aVgot
p2321
aVme
p2322
aVinto
p2323
ag252
aaa(lp2324
Vjerry
p2325
a(lp2326
Vwell
p2327
ag22
ag10
aVdid
p2328
aVn't
p2329
aaa(lp2330
Vray
p2331
a(lp2332
Vrava
p2333
aVwas
p2334
aVstanding
p2335
aVright
p2336
aVnext
p2337
aVto
p2338
aVme
p2339
ag45
ag10
aVnever
p2340
aVtold
p2341
aVher
p2342
aVwhere
p2343
ag10
aVgot
p2344
aVthe
p2345
aVstatue
p2346
ag45
aaa(lp2347
Vgeorge
p2348
a(lp2349
g10
aVwonder
p2350
aVwhy
p2351
ag45
aaa(lp2352
Vjerry
p2353
a(lp2354
Vwell
p2355
ag22
aVjust
p2356
aVgive
p2357
aVit
p2358
aVback
p2359
ag22
aVand
p2360
ag10
aVwo
p2361
aVn't
p2362
aVsay
p2363
aVanything
p2364
ag45
aaa(lp2365
Vray
p2366
a(lp2367
Vgive
p2368
aVit
p2369
aVback
p2370
ag252
aaa(lp2371
Vjerry
p2372
a(lp2373
Vyeah
p2374
ag45
aaa(lp2375
Vray
p2376
a(lp2377
Vwhat
p2378
aVare
p2379
aVyou
p2380
aVtalking
p2381
aVabout
p2382
ag252
aaa(lp2383
Vjerry
p2384
a(lp2385
Vwhat
p2386
aVare
p2387
aVyou
p2388
aVtalking
p2389
aVabout
p2390
ag252
aaa(lp2391
Vgeorge
p2392
a(lp2393
Vwhat
p2394
aVis
p2395
aVhe
p2396
aVtalking
p2397
aVabout
p2398
aaa(lp2399
Vray
p2400
a(lp2401
g10
aV'm
p2402
aVtalking
p2403
aVabout
p2404
aVthe
p2405
aVstatue
p2406
ag45
aaa(lp2407
Vjerry
p2408
a(lp2409
Vyeah
p2410
ag22
aVme
p2411
aVtoo
p2412
ag45
aaa(lp2413
Vray
p2414
a(lp2415
Vgive
p2416
aVit
p2417
aVback
p2418
aVto
p2419
aVwhom
p2420
ag252
aaa(lp2421
Vjerry
p2422
a(lp2423
Vme
p2424
ag45
aaa(lp2425
Vgeorge
p2426
a(lp2427
Vyeah
p2428
ag22
aVhim
p2429
ag45
aaa(lp2430
Vray
p2431
a(lp2432
Vyou
p2433
ag252
aaa(lp2434
Vjerry
p2435
a(lp2436
Vyeah
p2437
ag45
aVme
p2438
ag45
aaa(lp2439
Vray
p2440
a(lp2441
g10
aV'm
p2442
aVnot
p2443
aVgetting
p2444
aVthis
p2445
ag45
aaa(lp2446
Vgeorge
p2447
a(lp2448
Vyou
p2449
aValready
p2450
aVgot
p2451
aVit
p2452
ag45
aaa(lp2453
Vjerry
p2454
a(lp2455
Vray
p2456
ag22
ag10
aVhad
p2457
ag41
aVstatue
p2458
aVin
p2459
aVmy
p2460
aVhouse
p2461
ag45
aVyou
p2462
aVwere
p2463
aVin
p2464
aVmy
p2465
aVhouse
p2466
ag699
aVand
p2467
aVthen
p2468
ag10
aVsaw
p2469
aVit
p2470
aVin
p2471
aVyour
p2472
aVhouse
p2473
ag45
aaa(lp2474
Vray
p2475
a(lp2476
Vwhat
p2477
aVare
p2478
aVyou
p2479
aVsaying
p2480
ag252
aaa(lp2481
Vjerry
p2482
a(lp2483
Vwhat
p2484
aVam
p2485
ag10
aVsaying
p2486
ag252
aaa(lp2487
Vgeorge
p2488
a(lp2489
Vtake
p2490
ag41
aVwild
p2491
aVguess
p2492
ag45
aaa(lp2493
Vray
p2494
a(lp2495
Vare
p2496
aVyou
p2497
aVsaying
p2498
ag10
aVstole
p2499
aVyour
p2500
aVstatue
p2501
ag252
aaa(lp2502
Vgeorge
p2503
a(lp2504
Vwhat
p2505
ag41
aVmind
p2506
ag45
aaa(lp2507
Vjerry
p2508
a(lp2509
Vwell
p2510
ag22
ag10
aaa(lp2511
Vray
p2512
a(lp2513
g10
aVca
p2514
aVn't
p2515
aVbelieve
p2516
aVwhat
p2517
ag10
aV'm
p2518
aVhearing
p2519
ag45
aaa(lp2520
Vjerry
p2521
a(lp2522
g10
aVca
p2523
aVn't
p2524
aVbelieve
p2525
aVwhat
p2526
ag10
aV'm
p2527
aVhearing
p2528
ag45
aaa(lp2529
Vgeorge
p2530
a(lp2531
g10
aVca
p2532
aVn't
p2533
aVbelieve
p2534
aVwhat
p2535
ag10
aV'm
p2536
aVhearing
p2537
ag45
aaa(lp2538
Vray
p2539
a(lp2540
Vfor
p2541
aVyour
p2542
aVinformation
p2543
ag22
ag10
aVgot
p2544
aVthat
p2545
aVstatue
p2546
aVat
p2547
ag41
aVpawn
p2548
aVshop
p2549
ag45
aaa(lp2550
Vgeorge
p2551
a(lp2552
g41
aVpawn
p2553
aVshop
p2554
ag252
aaa(lp2555
Vjerry
p2556
a(lp2557
g41
aVpawn
p2558
aVshop
p2559
ag252
aaa(lp2560
Vray
p2561
a(lp2562
Vyes
p2563
ag45
aVin
p2564
aVchinatown
p2565
aVwith
p2566
aVthe
p2567
aVmoney
p2568
ag10
aVearned
p2569
aVcleaning
p2570
aVpeople
p2571
aV's
p2572
aVapartments
p2573
ag45
aaa(lp2574
Vgeorge
p2575
a(lp2576
Vand
p2577
aVcleaning
p2578
aVthem
p2579
aVout
p2580
ag45
aaa(lp2581
Vjerry
p2582
a(lp2583
Voh
p2584
ag22
aVexcuse
p2585
aVme
p2586
aVlook
p2587
ag22
aVray
p2588
ag22
aVyou
p2589
aVwere
p2590
aVthe
p2591
aVonly
p2592
aVperson
p2593
aVin
p2594
aVmy
p2595
aVhouse
p2596
ag45
aaa(lp2597
Vray
p2598
a(lp2599
Vwhat
p2600
aV's
p2601
aVbehind
p2602
aVthis
p2603
ag252
aVit
p2604
aV's
p2605
aVrava
p2606
ag22
aVis
p2607
aVn't
p2608
aVit
p2609
ag252
aaa(lp2610
Vgeorge
p2611
a(lp2612
Vagain
p2613
aVwith
p2614
aVthe
p2615
aVrava
p2616
ag45
aaa(lp2617
Vray
p2618
a(lp2619
Vyou
p2620
aVwant
p2621
aVher
p2622
ag45
aaa(lp2623
Vjerry
p2624
a(lp2625
Vno
p2626
ag22
aVshe
p2627
aV's
p2628
ag41
aVlittle
p2629
aVtoo
p2630
aVcheery
p2631
aVfor
p2632
aVme
p2633
ag45
aaa(lp2634
Vray
p2635
a(lp2636
Vshe
p2637
aV's
p2638
aVfrom
p2639
aVfinland
p2640
ag22
aVfor
p2641
aVcrying
p2642
aVout
p2643
aVloud
p2644
ag45
aVfinland
p2645
ag177
aVdo
p2646
aVyou
p2647
aVunderstand
p2648
ag252
ag177
aaa(lp2649
Vjerry
p2650
a(lp2651
g10
aVknow
p2652
aVfinland
p2653
ag45
aVthey
p2654
aV're
p2655
aVneutral
p2656
ag45
aaa(lp2657
Vray
p2658
a(lp2659
Vis
p2660
aVit
p2661
aVme
p2662
ag252
aVdo
p2663
ag10
aVrub
p2664
aVyou
p2665
aVthe
p2666
aVwrong
p2667
aVway
p2668
ag252
aaa(lp2669
Vjerry
p2670
a(lp2671
Vno
p2672
ag22
ag10
aVactually
p2673
aVfind
p2674
aVyou
p2675
aVquite
p2676
aVcharming
p2677
ag41
aVbit
p2678
aVverbose
p2679
aVat
p2680
aVtimes
p2681
ag45
aaa(lp2682
Vgeorge
p2683
a(lp2684
Voh
p2685
ag22
ag10
aVfind
p2686
aVyou
p2687
aVso
p2688
aVcharming
p2689
aVyou
p2690
aVwuss
p2691
ag45
aaa(lp2692
Vjerry
p2693
a(lp2694
Vdid
p2695
aVyou
p2696
aVcall
p2697
aVme
p2698
ag41
aVwuss
p2699
ag252
aaa(lp2700
Vray
p2701
a(lp2702
Vwhat
p2703
aVdid
p2704
aVyou
p2705
aVsay
p2706
ag252
aaa(lp2707
Vjerry
p2708
a(lp2709
g10
aVsaid
p2710
aVluss
p2711
ag10
aV'm
p2712
aVat
p2713
ag41
aVluss
p2714
aaa(lp2715
Vray
p2716
a(lp2717
g10
aVwould
p2718
aVjust
p2719
aVlove
p2720
aVto
p2721
aVtake
p2722
aVyou
p2723
aVdown
p2724
aVto
p2725
aVthe
p2726
aVshop
p2727
aVwhere
p2728
ag10
aVgot
p2729
aVit
p2730
ag45
aaa(lp2731
Vjerry
p2732
a(lp2733
Vthat
p2734
aV's
p2735
aVnot
p2736
aVnecessary
p2737
ag45
aVyou
p2738
aVknow
p2739
ag22
aVmaybe
p2740
aVit
p2741
aV's
p2742
aVnot
p2743
aVthat
p2744
aVbad
p2745
aVan
p2746
aVidea
p2747
ag45
aaa(lp2748
Vray
p2749
a(lp2750
Vand
p2751
ag10
aVwould
p2752
aVlove
p2753
aVto
p2754
ag45
aVnothing
p2755
aVwould
p2756
aVplease
p2757
aVme
p2758
aVmore
p2759
ag45
aVbut
p2760
ag22
aVunfortunately
p2761
ag22
aVthe
p2762
aVguy
p2763
aVretired
p2764
aVand
p2765
aVmoved
p2766
aVto
p2767
aVsingapore
p2768
ag45
aaa(lp2769
Vgeorge
p2770
a(lp2771
Vsingapore
p2772
ag252
ag177
aVdo
p2773
aVyou
p2774
aVhear
p2775
aVthis
p2776
ag252
aaa(lp2777
Vray
p2778
a(lp2779
Vif
p2780
aVyou
p2781
aVreally
p2782
aVwant
p2783
ag22
aVmaybe
p2784
ag10
aVcan
p2785
aVcontact
p2786
aVthe
p2787
aVguy
p2788
aVin
p2789
aVsingapore
p2790
aVaand
p2791
aVhave
p2792
aVhim
p2793
aVmake
p2794
ag41
aVphotostat
p2795
aVof
p2796
aVthe
p2797
aVreceipt
p2798
aVand
p2799
aVsend
p2800
aVit
p2801
aVover
p2802
ag45
aaa(lp2803
Vgeorgge
p2804
a(lp2805
Vthat
p2806
aV's
p2807
aVit
p2808
ag177
aVthat
p2809
aV's
p2810
aVit
p2811
ag177
ag10
aVca
p2812
aVn't
p2813
aVtake
p2814
aVit
p2815
ag45
ag10
aVca
p2816
aVn't
p2817
aVtake
p2818
aVit
p2819
aVanymore
p2820
ag177
aVyou
p2821
aVstole
p2822
aVthe
p2823
aVstatue
p2824
ag177
aVyou
p2825
aV're
p2826
ag41
aVtheif
p2827
ag177
aVyou
p2828
aV're
p2829
ag41
aVliar
p2830
ag177
aaa(lp2831
Vjerry
p2832
a(lp2833
Vgeorge
p2834
ag45
aaa(lp2835
Vray
p2836
a(lp2837
Vwho
p2838
aVis
p2839
aVthis
p2840
ag252
aaa(lp2841
Vgeorge
p2842
a(lp2843
g10
aV'm
p2844
aVthe
p2845
aVjudge
p2846
aVand
p2847
aVthe
p2848
aVjury
p2849
ag22
aVpal
p2850
ag45
aVand
p2851
aVthe
p2852
aVverdict
p2853
aVis
p2854
aVguilty
p2855
ag177
aaa(lp2856
Vray
p2857
a(lp2858
Vwhat
p2859
aV's
p2860
aVgoing
p2861
aVon
p2862
aVhere
p2863
ag252
aaa(lp2864
Vgeorge
p2865
a(lp2866
Vguilty
p2867
ag177
aaa(lp2868
Vray
p2869
a(lp2870
Vyour
p2871
aVfriend
p2872
aVis
p2873
aVcrazy
p2874
ag45
aaa(lp2875
Vgeorge
p2876
a(lp2877
Voh
p2878
ag22
ag10
aV'm
p2879
aVcrazy
p2880
ag177
aaa(lp2881
Vjerry
p2882
a(lp2883
Vgeorge
p2884
ag22
aVgeorge
p2885
aaa(lp2886
Vray
p2887
a(lp2888
g10
aV've
p2889
aVgot
p2890
aVto
p2891
aVget
p2892
aVgoing
p2893
ag45
ag10
aVhave
p2894
ag41
aVclass
p2895
ag45
aaa(lp2896
Vgeorge
p2897
a(lp2898
Voh
p2899
aVho
p2900
ag177
aVclass
p2901
ag22
aVhuh
p2902
ag252
aVat
p2903
aVcolumbia
p2904
ag252
aVlet
p2905
aVme
p2906
aVtell
p2907
aVyou
p2908
aVsomething
p2909
ag22
aVpal
p2910
ag45
ag10
aVcalled
p2911
aVthe
p2912
aVregistrar
p2913
aV's
p2914
aVoffice
p2915
ag45
ag10
aVchecked
p2916
aVyou
p2917
aVout
p2918
ag45
aVthey
p2919
aVhave
p2920
aVno
p2921
aVrecord
p2922
aVof
p2923
ag41
aVray
p2924
aVthomas
p2925
aVat
p2926
aVthat
p2927
aVschool
p2928
ag177
aVyou
p2929
aVliar
p2930
ag177
aaa(lp2931
Vray
p2932
a(lp2933
Vwell
p2934
ag22
aVthat
p2935
aV's
p2936
aVbecause
p2937
ag10
aV'm
p2938
aVregistered
p2939
aVunder
p2940
aVmy
p2941
aVfull
p2942
aVlegal
p2943
aVname
p2944
ag22
aVraymond
p2945
aVthomas
p2946
aVwochinski
p2947
ag45
aVray
p2948
aVthomas
p2949
aVis
p2950
aVmy
p2951
aVprofessional
p2952
aVname
p2953
ag45
aaa(lp2954
Vgeorge
p2955
a(lp2956
Vyou
p2957
aVmean
p2958
aValias
p2959
ag45
aaa(lp2960
Vray
p2961
a(lp2962
Vyou
p2963
aVare
p2964
aVstarting
p2965
aVto
p2966
aVmake
p2967
aVme
p2968
aVangry
p2969
ag45
aaa(lp2970
Vgeorge
p2971
a(lp2972
Vwell
p2973
ag22
aVthat
p2974
aVwas
p2975
aVbound
p2976
aVto
p2977
aVhappen
p2978
ag177
aaa(lp2979
Vray
p2980
a(lp2981
g10
aVhope
p2982
aVyou
p2983
aVthink
p2984
aVabout
p2985
aVwhat
p2986
aVyou
p2987
aV've
p2988
aVdone
p2989
aVhere
p2990
aVtoday
p2991
aVand
p2992
aVif
p2993
aVyou
p2994
aVwant
p2995
aVto
p2996
aVcall
p2997
aVand
p2998
aVapologize
p2999
ag22
aVyou
p3000
aVknow
p3001
aVwhere
p3002
aVto
p3003
aVreach
p3004
aVme
p3005
ag45
aaa(lp3006
Vjerry
p3007
a(lp3008
Vhey
p3009
ag22
aVray
p3010
ag45
aaa(lp3011
Vray
p3012
a(lp3013
Vyes
p3014
ag252
aaa(lp3015
Vjerry
p3016
a(lp3017
Vhow
p3018
aVdid
p3019
aVyou
p3020
aVget
p3021
aVthe
p3022
aVgoop
p3023
aVout
p3024
aVof
p3025
aVthe
p3026
aVtop
p3027
aVof
p3028
aVthe
p3029
aVdishwashing
p3030
aVliquid
p3031
ag252
aVit
p3032
aVwas
p3033
aVlike
p3034
ag41
aVbrand-new
p3035
aVnozzle
p3036
ag177
aaa(lp3037
Velaine
p3038
a(lp3039
Vnervous
p3040
ag252
aaa(lp3041
Vrava
p3042
a(lp3043
Vwhy
p3044
aVshould
p3045
ag10
aVbe
p3046
ag252
aaa(lp3047
Velaine
p3048
a(lp3049
Vyeah
p3050
ag45
aVright
p3051
ag45
aaa(lp3052
Vrava
p3053
a(lp3054
Vyour
p3055
aVnotes
p3056
aVare
p3057
aVvery
p3058
aVinsightful
p3059
ag45
aaa(lp3060
Velaine
p3061
a(lp3062
Vthe
p3063
aVbook
p3064
aVis
p3065
aVgreat
p3066
ag45
aVdid
p3067
aVyou
p3068
aVgo
p3069
aVout
p3070
aVlast
p3071
aVnight
p3072
ag252
aaa(lp3073
Vrava
p3074
a(lp3075
Vno
p3076
ag45
aVwe
p3077
aVmade
p3078
aVlove
p3079
aVon
p3080
aVthe
p3081
aVfloor
p3082
aVlike
p3083
aVtwo
p3084
aVanimals
p3085
ag45
aVray
p3086
aVis
p3087
aVinsatiable
p3088
ag45
aaa(lp3089
Velaine
p3090
a(lp3091
Vthey
p3092
aVall
p3093
aVare
p3094
aaa(lp3095
Vrava
p3096
a(lp3097
Vwas
p3098
aVjerry
p3099
ag252
aaa(lp3100
Velaine
p3101
a(lp3102
g10
aVca
p3103
aVn't
p3104
aVremember
p3105
aaa(lp3106
Vrava
p3107
a(lp3108
Vyou
p3109
aVknow
p3110
ag22
aVray
p3111
aVis
p3112
aVvery
p3113
aVupset
p3114
aVover
p3115
aVthese
p3116
aVaccusations
p3117
ag45
aaa(lp3118
Velaine
p3119
a(lp3120
Voh
p3121
ag22
aVwell
p3122
ag22
ag10
aV'm
p3123
aVstaying
p3124
aVout
p3125
aVof
p3126
aVthis
p3127
aVone
p3128
ag45
aVthis
p3129
aVis
p3130
aVbetween
p3131
aVthem
p3132
ag45
ag10
aVam
p3133
aVnot
p3134
aVgetting
p3135
aVinvolved
p3136
ag45
aaa(lp3137
Vrava
p3138
a(lp3139
Vso
p3140
aVyou
p3141
aVthink
p3142
aVhe
p3143
aVstole
p3144
aVit
p3145
ag252
ag177
aaa(lp3146
Velaine
p3147
a(lp3148
Vwell
p3149
ag22
aVyou
p3150
aVhave
p3151
aVto
p3152
aVadmit
p3153
aVthe
p3154
aVcircumstantial
p3155
aVevidence
p3156
ag45
aaa(lp3157
Vrava
p3158
a(lp3159
g10
aVadmit
p3160
aVnothing
p3161
ag177
aaa(lp3162
Vman
p3163
a(lp3164
Vwill
p3165
aVyou
p3166
aVput
p3167
aVthat
p3168
aVcigarette
p3169
aVout
p3170
ag22
aVplease
p3171
ag252
aaa(lp3172
Velaine
p3173
a(lp3174
Vwell
p3175
ag22
ag10
aVmean
p3176
ag22
aVhe
p3177
aVwas
p3178
aVin
p3179
aVthe
p3180
aVapartment
p3181
ag22
aVand
p3182
aVthen
p3183
aVit
p3184
aV's
p3185
aVgon
p3186
aVand
p3187
aVit
p3188
aV's
p3189
aVin
p3190
aVyour
p3191
aVapartment
p3192
ag45
aaa(lp3193
Vrava
p3194
a(lp3195
Vmaybe
p3196
aVyou
p3197
aVthink
p3198
aVwe
p3199
aV're
p3200
aVin
p3201
aVcahoots
p3202
ag45
aaa(lp3203
Velaine
p3204
a(lp3205
Vno
p3206
ag22
aVno
p3207
aVbut
p3208
aVit
p3209
aVis
p3210
aVquite
p3211
ag41
aVcoincidence
p3212
ag45
aaa(lp3213
Vrava
p3214
a(lp3215
Vyes
p3216
ag22
aVthat
p3217
aV's
p3218
aVall
p3219
ag22
ag41
aVcoincidence
p3220
ag177
aaa(lp3221
Velaine
p3222
a(lp3223
g41
aVbig
p3224
aVcoincidence
p3225
ag45
aaa(lp3226
Vrava
p3227
a(lp3228
Vnot
p3229
ag41
aVbig
p3230
aVcoincidence
p3231
ag45
ag41
aVcoincidence
p3232
ag177
aaa(lp3233
Velaine
p3234
a(lp3235
Vno
p3236
ag22
aVthat
p3237
aV's
p3238
ag41
aVbig
p3239
aVcoincidence
p3240
ag45
aaa(lp3241
Vrava
p3242
a(lp3243
Vthat
p3244
aV's
p3245
aVwhat
p3246
ag41
aVcoincidence
p3247
aVis
p3248
ag177
aVthere
p3249
aVare
p3250
aVno
p3251
aVsmall
p3252
aVcoincidences
p3253
aVand
p3254
aVbig
p3255
aVcoincidences
p3256
ag177
aaa(lp3257
Velaine
p3258
a(lp3259
Vno
p3260
ag22
aVthere
p3261
aVare
p3262
aVdegrees
p3263
aVof
p3264
aVcoincidences
p3265
ag45
aaa(lp3266
Vrava
p3267
a(lp3268
Vno
p3269
ag22
aVthere
p3270
aVare
p3271
aVonly
p3272
aVcoincidences
p3273
ag177
aVask
p3274
aVanyone
p3275
ag177
aVare
p3276
aVthere
p3277
aVbig
p3278
aVcoincidences
p3279
aVand
p3280
aVsmall
p3281
aVcoincidences
p3282
ag22
aVor
p3283
aVjust
p3284
aVcoincidences
p3285
ag252
aVwell
p3286
ag252
ag177
aVwell
p3287
ag252
ag177
aaa(lp3288
Vman
p3289
a(lp3290
Vwill
p3291
aVyou
p3292
aVput
p3293
aVthat
p3294
aVcigarette
p3295
aVout
p3296
ag252
ag177
aaa(lp3297
Vrava
p3298
a(lp3299
Vmaybe
p3300
ag10
aVput
p3301
aVit
p3302
aVout
p3303
aVon
p3304
aVyour
p3305
aVface
p3306
ag177
aVit
p3307
aV's
p3308
aVjust
p3309
aVlike
p3310
aVray
p3311
aVsaid
p3312
ag699
aVyou
p3313
aVand
p3314
aVjerry
p3315
aVare
p3316
aVjealous
p3317
aVof
p3318
aVour
p3319
aVlove
p3320
ag45
aVyou
p3321
aV're
p3322
aVtrying
p3323
aVto
p3324
aVdestroy
p3325
aVus
p3326
ag45
aaa(lp3327
Velaine
p3328
a(lp3329
Vshould
p3330
aVn't
p3331
aVyou
p3332
aVbe
p3333
aVout
p3334
aVon
p3335
ag41
aVledge
p3336
aVsomewhere
p3337
ag252
aaa(lp3338
Vgeorge
p3339
a(lp3340
Vma
p3341
ag22
aVwill
p3342
aVyou
p3343
aVstop
p3344
ag252
aVit
p3345
aV's
p3346
aVjust
p3347
ag41
aVstatue
p3348
ag177
aVhow
p3349
aVis
p3350
aVit
p3351
aVmy
p3352
aVfault
p3353
ag252
ag177
aVit
p3354
aVwas
p3355
aVstolen
p3356
ag45
ag10
aVdid
p3357
aVn't
p3358
aVeven
p3359
aVtouch
p3360
aVit
p3361
aVthis
p3362
aVtime
p3363
aVokay
p3364
ag22
aVfine
p3365
ag45
ag10
aVdo
p3366
aVn't
p3367
aVse
p3368
aVwhy
p3369
aVthis
p3370
aVshould
p3371
aVaffect
p3372
aVto
p3373
aVpotatoes
p3374
ag177
aVokay
p3375
ag45
aVgoodbye
p3376
ag45
aVshe
p3377
aVdoes
p3378
aVn't
p3379
aVreact
p3380
aVto
p3381
aVdisappointement
p3382
aVvery
p3383
aVwell
p3384
aVunlike
p3385
aVme
p3386
ag45
aaa(lp3387
Vkramer
p3388
a(lp3389
g10
aV'm
p3390
aVnot
p3391
aVhappy
p3392
aVabout
p3393
aVthis
p3394
ag45
aaa(lp3395
Velaine
p3396
a(lp3397
Vwhy
p3398
aVdo
p3399
aVn't
p3400
aVwe
p3401
aVjust
p3402
aVthrow
p3403
ag41
aVmolotov
p3404
aVcocktail
p3405
aVthrough
p3406
aVtheir
p3407
aVwindow
p3408
ag252
aaa(lp3409
Vgeorge
p3410
a(lp3411
Vthere
p3412
aV's
p3413
aVjust
p3414
aVno
p3415
aVjustice
p3416
ag45
aVthis
p3417
aVexperience
p3418
aVhas
p3419
aVchanged
p3420
aVme
p3421
ag45
aVit
p3422
aV's
p3423
aVmade
p3424
aVme
p3425
aVmore
p3426
aVcynical
p3427
ag22
aVmore
p3428
aVbitter
p3429
ag22
aVmore
p3430
aVjaded
p3431
ag45
aaa(lp3432
Vjerry
p3433
a(lp3434
Vreally
p3435
ag252
aaa(lp3436
Vgeorge
p3437
a(lp3438
Vsure
p3439
ag45
aVwhy
p3440
aVnot
p3441
ag252
aaa(lp3442
Velaine
p3443
a(lp3444
Vwell
p3445
ag22
aVhow
p3446
aVdo
p3447
aVyou
p3448
aVthink
p3449
ag10
aVfeel
p3450
ag252
aVinstead
p3451
aVof
p3452
aVediting
p3453
aVthe
p3454
aVfirst
p3455
aVnovel
p3456
aVof
p3457
ag41
aVmajor
p3458
aVyoung
p3459
aVwriting
p3460
aVtalent
p3461
ag22
ag10
aVam
p3462
aVproofreading
p3463
ag41
aVfood
p3464
aVallergy
p3465
aVcookbook
p3466
ag45
aaa(lp3467
Vjerry
p3468
a(lp3469
Vca
p3470
aVn't
p3471
aVyou
p3472
aVtalk
p3473
aVto
p3474
aVyour
p3475
aVboss
p3476
ag252
aaa(lp3477
Velaine
p3478
a(lp3479
g10
aVdid
p3480
ag45
aVhe
p3481
aVloves
p3482
aVrava
p3483
aVworse
p3484
aVhe
p3485
aVloves
p3486
aVray
p3487
ag22
aVand
p3488
aVhe
p3489
aVdoes
p3490
aVn't
p3491
aVthink
p3492
aVyou
p3493
aV're
p3494
aVfunny
p3495
aVat
p3496
aVall
p3497
ag45
aaa(lp3498
Vkramer
p3499
a(lp3500
g10
aV'm
p3501
aVnot
p3502
aVhappy
p3503
aVabout
p3504
aVthis
p3505
ag45
aaa(lp3506
Vjerry
p3507
a(lp3508
Vwell
p3509
ag22
aVperhaps
p3510
aVwe
p3511
aVcan
p3512
aVtake
p3513
aVcomfort
p3514
aVin
p3515
aVthe
p3516
aVknowledge
p3517
aVthat
p3518
aVin
p3519
aVthe
p3520
aVnext
p3521
aVworld
p3522
ag22
aVray
p3523
aVwill
p3524
aVbe
p3525
aVthe
p3526
aVrecipient
p3527
aVof
p3528
ag41
aVmuch
p3529
aVlarger
p3530
aVand
p3531
aVmore
p3532
aVharsh
p3533
aVbrand
p3534
aVof
p3535
aVjustice
p3536
aaa(lp3537
Vgeorge
p3538
a(lp3539
Vyeah
p3540
aVhe
p3541
aV'll
p3542
aVhave
p3543
aVmy
p3544
aVparents
p3545
ag177
aaa(lp3546
Vkramer
p3547
a(lp3548
Vpolice
p3549
ag177
aVopen
p3550
aVup
p3551
ag177
aaa(lp3552
Vray
p3553
a(lp3554
Vpolice
p3555
ag252
aaa(lp3556
Vkramer
p3557
a(lp3558
Vfreeze
p3559
ag22
aVmother
p3560
ag177
aaa(lp3561
Vray
p3562
a(lp3563
Vhey
p3564
aaa(lp3565
Vkramer
p3566
a(lp3567
Vshut
p3568
aVup
p3569
ag45
aVspread
p3570
aV'em
p3571
ag45
ag10
aVsaid
p3572
aVspread
p3573
aV'em
p3574
ag177
aVyou
p3575
aV're
p3576
aVin
p3577
aVbig
p3578
aVtrouble
p3579
aVson
p3580
ag45
aVburglary
p3581
ag22
aVgrand
p3582
aVlarceny
p3583
ag22
aVpossession
p3584
aVof
p3585
aVstolen
p3586
aVgoods
p3587
aVand
p3588
aVuh
p3589
ag22
aVuh
p3590
aVmurder
p3591
ag45
aaa(lp3592
Vray
p3593
a(lp3594
Vmurder
p3595
ag252
ag177
aaa(lp3596
Vkramer
p3597
a(lp3598
Vshut
p3599
aVup
p3600
ag177
aVkeep
p3601
aV'em
p3602
aVspread
p3603
ag177
aVjust
p3604
aVmake
p3605
aVlove
p3606
aVto
p3607
aVthat
p3608
aVwall
p3609
ag22
aVpervert
p3610
ag177
aaa(lp3611
Vray
p3612
a(lp3613
g10
aVthink
p3614
aVyou
p3615
aVhave
p3616
aVme
p3617
aVconfused
p3618
aVwith
p3619
aVsomebody
p3620
aVelse
p3621
ag45
aaa(lp3622
Vkramer
p3623
a(lp3624
Vis
p3625
aVyour
p3626
aVname
p3627
aVray
p3628
ag252
aaa(lp3629
Vray
p3630
a(lp3631
Vyeah
p3632
ag45
aaa(lp3633
Vkramer
p3634
a(lp3635
Vyeah
p3636
ag22
aVyou
p3637
aV're
p3638
aVthe
p3639
aVpunk
p3640
ag10
aV'm
p3641
aVlooking
p3642
aVfor
p3643
ag45
aaa(lp3644
Vray
p3645
a(lp3646
Vhey
p3647
ag22
aVhey
p3648
ag22
aVare
p3649
aVyou
p3650
ag41
aVcop
p3651
ag252
aaa(lp3652
Vkramer
p3653
a(lp3654
Vyeah
p3655
ag22
ag10
aV'm
p3656
ag41
aVcop
p3657
ag45
ag10
aV'm
p3658
ag41
aVgood
p3659
aVcop
p3660
ag45
ag10
aV'm
p3661
ag41
aVdamn
p3662
aVgood
p3663
aVcop
p3664
ag177
aVtoday
p3665
aV's
p3666
aVyour
p3667
aVlucky
p3668
aVday
p3669
ag22
aVjunior
p3670
ag22
aV'cause
p3671
ag10
aV'm
p3672
aVgon
p3673
aVna
p3674
aVlet
p3675
aVyou
p3676
aVoff
p3677
aVwith
p3678
ag41
aVwarning
p3679
ag45
aVany
p3680
aVmore
p3681
aVof
p3682
aVthis
p3683
aVcriminal
p3684
aVactivity
p3685
ag22
aVand
p3686
aVyou
p3687
aV'll
p3688
aVbe
p3689
aVsorry
p3690
ag45
aVyou
p3691
aVgot
p3692
aVme
p3693
ag252
aaa(lp3694
Vray
p3695
a(lp3696
Vgot
p3697
aVyou
p3698
ag252
ag10
aVdo
p3699
aVn't
p3700
aVeven
p3701
aVknow
p3702
aVwhat
p3703
aVthe
p3704
aVhell
p3705
aVyou
p3706
aV're
p3707
aVtalking
p3708
aVabout
p3709
ag45
aaa(lp3710
Vkramer
p3711
a(lp3712
Vgood
p3713
ag45
aVgood
p3714
ag45
aVlet
p3715
aV's
p3716
aVkeep
p3717
aVit
p3718
aVthat
p3719
aVway
p3720
ag45
aaa(lp3721
Vjerry
p3722
a(lp3723
Valright
p3724
ag22
aValright
p3725
ag45
aVwhat
p3726
aV's
p3727
aVthe
p3728
aVbig
p3729
aVhubbub
p3730
ag22
aVbub
p3731
ag252
aaa(lp3732
Vgeorge
p3733
a(lp3734
Vkramer
p3735
ag22
ag10
aVca
p3736
aVn't
p3737
aVbelieve
p3738
aVit
p3739
ag45
aVoh
p3740
ag22
aVyou
p3741
aV're
p3742
aVmy
p3743
aVhero
p3744
ag177
aaa(lp3745
Vkramer
p3746
a(lp3747
Vyeah
p3748
ag45
aaa(lp3749
Vjerry
p3750
a(lp3751
Vkramer
p3752
aV,
p3753
aVwhat
p3754
aVdid
p3755
aVyou
p3756
aVdo
p3757
aV?
p3758
aaa(lp3759
Vkramer
p3760
a(lp3761
Vwell
p3762
ag3753
aVlet
p3763
aV's
p3764
aVput
p3765
aVit
p3766
aVthis
p3767
aVway
p3768
aVi
p3769
aVdid
p3770
aVn't
p3771
aVtake
p3772
aVhim
p3773
aVto
p3774
aVpeople
p3775
aV's
p3776
aVcourt
p3777
aV.
p3778
aaa(lp3779
Vgeorge
p3780
a(lp3781
g3769
aVfeel
p3782
aVlike
p3783
aVa
p3784
aVhuge
p3785
aVweight
p3786
aV's
p3787
aVbeen
p3788
aVlifted
p3789
aVoff
p3790
aVmy
p3791
aVshoulders
p3792
ag3778
ag3769
ag3769
ag3769
aVfeel
p3793
aVhappy
p3794
aV!
p3795
aVkramer
p3796
ag3753
ag3769
aVdo
p3797
aVn't
p3798
aVknow
p3799
aVhow
p3800
aVto
p3801
aVthank
p3802
aVyou
p3803
ag3795
aaa(lp3804
Vkramer
p3805
a(lp3806
Vwell
p3807
ag3753
ag3769
aV'll
p3808
aVthink
p3809
aVof
p3810
aVsomething
p3811
aaa.