(lp0
(lp1
Vlevitan
p2
a(lp3
Vthe
p4
aVrevenge
p5
aVwritten
p6
aVby
p7
aVlarry
p8
aVdavid
p9
aVremind
p10
aVme
p11
aVto
p12
aVtell
p13
aVyou
p14
aVwhat
p15
aVwe
p16
aVdid
p17
aVin
p18
aVlake
p19
aVgeorge
p20
aV.
p21
aVget
p22
aVthis
p23
aVi
p24
aVgot
p25
aVit
p26
aVall
p27
aVon
p28
aVvideo
p29
ag21
aaa(lp30
Vgeorge
p31
a(lp32
Vthat
p33
aV's
p34
aVit
p35
ag21
aVthis
p36
aVis
p37
aVit
p38
ag21
ag24
aV'm
p39
aVdone
p40
ag21
aVthrough
p41
ag21
aVit
p42
aV's
p43
aVover
p44
ag21
ag24
aV'm
p45
aVgone
p46
ag21
aVfinished
p47
ag21
aVover
p48
ag21
ag24
aVwill
p49
aVnever
p50
aVwork
p51
aVfor
p52
aVyou
p53
aVagain
p54
ag21
aVlook
p55
aVat
p56
aVyou
p57
ag21
aVyou
p58
aVthink
p59
aVyou
p60
aV're
p61
aVan
p62
aVimportant
p63
aVman
p64
aV?
p65
aVis
p66
aVthat
p67
aVwhat
p68
aVyou
p69
aVthink
p70
ag65
aVyou
p71
aVare
p72
aVa
p73
aVlaughingstock
p74
ag21
aVyou
p75
aVare
p76
ag73
aVjoke
p77
ag21
aVthese
p78
aVpeople
p79
aVare
p80
aVlaughing
p81
aVat
p82
aVyou
p83
ag21
aVyou
p84
aV're
p85
aVnothing
p86
aV!
p87
aVyou
p88
aVhave
p89
aVno
p90
aVbrains
p91
aV,
p92
aVno
p93
aVability
p94
ag92
aVnothing
p95
ag87
ag24
aVquit
p96
ag87
aaa(lp97
Vkramer
p98
a(lp99
Vhey
p100
ag21
aaa(lp101
Vjerry
p102
a(lp103
Vhey
p104
ag21
aaa(lp105
Vkramer
p106
a(lp107
Vboy
p108
ag92
ag24
aVhave
p109
aVreally
p110
aVhad
p111
aVit
p112
aVwith
p113
aVnewman
p114
ag21
aVhe
p115
aVwakes
p116
aVme
p117
aVup
p118
aVagain
p119
aVlast
p120
aVnight
p121
aVat
p122
aVthree
p123
aVo'clock
p124
aVin
p125
aVthe
p126
aVmorning
p127
aVto
p128
aVtell
p129
aVme
p130
aVhe
p131
aV's
p132
aVgoing
p133
aVup
p134
aVonto
p135
aVthe
p136
aVroof
p137
aVto
p138
aVkill
p139
aVhimself
p140
ag21
aaa(lp141
Vjerry
p142
a(lp143
Vwell
p144
ag92
aVwhat
p145
aV'd
p146
aVyou
p147
aVsay
p148
ag65
aaa(lp149
Vkramer
p150
a(lp151
g24
aVsaid
p152
aVjump
p153
ag21
aVwell
p154
ag92
aVhe
p155
aV's
p156
aVbeen
p157
aVthreatening
p158
aVto
p159
aVdo
p160
aVthis
p161
aVfor
p162
aVyears
p163
ag21
ag24
aVsaid
p164
aVlook
p165
ag92
aVif
p166
aVyou
p167
aV're
p168
aVgon
p169
aVna
p170
aVkill
p171
aVyourself
p172
aVdo
p173
aVit
p174
aValready
p175
aVand
p176
aVstop
p177
aVbothering
p178
aVme
p179
ag21
aVat
p180
aVleast
p181
ag24
aV'd
p182
aVrespect
p183
aVthe
p184
aVguy
p185
aVfor
p186
aVaccomplishing
p187
aVsomething
p188
ag21
aaa(lp189
Vjerry
p190
a(lp191
Vwhat
p192
aV's
p193
aVhis
p194
aVproblem
p195
ag65
aaa(lp196
Vkramer
p197
a(lp198
Vno
p199
aVjob
p200
ag21
aVno
p201
aVwomen
p202
ag21
aaa(lp203
Vjerry
p204
a(lp205
Vhe
p206
aVcalled
p207
aVthe
p208
aVright
p209
aVguy
p210
ag21
aaa(lp211
Vkramer
p212
a(lp213
Vwhat
p214
aVam
p215
ag24
aVsupposed
p216
aVto
p217
aVtell
p218
aVhim
p219
ag65
aVhow
p220
aVmuch
p221
aVthere
p222
aVis
p223
aVfor
p224
aVhim
p225
aVto
p226
aVlive
p227
aVfor
p228
ag65
aVwhy
p229
aVshould
p230
ag24
aVlie
p231
aVto
p232
aVhim
p233
ag65
aaa(lp234
Vjerry
p235
a(lp236
Vall
p237
aVright
p238
ag92
ag24
aV'm
p239
aVleaving
p240
ag21
ag24
aVgoing
p241
aVto
p242
aVthe
p243
aVlaundry
p244
ag21
aaa(lp245
Vkramer
p246
a(lp247
Vwhy
p248
aVdo
p249
aVn't
p250
aVyou
p251
aVuse
p252
aVthe
p253
aVmachines
p254
aVdown
p255
aVin
p256
aVthe
p257
aVbasement
p258
ag65
aaa(lp259
Vjerry
p260
a(lp261
Vfluff
p262
aVand
p263
aVfold
p264
ag21
aVthe
p265
aVonly
p266
aVway
p267
aVto
p268
aVlive
p269
ag21
ag24
aVdrop
p270
aVit
p271
aVoff
p272
ag21
ag24
aVpick
p273
aVit
p274
aVup
p275
ag21
aVit
p276
aV's
p277
ag73
aVdelight
p278
ag21
aaa(lp279
Vkramer
p280
a(lp281
Vhow
p282
aV'bout
p283
aVif
p284
ag24
aVput
p285
ag73
aVfew
p286
aVthings
p287
aV--
p288
aaa(lp289
Vjerry
p290
a(lp291
Vwait
p292
ag73
aVsec
p293
ag21
ag24
aVdo
p294
aVn't
p295
aVwan
p296
aVna
p297
aVdo
p298
aV--
p299
aaa(lp300
Vkramer
p301
a(lp302
Vwell
p303
ag92
aVyou
p304
aV're
p305
aVgoing
p306
aVover
p307
aVthere
p308
ag21
aaa(lp309
Vjerry
p310
a(lp311
g24
aVdo
p312
aVn't
p313
aVwan
p314
aVna
p315
aVmix
p316
aVin
p317
aVeverything
p318
ag87
aVmy
p319
aVguys
p320
aVdo
p321
aVn't
p322
aVknow
p323
aVyour
p324
aVguys
p325
ag21
aVyou
p326
aVca
p327
aVn't
p328
aVjust
p329
aVlock
p330
aV'em
p331
aVall
p332
aVin
p333
aVthe
p334
aVsame
p335
aVmachine
p336
aVtogether
p337
ag21
aVthey
p338
aV'll
p339
aVstart
p340
ag73
aVriot
p341
ag21
aaa(lp342
Vkramer
p343
a(lp344
Vhave
p345
aVyou
p346
aVever
p347
aVmet
p348
aVmy
p349
aVguys
p350
ag65
aaa(lp351
Vjerry
p352
a(lp353
Vno
p354
ag21
ag24
aVca
p355
aVn't
p356
aVsay
p357
aVas
p358
ag24
aVhave
p359
ag21
aaa(lp360
Vkramer
p361
a(lp362
Vwell
p363
ag87
aaa(lp364
Vjerry
p365
a(lp366
Vall
p367
aVright
p368
ag21
aVput
p369
aV'em
p370
aVon
p371
aVtop
p372
ag21
aaa(lp373
Vkramer
p374
a(lp375
Vah
p376
ag87
aaa(lp377
Vjerry
p378
a(lp379
Voh
p380
ag92
aVbeautiful
p381
ag21
aVthis
p382
aVstuff
p383
aVon
p384
aVtop
p385
aVis
p386
aVmy
p387
aVfriends
p388
aV'
p389
ag21
aVcould
p390
ag24
aVget
p391
aVit
p392
aVdone
p393
aVin
p394
ag73
aVseparate
p395
aVmachine
p396
ag65
aaa(lp397
Vvic
p398
a(lp399
g24
aV'll
p400
aVhave
p401
aVto
p402
aVcharge
p403
aVyou
p404
aVfor
p405
aVanother
p406
aVmachine
p407
ag21
aaa(lp408
Vjerry
p409
a(lp410
Vwhatever
p411
aVit
p412
aVcosts
p413
ag21
aVin
p414
aVfact
p415
ag92
ag24
aVwould
p416
aVprefer
p417
aVit
p418
aVif
p419
aVthe
p420
aVmachines
p421
aVare
p422
aVnot
p423
aVeven
p424
aVtouching
p425
aVeach
p426
aVother
p427
ag21
aVbecause
p428
aVsomething
p429
aVcould
p430
ag92
aVyou
p431
aVknow
p432
ag92
aVjump
p433
aVacross
p434
ag21
aaa(lp435
Vgeorge
p436
a(lp437
Vguess
p438
aVwhat
p439
ag21
aaa(lp440
Vjerry
p441
a(lp442
Vhow
p443
aVdid
p444
aVyou
p445
aVknow
p446
ag24
aVwas
p447
aVhere
p448
ag65
aaa(lp449
Vgeorge
p450
a(lp451
Vkramer
p452
ag21
aVguess
p453
aVwhat
p454
ag21
aaa(lp455
Vjerry
p456
a(lp457
g24
aVdo
p458
aVn't
p459
aVknow
p460
ag21
aaa(lp461
Vgeorge
p462
a(lp463
g24
aVquit
p464
aVmy
p465
aVjob
p466
ag21
aaa(lp467
Vjerry
p468
a(lp469
Vget
p470
aVoutta
p471
aVhere
p472
ag21
aaa(lp473
Vgeorge
p474
a(lp475
g24
aVcould
p476
aVn't
p477
aVtake
p478
aVit
p479
aVanymore
p480
ag21
aaa(lp481
Vvic
p482
a(lp483
Vyou
p484
aVcan
p485
aVhave
p486
aVthis
p487
aVon
p488
aVmonday
p489
ag21
aaa(lp490
Vjerry
p491
a(lp492
Vwhat
p493
aVhappened
p494
ag65
aVlevitan
p495
ag65
aaa(lp496
Vgeorge
p497
a(lp498
g24
aVgo
p499
aVin
p500
aVto
p501
aVuse
p502
aVhis
p503
aVprivate
p504
aVbathroom
p505
ag92
aVeverybody
p506
aVuses
p507
aVit
p508
ag92
aVand
p509
aVthen
p510
ag24
aVget
p511
ag73
aVmemo
p512
aV-
p513
ag73
aVmemo
p514
ag513
aVtelling
p515
aVme
p516
aVto
p517
aVuse
p518
aVthe
p519
aVmen
p520
aV's
p521
aVroom
p522
aVin
p523
aVthe
p524
aVhall
p525
ag21
aVwell
p526
ag92
aVwe
p527
aVshare
p528
aVit
p529
aVwith
p530
aVpace
p531
aVelectronics
p532
ag21
aVit
p533
aV's
p534
aVdisgusting
p535
ag87
aaa(lp536
Vjerry
p537
a(lp538
Vyou
p539
aVand
p540
aVyour
p541
aVtoilets
p542
ag21
aaa(lp543
Vgeorge
p544
a(lp545
g24
aVsnapped
p546
ag87
aVit
p547
aVwas
p548
aVthe
p549
aVlast
p550
aVstraw
p551
ag21
aaa(lp552
Vjerry
p553
a(lp554
Vso
p555
ag92
aVwhat
p556
aVare
p557
aVyou
p558
aVgon
p559
aVna
p560
aVdo
p561
aVnow
p562
ag65
aVare
p563
aVyou
p564
aVgon
p565
aVna
p566
aVlook
p567
aVfor
p568
aVsomething
p569
aVelse
p570
aVin
p571
aVreal
p572
aVestate
p573
ag65
aaa(lp574
Vgeorge
p575
a(lp576
Vnobody
p577
aV's
p578
aVhiring
p579
aVnow
p580
ag21
aVthe
p581
aVmarket
p582
aV's
p583
aVterrible
p584
ag21
aaa(lp585
Vjerry
p586
a(lp587
Vso
p588
aVwhat
p589
aVare
p590
aVyou
p591
aVgon
p592
aVna
p593
aVdo
p594
ag65
aaa(lp595
Vgeorge
p596
a(lp597
g24
aVlike
p598
aVsports
p599
ag21
ag24
aVcould
p600
aVdo
p601
aVsomething
p602
aVin
p603
aVsports
p604
ag21
aaa(lp605
Vjerry
p606
a(lp607
Vuh-huh
p608
ag21
aVuh-huh
p609
ag21
aVin
p610
aVwhat
p611
aVcapacity
p612
ag65
aaa(lp613
Vgeorge
p614
a(lp615
Vyou
p616
aVknow
p617
ag92
aVlike
p618
aVthe
p619
aVgeneral
p620
aVmanager
p621
aVof
p622
ag73
aVbaseball
p623
aVteam
p624
aVor
p625
aVsomething
p626
ag21
aaa(lp627
Vjerry
p628
a(lp629
Vyeah
p630
ag21
aVwell
p631
ag92
aVthat
p632
ag513
aVthat
p633
aVcould
p634
aVbe
p635
aVtough
p636
aVto
p637
aVget
p638
ag21
aaa(lp639
Vgeorge
p640
a(lp641
Vwell
p642
ag92
aVit
p643
aVdoes
p644
aVn't
p645
aVeven
p646
aVhave
p647
aVto
p648
aVbe
p649
aVthe
p650
aVgeneral
p651
aVmanager
p652
ag21
aVmaybe
p653
ag24
aVcould
p654
aVbe
p655
aVlike
p656
ag92
aVan
p657
aVannouncer
p658
ag21
aVlike
p659
ag73
aVcaller
p660
aVman
p661
ag21
aVyou
p662
aVknow
p663
aVhow
p664
ag24
aValways
p665
aVmake
p666
aVthose
p667
aVinteresting
p668
aVcomments
p669
aVduring
p670
aVthe
p671
aVgame
p672
ag21
aaa(lp673
Vjerry
p674
a(lp675
Vyeah
p676
ag21
aVyeah
p677
ag21
aVyou
p678
aVmake
p679
aVgood
p680
aVcomments
p681
ag21
aaa(lp682
Vgeorge
p683
a(lp684
Vwhat
p685
aVabout
p686
aVthat
p687
ag65
aaa(lp688
Vjerry
p689
a(lp690
Vwell
p691
ag92
aVthey
p692
aVtend
p693
aVto
p694
aVgive
p695
aVthose
p696
aVjobs
p697
aVto
p698
aVex-ballplayers
p699
aVand
p700
aVpeople
p701
aVthat
p702
aVare
p703
ag92
aVyou
p704
aVknow
p705
ag92
aVin
p706
aVbroadcasting
p707
ag21
aaa(lp708
Vgeorge
p709
a(lp710
Vwell
p711
ag92
aVthat
p712
aV's
p713
aVreally
p714
aVnot
p715
aVfair
p716
ag21
aaa(lp717
Vjerry
p718
a(lp719
g24
aVknow
p720
ag21
aVwell
p721
ag92
aVokay
p722
ag21
aVokay
p723
ag21
aVwhat
p724
aVelse
p725
aVdo
p726
aVya
p727
aVlike
p728
ag65
aaa(lp729
Vgeorge
p730
a(lp731
Vmovies
p732
ag21
ag24
aVlike
p733
aVto
p734
aVwatch
p735
aVmovies
p736
ag21
aaa(lp737
Vjerry
p738
a(lp739
Vyeah
p740
ag21
aVyeah
p741
ag21
aaa(lp742
Vgeorge
p743
a(lp744
Vdo
p745
aVthey
p746
aVpay
p747
aVpeople
p748
aVto
p749
aVwatch
p750
aVmovies
p751
ag65
aaa(lp752
Vjerry
p753
a(lp754
Vprojectionists
p755
ag21
aaa(lp756
Vgeorge
p757
a(lp758
Vthat
p759
aV's
p760
aVtrue
p761
ag21
aaa(lp762
Vjerry
p763
a(lp764
Vbut
p765
aVyou
p766
aVgot
p767
aVta
p768
aVknow
p769
aVhow
p770
aVto
p771
aVwork
p772
aVthe
p773
aVprojector
p774
ag21
aaa(lp775
Vgeorge
p776
a(lp777
Vright
p778
ag21
aaa(lp779
Vjerry
p780
a(lp781
Vand
p782
aVit
p783
aV's
p784
aVprobably
p785
ag73
aVunion
p786
aVthing
p787
ag21
aaa(lp788
Vgeorge
p789
a(lp790
Vthose
p791
aVunions
p792
ag21
aVokay
p793
ag21
aVsports
p794
ag92
aVmovies
p795
ag21
aVwhat
p796
aVabout
p797
ag73
aVtalk
p798
aVshow
p799
aVhost
p800
ag65
aaa(lp801
Vjerry
p802
a(lp803
Vtalk
p804
aVshow
p805
aVhost
p806
ag21
aVthat
p807
aV's
p808
aVgood
p809
ag21
aaa(lp810
Vgeorge
p811
a(lp812
g24
aVthink
p813
ag24
aV'd
p814
aVbe
p815
aVgood
p816
aVat
p817
aVthat
p818
ag21
ag24
aVtalk
p819
aVto
p820
aVpeople
p821
aVall
p822
aVthe
p823
aVtime
p824
ag21
aVsomeone
p825
aVeven
p826
aVtold
p827
aVme
p828
aVonce
p829
aVthey
p830
aVthought
p831
ag24
aV'd
p832
aVbe
p833
ag73
aVgood
p834
aVtalk
p835
aVshow
p836
aVhost
p837
ag21
aaa(lp838
Vjerry
p839
a(lp840
Vreally
p841
ag65
aaa(lp842
Vgeorge
p843
a(lp844
Vyeah
p845
ag21
ag73
aVcouple
p846
aVof
p847
aVpeople
p848
ag21
ag24
aVdo
p849
aVn't
p850
aVget
p851
aVthat
p852
ag92
aVthough
p853
ag21
aVwhere
p854
aVdo
p855
aVyou
p856
aVstart
p857
ag65
aaa(lp858
Vjerry
p859
a(lp860
Vwell
p861
ag92
aVthat
p862
aV's
p863
aVwhere
p864
aVit
p865
aVgets
p866
aVtricky
p867
ag21
aaa(lp868
Vgeorge
p869
a(lp870
Vyou
p871
aVca
p872
aVn't
p873
aVjust
p874
aVwalk
p875
aVinto
p876
ag73
aVbuilding
p877
aVand
p878
aVsay
p879
ag24
aVwan
p880
aVna
p881
aVbe
p882
ag73
aVtalk
p883
aVshow
p884
aVhost
p885
ag21
aaa(lp886
Vjerry
p887
a(lp888
g24
aVwould
p889
aVn't
p890
aVthink
p891
aVso
p892
ag21
aaa(lp893
Vgeorge
p894
a(lp895
Vit
p896
aV's
p897
aVall
p898
aVpolitics
p899
ag21
aaa(lp900
Vjerry
p901
a(lp902
Vall
p903
aVright
p904
ag21
aVokay
p905
ag21
aVsports
p906
ag92
aVmovies
p907
ag92
aVtalk
p908
aVshow
p909
aVhost
p910
ag21
aVwhat
p911
aVelse
p912
ag65
aaa(lp913
Vgeorge
p914
a(lp915
Vthis
p916
aVcould
p917
aVhave
p918
aVbeen
p919
ag73
aVhuge
p920
aVmistake
p921
ag21
aaa(lp922
Vjerry
p923
a(lp924
Vwell
p925
ag92
aVit
p926
aVdoes
p927
aVn't
p928
aVsound
p929
aVlike
p930
aVyou
p931
aVcompletely
p932
aVthought
p933
aVthis
p934
aVthrough
p935
ag21
aaa(lp936
Vgeorge
p937
a(lp938
Vwhat
p939
aVshould
p940
ag24
aVdo
p941
ag65
aaa(lp942
Vjerry
p943
a(lp944
Vmaybe
p945
aVyou
p946
aVcan
p947
aVjust
p948
aVgo
p949
aVback
p950
ag21
aaa(lp951
Vgeorge
p952
a(lp953
Vgo
p954
aVback
p955
ag65
aaa(lp956
Vjerry
p957
a(lp958
Vyeah
p959
ag21
aVpretend
p960
aVlike
p961
aVit
p962
aVnever
p963
aVhappened
p964
ag21
aaa(lp965
Vgeorge
p966
a(lp967
Vyou
p968
aVmean
p969
aVjust
p970
aVwalk
p971
aVinto
p972
aVthe
p973
aVstaff
p974
aVmeeting
p975
aVon
p976
aVmonday
p977
aVmorning
p978
aVlike
p979
aVit
p980
aVnever
p981
aVhappened
p982
ag65
aaa(lp983
Vjerry
p984
a(lp985
Vsure
p986
ag21
aVyou
p987
aV're
p988
aVan
p989
aVemotional
p990
aVperson
p991
ag21
aVpeople
p992
aVdo
p993
aVn't
p994
aVtake
p995
aVyou
p996
aVseriously
p997
ag21
aaa(lp998
Vgeorge
p999
a(lp1000
Vjust
p1001
aVgo
p1002
aVback
p1003
ag21
aVpretend
p1004
aVthe
p1005
aVwhole
p1006
aVthing
p1007
aVnever
p1008
aVhappened
p1009
ag21
aaa(lp1010
Vjerry
p1011
a(lp1012
Vnever
p1013
aVhappened
p1014
ag21
aaa(lp1015
Vgeorge
p1016
a(lp1017
g24
aVwas
p1018
aVjust
p1019
aVblowin
p1020
ag389
aVoff
p1021
ag73
aVlittle
p1022
aVsteam
p1023
ag21
aVso
p1024
aVwhat
p1025
ag65
aaa(lp1026
Vjerry
p1027
a(lp1028
Vso
p1029
aVwhat
p1030
ag65
aVyou
p1031
aV're
p1032
aVentitled
p1033
ag21
aaa(lp1034
Vgeorge
p1035
a(lp1036
g24
aV'm
p1037
aVemotional
p1038
ag21
aaa(lp1039
Vjerry
p1040
a(lp1041
Vthat
p1042
aV's
p1043
aVright
p1044
ag21
aVyou
p1045
aV're
p1046
aVemotional
p1047
ag21
aaa(lp1048
Vgeorge
p1049
a(lp1050
Vnever
p1051
aVhappened
p1052
ag21
aaa(lp1053
Vjerry
p1054
a(lp1055
Vnever
p1056
aVhappened
p1057
ag21
aaa(lp1058
Vgeorge
p1059
a(lp1060
Vhow
p1061
aVya
p1062
aVdoin
p1063
ag389
ag65
aaa(lp1064
Vglenda
p1065
a(lp1066
Vwhat
p1067
aVare
p1068
aVyou
p1069
aVdoing
p1070
aVhere
p1071
ag65
aaa(lp1072
Vgeorge
p1073
a(lp1074
Vwhat
p1075
ag65
ag24
aVwork
p1076
aVhere
p1077
ag21
aaa(lp1078
Vglenda
p1079
a(lp1080
g24
aVthought
p1081
aVyou
p1082
aVquit
p1083
ag21
aaa(lp1084
Vgeorge
p1085
a(lp1086
Vwhat
p1087
aVquit
p1088
ag65
aVwho
p1089
aVquit
p1090
ag65
aaa(lp1091
Vdan
p1092
a(lp1093
Vbill
p1094
ag92
aVhow
p1095
aVwas
p1096
aVyour
p1097
aVweekend
p1098
ag65
aaa(lp1099
Vbill
p1100
a(lp1101
Voh
p1102
ag92
aVexcellent
p1103
aVweekend
p1104
ag21
aVwhat
p1105
aVabout
p1106
aVyour
p1107
aVweekend
p1108
ag65
aaa(lp1109
Vdan
p1110
a(lp1111
Vfine
p1112
aVweekend
p1113
ag21
aaa(lp1114
Vgeorge
p1115
a(lp1116
Vyeah
p1117
ag21
aVgood
p1118
aVweekend
p1119
ag21
aaa(lp1120
Vdan
p1121
a(lp1122
Vwent
p1123
aVup
p1124
aVto
p1125
aVthe
p1126
aVcape
p1127
ag21
aVtook
p1128
aVthe
p1129
aVkids
p1130
aVsailing
p1131
ag21
aVlisa
p1132
aVwas
p1133
ag73
aVlittle
p1134
aVscared
p1135
aVat
p1136
aVfirst
p1137
ag92
aVbut
p1138
aVthat
p1139
aVkids
p1140
ag389
aVgon
p1141
aVna
p1142
aVbe
p1143
ag73
aVgood
p1144
aVsailor
p1145
aVsomeday
p1146
ag21
aaa(lp1147
Vgeorge
p1148
a(lp1149
Vaw
p1150
ag92
aVshe
p1151
aV's
p1152
aVgon
p1153
aVna
p1154
aVbe
p1155
ag73
aVfine
p1156
aVsailor
p1157
ag21
aaa(lp1158
Vlevitan
p1159
a(lp1160
Vava
p1161
ag92
aVwhat
p1162
aVhappened
p1163
aVto
p1164
aVyou
p1165
aVfriday
p1166
aVafternoon
p1167
ag65
aaa(lp1168
Vava
p1169
a(lp1170
g24
aVgot
p1171
ag73
aVlittle
p1172
aVtied
p1173
aVup
p1174
ag21
aaa(lp1175
Vlevitan
p1176
a(lp1177
g24
aV'll
p1178
aVbet
p1179
aVyou
p1180
aVdid
p1181
ag21
aaa(lp1182
Vlevitan
p1183
a(lp1184
g24
aVwan
p1185
aVna
p1186
aVremind
p1187
aVeveryone
p1188
aVthat
p1189
aVthe
p1190
aVtenth
p1191
aVanniversary
p1192
aVparty
p1193
aVfor
p1194
aVrick
p1195
aVbarr
p1196
aVproperties
p1197
aVis
p1198
aVgon
p1199
aVna
p1200
aVbe
p1201
aVwednesday
p1202
aVafternoon
p1203
aVat
p1204
aVfour
p1205
aVo'clock
p1206
aVin
p1207
aVlasky
p1208
aV's
p1209
aVbar
p1210
ag92
aVmadison
p1211
aV48th
p1212
ag21
ag24
aVwant
p1213
aVall
p1214
aVof
p1215
aVyou
p1216
aVto
p1217
aVbe
p1218
aVthere
p1219
ag21
aVthis
p1220
aVreally
p1221
aVmeans
p1222
ag73
aVlot
p1223
aVto
p1224
aVme
p1225
ag21
aVis
p1226
aVthat
p1227
aVcostanza
p1228
aVover
p1229
aVthere
p1230
ag65
aVwhat
p1231
aVare
p1232
aVyou
p1233
aVdoing
p1234
aVhere
p1235
ag65
aaa(lp1236
Vgeorge
p1237
a(lp1238
Vwhat
p1239
ag65
aaa(lp1240
Vlevitan
p1241
a(lp1242
Vam
p1243
ag24
aVcrazy
p1244
ag92
aVor
p1245
aVdid
p1246
aVn't
p1247
aVyou
p1248
aVquit
p1249
ag65
aaa(lp1250
Vgeorge
p1251
a(lp1252
Vwhen
p1253
ag65
aaa(lp1254
Vlevitan
p1255
a(lp1256
Vfriday
p1257
ag21
aaa(lp1258
Vgeorge
p1259
a(lp1260
Voh
p1261
ag92
aVwhat
p1262
ag65
aVwhat
p1263
ag65
aVthat
p1264
ag65
aVare
p1265
aVyou
p1266
aVkidding
p1267
ag65
ag24
aVdid
p1268
aVn't
p1269
aVquit
p1270
ag21
aVwhat
p1271
ag65
aVyou
p1272
aVtook
p1273
aVthat
p1274
aVseriously
p1275
ag65
aaa(lp1276
Vlevitan
p1277
a(lp1278
Vyou
p1279
aVmean
p1280
ag92
aVlaughingstock
p1281
ag65
aVall
p1282
aVthat
p1283
aVstuff
p1284
ag65
aaa(lp1285
Vgeorge
p1286
a(lp1287
Vcome
p1288
aVon
p1289
ag21
aVwill
p1290
aVyou
p1291
aVstop
p1292
aVit
p1293
ag21
aaa(lp1294
Vlevitan
p1295
a(lp1296
Vno
p1297
aVbrains
p1298
ag65
aVno
p1299
aVability
p1300
ag65
aaa(lp1301
Vgeorge
p1302
a(lp1303
Vteasing
p1304
ag21
aaa(lp1305
Vlevitan
p1306
a(lp1307
Vokay
p1308
ag21
ag24
aVwant
p1309
aVyou
p1310
aVoutta
p1311
aVhere
p1312
ag21
aaa(lp1313
Vgeorge
p1314
a(lp1315
g24
aVdo
p1316
aVn't
p1317
aVknow
p1318
aVwhere
p1319
aVyou
p1320
aV're
p1321
aVgetting
p1322
aVthis
p1323
aVfrom
p1324
ag21
ag24
aVyou
p1325
aV're
p1326
aVserious
p1327
aVare
p1328
aVn't
p1329
aVyou
p1330
ag65
aVoh
p1331
ag92
aVyou
p1332
aVsee
p1333
ag65
aaa(lp1334
Vlevitan
p1335
a(lp1336
Vyou
p1337
aVca
p1338
aVn't
p1339
aVwin
p1340
ag21
aVyou
p1341
aVca
p1342
aVn't
p1343
aVbeat
p1344
aVme
p1345
ag21
aVthat
p1346
aV's
p1347
aVwhy
p1348
ag24
aV'm
p1349
aVhere
p1350
aVand
p1351
aVyou
p1352
aV're
p1353
aVthere
p1354
ag21
aVbecause
p1355
ag24
aV'm
p1356
ag73
aVwinner
p1357
ag21
ag24
aV'll
p1358
aValways
p1359
aVbe
p1360
ag73
aVwinner
p1361
aVand
p1362
aVyou
p1363
aV'll
p1364
aValways
p1365
aVbe
p1366
ag73
aVloser
p1367
ag21
aaa(lp1368
Vgeorge
p1369
a(lp1370
g24
aV'll
p1371
aValways
p1372
aVbe
p1373
ag73
aVwinner
p1374
aVand
p1375
aVyou
p1376
aV'll
p1377
aValways
p1378
aVbe
p1379
ag73
aVloser
p1380
ag21
aVthis
p1381
aVis
p1382
aVwhat
p1383
aVhe
p1384
aVsaid
p1385
aVto
p1386
aVme
p1387
ag21
aaa(lp1388
Vjerry
p1389
a(lp1390
Vwell
p1391
ag92
aVso
p1392
aVthat
p1393
aV's
p1394
aVthat
p1395
ag21
aaa(lp1396
Vgeorge
p1397
a(lp1398
Vno
p1399
ag21
aVthat
p1400
aV's
p1401
aVnot
p1402
aVthat
p1403
ag21
aaa(lp1404
Vjerry
p1405
a(lp1406
Vthat
p1407
aV's
p1408
aVnot
p1409
aVthat
p1410
ag65
aaa(lp1411
Vgeorge
p1412
a(lp1413
Vno
p1414
ag21
aaa(lp1415
Vjerry
p1416
a(lp1417
Vwell
p1418
ag92
aVif
p1419
aVthat
p1420
aV's
p1421
aVnot
p1422
aVthat
p1423
ag92
aVwhat
p1424
aVis
p1425
aVthat
p1426
ag65
aaa(lp1427
Vgeorge
p1428
a(lp1429
g24
aV've
p1430
aVgot
p1431
aVsome
p1432
aVplans
p1433
ag21
ag24
aVgot
p1434
aVplans
p1435
ag21
aaa(lp1436
Vjerry
p1437
a(lp1438
Vwhat
p1439
aVkind
p1440
aVof
p1441
aVplans
p1442
ag65
aaa(lp1443
Vgeorge
p1444
a(lp1445
Vwhat
p1446
aV's
p1447
aVthe
p1448
aVdifference
p1449
ag65
aaa(lp1450
Vjerry
p1451
a(lp1452
Vyou
p1453
aVdo
p1454
aVn't
p1455
aVwan
p1456
aVna
p1457
aVtell
p1458
aVme
p1459
ag65
aaa(lp1460
Vgeorge
p1461
a(lp1462
g24
aV'm
p1463
aVgon
p1464
aVna
p1465
aVslip
p1466
aVhim
p1467
ag73
aVmickey
p1468
ag21
aaa(lp1469
Vjerry
p1470
a(lp1471
Vwhat
p1472
ag65
aVin
p1473
aVhis
p1474
aVdrink
p1475
ag65
aVare
p1476
aVyou
p1477
aVoutta
p1478
aVyour
p1479
aVmind
p1480
ag65
aVwhat
p1481
ag65
aVare
p1482
aVyou
p1483
aVpeter
p1484
aVlorre
p1485
ag65
aaa(lp1486
Vgeorge
p1487
a(lp1488
Vyou
p1489
aVdo
p1490
aVn't
p1491
aVunderstand
p1492
ag21
aVhe
p1493
aV's
p1494
aVgot
p1495
aVthis
p1496
aVbig
p1497
aVparty
p1498
aVcoming
p1499
aVup
p1500
ag21
aVhe
p1501
aV's
p1502
aVbeen
p1503
aVlooking
p1504
aVforward
p1505
aVto
p1506
aVthis
p1507
aVfor
p1508
aVmonths
p1509
ag21
aVthis
p1510
aVis
p1511
aVgon
p1512
aVna
p1513
aVdestroy
p1514
aVthe
p1515
aVwhole
p1516
aVthing
p1517
ag21
aaa(lp1518
Vjerry
p1519
a(lp1520
Vwhat
p1521
aVif
p1522
aVyou
p1523
aVdestroy
p1524
aVhim
p1525
ag65
aaa(lp1526
Vgeorge
p1527
a(lp1528
Vno
p1529
ag21
aVno
p1530
ag21
aVno
p1531
ag21
aVno
p1532
ag21
aVno
p1533
ag21
aVdo
p1534
aVn't
p1535
aVworry
p1536
ag21
aVit
p1537
aV's
p1538
aVperfectly
p1539
aVsafe
p1540
ag21
ag24
aVresearched
p1541
aVit
p1542
ag21
aVhe
p1543
aV'll
p1544
aVget
p1545
ag73
aVlittle
p1546
aVwoozy
p1547
ag21
aVhe
p1548
aVmight
p1549
aVkeel
p1550
aVover
p1551
ag21
aaa(lp1552
Vjerry
p1553
a(lp1554
Vwell
p1555
ag92
aVwha
p1556
ag513
aVwhat
p1557
aVdoes
p1558
aVthat
p1559
aVdo
p1560
ag65
aVbig
p1561
aVdeal
p1562
ag21
aaa(lp1563
Vgeorge
p1564
a(lp1565
Vthis
p1566
aVis
p1567
aVwhat
p1568
aVthey
p1569
aVwould
p1570
aVdo
p1571
aVin
p1572
aVthe
p1573
aVmovies
p1574
ag87
aVit
p1575
aV's
p1576
ag73
aVbeautiful
p1577
aVthing
p1578
ag87
aVit
p1579
aV's
p1580
aVlike
p1581
ag73
aVmovie
p1582
ag87
ag24
aV'm
p1583
aVgon
p1584
aVna
p1585
aVslip
p1586
aVhim
p1587
ag73
aVmickey
p1588
ag87
aaa(lp1589
Vjerry
p1590
a(lp1591
Vyou
p1592
aV've
p1593
aVreally
p1594
aVgone
p1595
aVmental
p1596
ag21
aaa(lp1597
Vgeorge
p1598
a(lp1599
Vnah
p1600
ag21
aaa(lp1601
Vjerry
p1602
a(lp1603
Vwhere
p1604
aVare
p1605
aVyou
p1606
aVgon
p1607
aVna
p1608
aVget
p1609
aVthis
p1610
aVmickey
p1611
ag65
ag24
aVca
p1612
aVn't
p1613
aVbelieve
p1614
ag24
aV'm
p1615
aVsaying
p1616
aVmickey
p1617
ag87
aaa(lp1618
Vgeorge
p1619
a(lp1620
g24
aVgot
p1621
ag73
aVsauce
p1622
ag21
aaa(lp1623
Vjerry
p1624
a(lp1625
Vyou
p1626
aVgot
p1627
ag73
aVmickey
p1628
aVsauce
p1629
ag65
aaa(lp1630
Vgeorge
p1631
a(lp1632
Vand
p1633
aVelaine
p1634
aVis
p1635
aVgon
p1636
aVna
p1637
aVkeep
p1638
aVhim
p1639
aVbusy
p1640
ag21
aaa(lp1641
Vjerry
p1642
a(lp1643
Velaine
p1644
ag65
aVhow
p1645
aVdid
p1646
aVyou
p1647
aVrope
p1648
aVher
p1649
aVinto
p1650
aVthis
p1651
ag65
aaa(lp1652
Vgeorge
p1653
a(lp1654
g24
aVtold
p1655
aVher
p1656
aVwhat
p1657
ag73
aVsexist
p1658
aVhe
p1659
aVis
p1660
ag21
aVhow
p1661
aVhe
p1662
aVcheats
p1663
aVon
p1664
aVhis
p1665
aVwife
p1666
ag21
aaa(lp1667
Vjerry
p1668
a(lp1669
Vshe
p1670
aVknew
p1671
aVthat
p1672
ag21
aaa(lp1673
Vgeorge
p1674
a(lp1675
Vbut
p1676
aVshe
p1677
aVdid
p1678
aVn't
p1679
aVknow
p1680
aVhe
p1681
aVdoes
p1682
aVn't
p1683
aVrecycle
p1684
ag21
aaa(lp1685
Vjerry
p1686
a(lp1687
Vwhat
p1688
aVis
p1689
aVthe
p1690
aVpoint
p1691
aVof
p1692
aVall
p1693
aVthis
p1694
ag65
aaa(lp1695
Vgeorge
p1696
a(lp1697
Vrevenge
p1698
ag21
aaa(lp1699
Vjerry
p1700
a(lp1701
Voh
p1702
ag92
aVthe
p1703
aVbest
p1704
aVrevenge
p1705
aVis
p1706
aVliving
p1707
aVwell
p1708
ag21
aaa(lp1709
Vgeorge
p1710
a(lp1711
Vthere
p1712
aV's
p1713
aVno
p1714
aVchance
p1715
aVof
p1716
aVthat
p1717
ag21
aaa(lp1718
Vjerry
p1719
a(lp1720
Vdid
p1721
aVyou
p1722
aVget
p1723
aVyour
p1724
aVlaundry
p1725
ag65
aaa(lp1726
Vkramer
p1727
a(lp1728
Vyeah
p1729
ag21
aaa(lp1730
Vjerry
p1731
a(lp1732
Vwhat
p1733
aV's
p1734
aVwith
p1735
aVyou
p1736
ag65
aaa(lp1737
Vkramer
p1738
a(lp1739
Vhe
p1740
aVjumped
p1741
ag21
aaa(lp1742
Vjerry
p1743
a(lp1744
Vwhat
p1745
ag65
aaa(lp1746
Vkramer
p1747
a(lp1748
Vyeah
p1749
ag21
aVnewman
p1750
aVjumped
p1751
ag21
aaa(lp1752
Vjerry
p1753
a(lp1754
Vdid
p1755
aVhe
p1756
aVcall
p1757
aVyou
p1758
aVlast
p1759
aVnight
p1760
ag65
aaa(lp1761
Vkramer
p1762
a(lp1763
Voh
p1764
ag92
aVyeah
p1765
ag21
aVyeah
p1766
ag21
aVyeah
p1767
ag21
aVyeah
p1768
ag21
aVyeah
p1769
ag21
aVyeah
p1770
ag21
aaa(lp1771
Vjerry
p1772
a(lp1773
Vwhat
p1774
aVdid
p1775
aVyou
p1776
aVsay
p1777
ag65
aaa(lp1778
Vkramer
p1779
a(lp1780
g24
aVsaid
p1781
aVwave
p1782
aVto
p1783
aVme
p1784
aVwhen
p1785
aVyou
p1786
aVpass
p1787
aVmy
p1788
aVwindow
p1789
ag21
aaa(lp1790
Vjerry
p1791
a(lp1792
Vwhew
p1793
ag21
aVdid
p1794
aVhe
p1795
aVwave
p1796
ag65
aaa(lp1797
Vkramer
p1798
a(lp1799
Vno
p1800
ag87
aVhe
p1801
aVjumped
p1802
aVfrom
p1803
aVthe
p1804
aVsecond
p1805
aVfloor
p1806
ag21
aVmr.
p1807
aVpapanickolous
p1808
aVsaw
p1809
aVhim
p1810
aVfrom
p1811
aVacross
p1812
aVthe
p1813
aVstreet
p1814
ag21
aVhe
p1815
aV's
p1816
aVlying
p1817
aVout
p1818
aVthere
p1819
aVfaking
p1820
ag21
aVsee
p1821
ag92
aVhe
p1822
aV's
p1823
aVtrying
p1824
aVto
p1825
aVget
p1826
aVback
p1827
aVat
p1828
aVme
p1829
ag21
aaa(lp1830
Vjerry
p1831
a(lp1832
Voh
p1833
ag92
aVmy
p1834
aVgod
p1835
ag87
aaa(lp1836
Vkramer
p1837
a(lp1838
Vwhat
p1839
aV's
p1840
aVthe
p1841
aVmatter
p1842
ag65
aaa(lp1843
Vjerry
p1844
a(lp1845
Vwell
p1846
ag92
aVon
p1847
aVthursday
p1848
aVwhen
p1849
ag24
aVcame
p1850
aVhome
p1851
ag24
aVhad
p1852
aV$
p1853
aV1500
p1854
aVon
p1855
aVme
p1856
ag21
aVfor
p1857
aVsome
p1858
aVreason
p1859
ag24
aVdecided
p1860
aVto
p1861
aVhide
p1862
aVit
p1863
aVin
p1864
aVmy
p1865
aVlaundry
p1866
aVbag
p1867
aVand
p1868
aVthen
p1869
ag24
aVcompletely
p1870
aVforgot
p1871
aVabout
p1872
aVit
p1873
aVand
p1874
aVthen
p1875
ag24
aVtook
p1876
aVthe
p1877
aVlaundry
p1878
aVin
p1879
aVon
p1880
aVfriday
p1881
ag87
aVoh
p1882
ag92
aVcome
p1883
aVon
p1884
ag92
aVlet
p1885
aV's
p1886
aVgo
p1887
ag21
aaa(lp1888
Vkramer
p1889
a(lp1890
Vwhere
p1891
ag65
aVwhere
p1892
ag65
aaa(lp1893
Vjerry
p1894
a(lp1895
Vto
p1896
aVthe
p1897
aVlaundromat
p1898
ag21
aaa(lp1899
Vvic
p1900
a(lp1901
g24
aVnever
p1902
aVsaw
p1903
aVit
p1904
ag21
aaa(lp1905
Vkramer
p1906
a(lp1907
Vokay
p1908
ag21
aVcome
p1909
aVon
p1910
ag21
aVgive
p1911
aVthe
p1912
aVguy
p1913
aVhis
p1914
aVmoney
p1915
ag21
aVwhat
p1916
aV--
p1917
aVwhat
p1918
aVare
p1919
aVyou
p1920
aVdoing
p1921
ag65
aaa(lp1922
Vvic
p1923
a(lp1924
Vhey
p1925
ag92
aVyou
p1926
aVsee
p1927
aVthat
p1928
aVsign
p1929
aVright
p1930
aVthere
p1931
ag65
aaa(lp1932
Vjerry
p1933
a(lp1934
Voh
p1935
ag92
ag24
aVsee
p1936
ag21
aVso
p1937
ag92
aVyou
p1938
aVput
p1939
aVup
p1940
ag73
aVsign
p1941
aVso
p1942
aVyou
p1943
aVcan
p1944
aVdo
p1945
aVwhatever
p1946
aVyou
p1947
aVwant
p1948
ag65
aaa(lp1949
Vvic
p1950
a(lp1951
g24
aV'm
p1952
aVnot
p1953
aVresponsible
p1954
ag21
aaa(lp1955
Vjerry
p1956
a(lp1957
Vso
p1958
ag92
aVanybody
p1959
aVleaves
p1960
aVanything
p1961
aVhere
p1962
ag92
aVyou
p1963
aVcan
p1964
aVjust
p1965
aVtake
p1966
aVit
p1967
ag65
aVyou
p1968
aVhave
p1969
ag73
aVlicense
p1970
aVto
p1971
aVsteal
p1972
ag65
aVyou
p1973
aVare
p1974
aVlike
p1975
aVthe
p1976
aVjames
p1977
aVbond
p1978
aVof
p1979
aVlaundry
p1980
ag65
aaa(lp1981
Vvic
p1982
a(lp1983
Vyou
p1984
aVever
p1985
aVhear
p1986
aVof
p1987
ag73
aVbank
p1988
ag65
aaa(lp1989
Vjerry
p1990
a(lp1991
Vcome
p1992
aVon
p1993
ag21
aVlet
p1994
aV's
p1995
aVgo
p1996
ag21
aaa(lp1997
Vkramer
p1998
a(lp1999
Vno
p2000
ag21
aVyou
p2001
aVca
p2002
aVn't
p2003
aVlet
p2004
aVhim
p2005
aVget
p2006
aVaway
p2007
aVwith
p2008
aVthis
p2009
ag21
aaa(lp2010
Velaine
p2011
a(lp2012
Vwhich
p2013
aVone
p2014
aVis
p2015
aVhe
p2016
ag65
aaa(lp2017
Vgeorge
p2018
a(lp2019
Vthat
p2020
aV's
p2021
aVhim
p2022
aVover
p2023
aVthere
p2024
ag21
aVthe
p2025
aVone
p2026
aVthat
p2027
aVlooks
p2028
aVlike
p2029
ag73
aVblowfish
p2030
ag21
aaa(lp2031
Velaine
p2032
a(lp2033
Voh
p2034
ag92
aVyeah
p2035
ag21
ag24
aVsee
p2036
aVhim
p2037
ag21
aaa(lp2038
Vgeorge
p2039
a(lp2040
Vyeah
p2041
ag21
aVhey
p2042
ag92
aVthanks
p2043
aVfor
p2044
aVdoing
p2045
aVthis
p2046
ag21
aaa(lp2047
Velaine
p2048
a(lp2049
Vwhy
p2050
aVpass
p2051
aVup
p2052
aVthe
p2053
aVopportunity
p2054
aVto
p2055
aVgo
p2056
aVto
p2057
aVprison
p2058
ag65
aaa(lp2059
Vgeorge
p2060
a(lp2061
Vthis
p2062
aVis
p2063
aVby
p2064
aVfar
p2065
aVthe
p2066
aVmost
p2067
aVexciting
p2068
aVthing
p2069
ag24
aV've
p2070
aVever
p2071
aVdone
p2072
ag21
aaa(lp2073
Velaine
p2074
a(lp2075
Vyeah
p2076
ag21
aVit
p2077
aVis
p2078
aVkind
p2079
aVof
p2080
aVcool
p2081
ag21
aaa(lp2082
Vgeorge
p2083
a(lp2084
Vfirst
p2085
aVtime
p2086
aVin
p2087
aVmy
p2088
aVlife
p2089
ag24
aV've
p2090
aVever
p2091
aVgotten
p2092
aVback
p2093
aVat
p2094
aVsomeone
p2095
ag21
aaa(lp2096
Velaine
p2097
a(lp2098
g24
aVca
p2099
aVn't
p2100
aVbelieve
p2101
aVwe
p2102
aV're
p2103
aVdoing
p2104
aVthis
p2105
ag21
aVthis
p2106
aVis
p2107
aVthe
p2108
aVkind
p2109
aVof
p2110
aVthing
p2111
aVthey
p2112
aVdo
p2113
aVin
p2114
aVthe
p2115
aVmovies
p2116
ag21
aaa(lp2117
Vgeorge
p2118
a(lp2119
Vthat
p2120
aV's
p2121
aVexactly
p2122
aVwhat
p2123
ag24
aVtold
p2124
aVjerry
p2125
ag87
aaa(lp2126
Velaine
p2127
a(lp2128
Vreally
p2129
ag65
aaa(lp2130
Vgeorge
p2131
a(lp2132
Vyes
p2133
ag87
aaa(lp2134
Vgeorge
p2135
a(lp2136
Vgod
p2137
ag92
ag24
aV've
p2138
aVnever
p2139
aVfelt
p2140
aVso
p2141
aValive
p2142
ag87
aaa(lp2143
Vjerry
p2144
a(lp2145
Vmaybe
p2146
aVwe
p2147
aVshould
p2148
aVcall
p2149
aVthis
p2150
aVoff
p2151
ag21
aaa(lp2152
Vkramer
p2153
a(lp2154
Vcome
p2155
aVon
p2156
ag21
aVwhat
p2157
aV's
p2158
aVthe
p2159
aVbig
p2160
aVdeal
p2161
ag65
aVjust
p2162
aVgon
p2163
aVna
p2164
aVput
p2165
ag73
aVlittle
p2166
aVconcrete
p2167
aVin
p2168
aVthe
p2169
aVwashing
p2170
aVmachine
p2171
ag21
aaa(lp2172
Vjerry
p2173
a(lp2174
Vand
p2175
aVwhat
p2176
aV's
p2177
aVgon
p2178
aVna
p2179
aVhappen
p2180
ag65
aaa(lp2181
Vkramer
p2182
a(lp2183
Vwell
p2184
ag92
aVit
p2185
aV'll
p2186
aVgon
p2187
aVna
p2188
aVmix
p2189
aVup
p2190
aVwith
p2191
aVthe
p2192
aVwater
p2193
ag92
aVand
p2194
aVthen
p2195
aVby
p2196
aVthe
p2197
aVend
p2198
aVof
p2199
aVthe
p2200
aVcycle
p2201
aVit
p2202
aV'll
p2203
aVbe
p2204
ag73
aVsolid
p2205
aVblock
p2206
ag87
aaa(lp2207
Vjerry
p2208
a(lp2209
Vif
p2210
aVonly
p2211
aVyou
p2212
aVcould
p2213
aVput
p2214
aVyour
p2215
aVmind
p2216
aVto
p2217
aVsomething
p2218
aVworthwhile
p2219
ag21
aVyou
p2220
aV're
p2221
aVlike
p2222
aVlex
p2223
aVluthor
p2224
ag21
aaa(lp2225
Vkramer
p2226
a(lp2227
Vyou
p2228
aVkeep
p2229
aVhim
p2230
aVbusy
p2231
ag21
aaa(lp2232
Vkramer
p2233
a(lp2234
Vwhoa
p2235
ag87
aaa(lp2236
Vgeorge
p2237
a(lp2238
Vyou
p2239
aVgo
p2240
aVover
p2241
aVthere
p2242
ag513
aaa(lp2243
Velaine
p2244
a(lp2245
Vyeah
p2246
ag21
aaa(lp2247
Vgeorge
p2248
a(lp2249
Vyou
p2250
aVstart
p2251
aVflirting
p2252
aVwith
p2253
aVhim
p2254
aVand
p2255
ag24
aV'll
p2256
aVcome
p2257
aVby
p2258
aVand
p2259
ag92
aVwhile
p2260
aVyou
p2261
aV're
p2262
aVkeeping
p2263
aVhim
p2264
aVbusy
p2265
ag92
ag24
aV'll
p2266
aVslip
p2267
aVit
p2268
aVin
p2269
aVhis
p2270
aVdrink
p2271
ag21
aaa(lp2272
Velaine
p2273
a(lp2274
Vwould
p2275
aVn't
p2276
aVit
p2277
aVbe
p2278
aVeasier
p2279
aVjust
p2280
aVto
p2281
aVpunch
p2282
aVhim
p2283
aVin
p2284
aVthe
p2285
aVmouth
p2286
ag65
aaa(lp2287
Vlevitan
p2288
a(lp2289
Vcome
p2290
aVon
p2291
ag87
aVthey
p2292
aV're
p2293
aVterrible
p2294
ag21
aVthey
p2295
aVgot
p2296
aVno
p2297
aVinfield
p2298
ag21
aaa(lp2299
Velaine
p2300
a(lp2301
Voops
p2302
ag87
aV'scuse
p2303
aVme
p2304
ag21
aaa(lp2305
Vlevitan
p2306
a(lp2307
Vyeah
p2308
ag21
aaa(lp2309
Vgreeny
p2310
a(lp2311
g24
aV'm
p2312
aVgon
p2313
aVna
p2314
aVget
p2315
aVsome
p2316
aVfood
p2317
ag21
aVyou
p2318
aVwant
p2319
aVsome
p2320
ag65
aaa(lp2321
Vlevitan
p2322
a(lp2323
Vnah
p2324
ag21
aaa(lp2325
Velaine
p2326
a(lp2327
Vhi
p2328
ag21
aaa(lp2329
Vlevitan
p2330
a(lp2331
Vhi
p2332
ag21
aaa(lp2333
Velaine
p2334
a(lp2335
aa(lp2336
Vlevitan
p2337
a(lp2338
Vgod
p2339
aVbless
p2340
aVyou
p2341
ag21
aaa(lp2342
Velaine
p2343
a(lp2344
Voh
p2345
ag87
aVthank
p2346
aVyou
p2347
ag21
aVthank
p2348
aVyou
p2349
aVvery
p2350
aVmuch
p2351
ag21
aVreally
p2352
ag21
ag24
aVmean
p2353
aVthat
p2354
ag21
ag24
aVam
p2355
aVnot
p2356
aVone
p2357
aVof
p2358
aVthose
p2359
aVpeople
p2360
aVwho
p2361
aVgive
p2362
aVinsincere
p2363
aVthank
p2364
aVyou
p2365
aV's
p2366
ag21
aVno
p2367
aVsir
p2368
ag21
aVno
p2369
aVsir
p2370
ag21
aVwhen
p2371
ag24
aVthank
p2372
aVsomeone
p2373
ag24
aVreally
p2374
aVthank
p2375
aVthem
p2376
ag21
aVso
p2377
ag92
aVthank
p2378
aVyoooou
p2379
ag87
aaa(lp2380
Vlevitan
p2381
a(lp2382
Vyou
p2383
aV're
p2384
aVwelcome
p2385
ag21
aaa(lp2386
Velaine
p2387
a(lp2388
Vpeople
p2389
aVdo
p2390
aVn't
p2391
aVsay
p2392
aVgod
p2393
aVbless
p2394
aVyou
p2395
aVas
p2396
aVmuch
p2397
aVas
p2398
aVthey
p2399
aVused
p2400
aVto
p2401
ag21
aVhave
p2402
aVyou
p2403
aVnoticed
p2404
aVthat
p2405
ag65
aaa(lp2406
Vlevitan
p2407
a(lp2408
Vno
p2409
ag21
aaa(lp2410
Velaine
p2411
a(lp2412
Vso
p2413
ag92
ag24
aV'm
p2414
aVgoing
p2415
aVto
p2416
ag73
aVnudist
p2417
aVcolony
p2418
aVnext
p2419
aVweek
p2420
ag21
aaa(lp2421
Vlevitan
p2422
a(lp2423
Vnudist
p2424
aVcolony
p2425
ag65
aaa(lp2426
Velaine
p2427
a(lp2428
Voh
p2429
ag92
aVyeah
p2430
ag21
aVyeah
p2431
ag21
ag24
aVlove
p2432
aVnudist
p2433
aVcolonies
p2434
ag21
aVthey
p2435
aVhelp
p2436
aVme
p2437
aVunwind
p2438
ag21
aVaah
p2439
ag87
aaa(lp2440
Vlevitan
p2441
a(lp2442
g24
aV'd
p2443
aVnever
p2444
aVbeen
p2445
aVto
p2446
ag73
aVnudist
p2447
aVcolony
p2448
ag21
aaa(lp2449
Velaine
p2450
a(lp2451
Voh
p2452
ag92
aVreally
p2453
ag65
aVoh
p2454
ag92
aVyou
p2455
aVshould
p2456
aVgo
p2457
ag21
aVthey
p2458
aV're
p2459
aVgreat
p2460
ag21
aVthey
p2461
aV're
p2462
aVgreat
p2463
ag21
aVof
p2464
aVcourse
p2465
ag92
aVwhen
p2466
aVit
p2467
aV's
p2468
aVover
p2469
ag92
aVit
p2470
aV's
p2471
ag513
aVit
p2472
aV's
p2473
aVhard
p2474
aVto
p2475
aVget
p2476
aVused
p2477
aVto
p2478
aVall
p2479
aVthis
p2480
aVclothing
p2481
ag92
aVyou
p2482
aVknow
p2483
ag21
aVso
p2484
ag92
ag73
aVlot
p2485
aVof
p2486
aVtimes
p2487
ag92
ag24
aV'll
p2488
aVjust
p2489
aVlock
p2490
aVthe
p2491
aVdoor
p2492
aVto
p2493
aVmy
p2494
aVoffice
p2495
aVand
p2496
ag24
aV'll
p2497
aVjust
p2498
aVsit
p2499
aVthere
p2500
aVnaked
p2501
ag21
aaa(lp2502
Vlevitan
p2503
a(lp2504
Vseriously
p2505
ag65
aaa(lp2506
Velaine
p2507
a(lp2508
Voh
p2509
ag92
aVyeah
p2510
ag21
ag24
aVusually
p2511
aVwork
p2512
aVnaked
p2513
ag73
aVcouple
p2514
aVhours
p2515
ag73
aVday
p2516
ag21
aaa(lp2517
Vgeorge
p2518
a(lp2519
Vglenda
p2520
ag92
aVcan
p2521
ag24
aVask
p2522
aVyou
p2523
ag73
aVfavor
p2524
ag65
aVcan
p2525
ag24
aVhave
p2526
aVthis
p2527
aVseat
p2528
ag65
aaa(lp2529
Vglenda
p2530
a(lp2531
Vwhat
p2532
aVdo
p2533
aVyou
p2534
aVhave
p2535
aVto
p2536
aVsit
p2537
aVhere
p2538
aVfor
p2539
ag65
aVthere
p2540
aVare
p2541
aVplenty
p2542
aVof
p2543
aVother
p2544
aVseats
p2545
ag21
aaa(lp2546
Vgeorge
p2547
a(lp2548
g24
aVca
p2549
aVn't
p2550
aVexplain
p2551
ag21
aVit
p2552
aV's
p2553
aVvery
p2554
aVimportant
p2555
aVthat
p2556
ag24
aVsit
p2557
aVhere
p2558
ag21
aaa(lp2559
Vglenda
p2560
a(lp2561
Vwhat
p2562
aVare
p2563
aVyou
p2564
aVdoing
p2565
aVhere
p2566
aVanyway
p2567
ag65
ag24
aVthought
p2568
aVyou
p2569
aVwere
p2570
aVfired
p2571
ag21
aaa(lp2572
Vgeorge
p2573
a(lp2574
Vokay
p2575
ag21
aVokay
p2576
ag21
aVfine
p2577
ag21
aaa(lp2578
Velaine
p2579
a(lp2580
g24
aVcook
p2581
aVnaked
p2582
ag92
ag24
aVclean
p2583
ag24
aVclean
p2584
aVnaked
p2585
ag92
ag24
aVdrive
p2586
aVnaked
p2587
ag21
aVnaked
p2588
ag21
aVnaked
p2589
ag21
aVnaked
p2590
ag21
aaa(lp2591
Vlevitan
p2592
a(lp2593
Vwho
p2594
aVare
p2595
aVyou
p2596
ag65
aaa(lp2597
Velaine
p2598
a(lp2599
Voh
p2600
ag92
aVyou
p2601
aVdo
p2602
aVn't
p2603
aVwan
p2604
aVna
p2605
aVknow
p2606
ag92
aVmistah
p2607
ag21
ag24
aV'm
p2608
aVtrouble
p2609
ag21
aVbig
p2610
aVtrouble
p2611
ag21
aaa(lp2612
Vjerry
p2613
a(lp2614
Vwhat
p2615
aVabout
p2616
aVthe
p2617
aVgentle
p2618
aVcycle
p2619
ag65
aVyou
p2620
aVever
p2621
aVuse
p2622
aVthat
p2623
ag65
aaa(lp2624
Vjerry
p2625
a(lp2626
Vdo
p2627
aVyou
p2628
aVthink
p2629
aVit
p2630
aV's
p2631
aVeffeminate
p2632
aVfor
p2633
ag73
aVman
p2634
aVto
p2635
aVput
p2636
aVclothes
p2637
aVin
p2638
ag73
aVgentle
p2639
aVcycle
p2640
ag65
aaa(lp2641
Vjerry
p2642
a(lp2643
Vwhat
p2644
aVabout
p2645
aVfine
p2646
aVfabrics
p2647
ag65
aVhow
p2648
aVdo
p2649
aVyou
p2650
aVdeal
p2651
aVwith
p2652
aVthat
p2653
aVkind
p2654
aVof
p2655
aVtemperament
p2656
ag65
aaa(lp2657
Vjerry
p2658
a(lp2659
Vwhat
p2660
aVabout
p2661
aVstone
p2662
aVwashing
p2663
ag65
aVyou
p2664
aVever
p2665
aVwitness
p2666
aVone
p2667
aVof
p2668
aVthose
p2669
ag65
aVthat
p2670
aVmust
p2671
aVbe
p2672
aVsomething
p2673
ag21
aVwhat
p2674
ag65
aVdo
p2675
aVthey
p2676
aVjust
p2677
aVpummel
p2678
aVthe
p2679
aVjeans
p2680
aVwith
p2681
aVrocks
p2682
ag65
aaa(lp2683
Vkramer
p2684
a(lp2685
g24
aVdid
p2686
aVn't
p2687
aVrealize
p2688
aVit
p2689
aVwas
p2690
ag73
aVfull
p2691
aVbox
p2692
ag21
aaa(lp2693
Vgeorge
p2694
a(lp2695
g24
aV'm
p2696
aVgon
p2697
aVna
p2698
aVcount
p2699
aVto
p2700
aVthree
p2701
ag21
aVif
p2702
aVyou
p2703
aVdo
p2704
aVn't
p2705
aVgive
p2706
aVup
p2707
aVthe
p2708
aVchair
p2709
ag92
aVthe
p2710
aVwig
p2711
aVis
p2712
aVcoming
p2713
aVoff
p2714
ag21
aaa(lp2715
Vglenda
p2716
a(lp2717
g24
aVdo
p2718
aVn't
p2719
ag389
aVwear
p2720
ag73
aVwig
p2721
ag21
aaa(lp2722
Vgeorge
p2723
a(lp2724
Vone
p2725
aaa(lp2726
Velaine
p2727
a(lp2728
Vno
p2729
ag21
aVno
p2730
ag21
aVno
p2731
ag21
aVno
p2732
ag21
aVno
p2733
ag21
ag24
aVdo
p2734
aVn't
p2735
aVreally
p2736
aVhave
p2737
ag73
aVphone
p2738
ag21
aVin
p2739
aVfact
p2740
ag92
ag24
ag513
ag24
aVreally
p2741
aVdo
p2742
aVn't
p2743
aVhave
p2744
aVan
p2745
aVapartment
p2746
ag21
ag24
aVkinda
p2747
aVsleep
p2748
aVaround
p2749
ag21
aaa(lp2750
Velaine
p2751
a(lp2752
g24
aVjust
p2753
aVlike
p2754
aVto
p2755
aVhave
p2756
aVand
p2757
aVfew
p2758
aVdrinks
p2759
aVand
p2760
aVjust
p2761
aVlet
p2762
aVthe
p2763
aVguy
p2764
aVdo
p2765
aVwhatever
p2766
aVhe
p2767
aVwants
p2768
ag21
aVwould
p2769
aVyou
p2770
aVclose
p2771
aVyour
p2772
aVeyes
p2773
aVfor
p2774
ag73
aVsecond
p2775
ag65
ag24
aVwan
p2776
aVna
p2777
aVtell
p2778
aVyou
p2779
ag73
aVsecret
p2780
aVabout
p2781
aVmy
p2782
aVbra
p2783
ag21
aaa(lp2784
Vgeorge
p2785
a(lp2786
Vhello
p2787
ag92
aVrick
p2788
ag21
aaa(lp2789
Vlevitan
p2790
a(lp2791
Vheh
p2792
aVheh
p2793
aVheh
p2794
aVhey
p2795
ag87
aVlook
p2796
aVwho
p2797
aV's
p2798
aVhere
p2799
ag87
aaa(lp2800
Vgeorge
p2801
a(lp2802
Vthat
p2803
aV's
p2804
aVright
p2805
ag92
aVricky
p2806
aVboy
p2807
ag92
aVit
p2808
aV's
p2809
aVme
p2810
ag87
aaa(lp2811
Vlevitan
p2812
a(lp2813
Vyou
p2814
aVknow
p2815
aVsomething
p2816
ag92
aVcostanza
p2817
ag65
ag24
aV'm
p2818
ag73
aVvery
p2819
aVlucky
p2820
aVman
p2821
ag21
aaa(lp2822
Vgeorge
p2823
a(lp2824
Voh
p2825
ag87
aaa(lp2826
Vlevitan
p2827
a(lp2828
g24
aV've
p2829
aValways
p2830
aVbeen
p2831
aVlucky
p2832
ag21
aVthings
p2833
aVjust
p2834
aVseem
p2835
aVto
p2836
aVfall
p2837
aVright
p2838
aVin
p2839
aVmy
p2840
aVlap
p2841
ag21
aaa(lp2842
Vgeorge
p2843
a(lp2844
Vboom
p2845
ag87
aaa(lp2846
Vlevitan
p2847
a(lp2848
Vyou
p2849
aVwould
p2850
aVn't
p2851
aVbelieve
p2852
aVit
p2853
aVif
p2854
ag24
aVtold
p2855
aVyou
p2856
ag21
aVin
p2857
aVfact
p2858
ag92
aVuh
p2859
ag92
ag24
aV'm
p2860
aVglad
p2861
aVyou
p2862
aV're
p2863
aVhere
p2864
ag21
aVyou
p2865
aVknow
p2866
ag92
aVmaybe
p2867
ag24
aV've
p2868
aVbeen
p2869
ag73
aVlittle
p2870
aVrough
p2871
aVon
p2872
aVya
p2873
ag92
aVhuh
p2874
ag65
aaa(lp2875
Vgeorge
p2876
a(lp2877
Voh
p2878
ag21
aaa(lp2879
Vlevitan
p2880
a(lp2881
Vwhy
p2882
aVshould
p2883
aVwe
p2884
aVlet
p2885
aVpetty
p2886
ag92
aVpersonal
p2887
aVdifferences
p2888
aVget
p2889
aVin
p2890
aVthe
p2891
aVway
p2892
aVof
p2893
aVbusiness
p2894
ag65
ag24
ag92
aVuh
p2895
ag92
ag24
aVwant
p2896
aVyou
p2897
aVto
p2898
aVcome
p2899
aVback
p2900
ag21
aVyou
p2901
aVcan
p2902
aVuse
p2903
aVmy
p2904
aVbathroom
p2905
aVanytime
p2906
aVyou
p2907
aVwant
p2908
ag21
aaa(lp2909
Vgeorge
p2910
a(lp2911
Vyou
p2912
aVwant
p2913
aVme
p2914
aVto
p2915
aVcome
p2916
aVback
p2917
ag65
aVuh
p2918
aaa(lp2919
Vlevitan
p2920
a(lp2921
Vhey
p2922
ag87
aVhow
p2923
aVabout
p2924
ag73
aVtoast
p2925
ag92
aVhuh
p2926
ag65
aVeverybody
p2927
ag92
ag73
aVtoast
p2928
ag87
aaa(lp2929
Vgeorge
p2930
a(lp2931
Vrick
p2932
ag21
aaa(lp2933
Vlevitan
p2934
a(lp2935
Veveryone
p2936
ag92
ag24
aVwan
p2937
aVna
p2938
aVpropose
p2939
ag73
aVtoast
p2940
aVto
p2941
aVten
p2942
aVgreat
p2943
aVyears
p2944
aVat
p2945
aVrick
p2946
aVbarr
p2947
aVproperties
p2948
ag21
aaa(lp2949
Vgeorge
p2950
a(lp2951
Vuh
p2952
ag92
aVrick
p2953
aaa(lp2954
Vlevitan
p2955
a(lp2956
Vand
p2957
aVall
p2958
aVthe
p2959
aVpeople
p2960
aVin
p2961
aVthis
p2962
aVroom
p2963
ag92
aVthat
p2964
aVmade
p2965
aVthat
p2966
aVpossible
p2967
aaa(lp2968
Vgeorge
p2969
a(lp2970
Vrick
p2971
ag21
aaa(lp2972
Vlevitan
p2973
a(lp2974
g24
aV'd
p2975
aValso
p2976
aVlike
p2977
aVto
p2978
aVwelcome
p2979
aVback
p2980
aVinto
p2981
aVthe
p2982
aVfold
p2983
aVour
p2984
aVour
p2985
aVlittle
p2986
aVshrimpy
p2987
aVfriend
p2988
ag92
aVgeorge
p2989
aVcostanza
p2990
aVwho
p2991
ag92
aValthough
p2992
aVhe
p2993
aVdid
p2994
aVn't
p2995
aVreally
p2996
aVhave
p2997
ag73
aVvery
p2998
aVgood
p2999
aVyear
p3000
aV--
p3001
aVhow
p3002
aVyou
p3003
aVblew
p3004
aVthat
p3005
aVmcconnell
p3006
aVdeal
p3007
ag92
ag24
aV'll
p3008
aVnever
p3009
aVknow
p3010
ag21
aVbut
p3011
ag92
aVhey
p3012
ag92
aVwhat
p3013
aVthe
p3014
aVhell
p3015
ag92
aVhuh
p3016
ag65
aVwe
p3017
aV've
p3018
aValways
p3019
aVenjoyed
p3020
aVhis
p3021
aVantics
p3022
aVaround
p3023
aVthe
p3024
aVoffice
p3025
ag21
aVheh
p3026
aVheh
p3027
ag21
aVanything
p3028
aVyou
p3029
aVwan
p3030
aVna
p3031
aVadd
p3032
aVto
p3033
aVthis
p3034
ag65
aaa(lp3035
Vgeorge
p3036
a(lp3037
Vdrink
p3038
aVup
p3039
ag21
ag24
aVlike
p3040
aVhistory
p3041
ag21
aVcivil
p3042
aVwar
p3043
ag21
aVmaybe
p3044
ag24
aVcould
p3045
aVbe
p3046
ag73
aVprofessor
p3047
ag92
aVor
p3048
aVsomething
p3049
ag21
aaa(lp3050
Velaine
p3051
a(lp3052
Vwell
p3053
ag92
aVto
p3054
aVteach
p3055
aVsomething
p3056
aVyou
p3057
aVreally
p3058
aVhave
p3059
aVto
p3060
aVknow
p3061
ag73
aVlot
p3062
aVabout
p3063
aVit
p3064
ag21
ag24
aVthink
p3065
aVyou
p3066
aVneed
p3067
ag73
aVdegree
p3068
ag21
aaa(lp3069
Vjerry
p3070
a(lp3071
Vyeah
p3072
ag21
aVthat
p3073
aV's
p3074
aVtrue
p3075
ag21
aVwhat
p3076
ag65
aVmy
p3077
aVgod
p3078
ag92
aVthe
p3079
aVmoney
p3080
ag87
aVthe
p3081
aV1500
p3082
ag87
aVwhere
p3083
aV'd
p3084
aVyou
p3085
aVfind
p3086
aVit
p3087
ag65
aaa(lp3088
Vkramer
p3089
a(lp3090
Vit
p3091
aVwas
p3092
aVin
p3093
aVmy
p3094
aVlaundry
p3095
ag21
aaa(lp3096
Vjerry
p3097
a(lp3098
Vin
p3099
aVyour
p3100
aVlaundry
p3101
aVthe
p3102
aVwhole
p3103
aVtime
p3104
ag65
ag24
aVtold
p3105
aVyou
p3106
aVnot
p3107
aVto
p3108
aVmix
p3109
aVin
p3110
aVour
p3111
aVguys
p3112
ag21
aVwhat
p3113
aVdid
p3114
aVwe
p3115
aVfigure
p3116
aVthe
p3117
aVdamage
p3118
aVon
p3119
aVthat
p3120
aVmachine
p3121
aVwould
p3122
aVbe
p3123
ag65
aaa(lp3124
Vkramer
p3125
a(lp3126
Vit
p3127
aVwas
p3128
aVabout
p3129
aV1200
p3130
aVbucks
p3131
ag21
aaa(lp3132
Vnewman
p3133
a(lp3134
Vkramer
p3135
ag87
aaa(lp3136
Vkramer
p3137
a(lp3138
Voh
p3139
ag87
aVthat
p3140
aV's
p3141
aVnewman
p3142
ag21
aaa(lp3143
Vnewman
p3144
a(lp3145
g24
aV'm
p3146
aVon
p3147
aVthe
p3148
aVroof
p3149
ag87
aaa(lp3150
Vkramer
p3151
a(lp3152
Vwell
p3153
ag92
aVwhat
p3154
aVare
p3155
aVyou
p3156
aVwaiting
p3157
aVfor
p3158
ag65
aaa(lp3159
Vjerry
p3160
a(lp3161
Velaine
p3162
ag92
aVcome
p3163
aVon
p3164
ag92
aVtake
p3165
ag73
aVwalk
p3166
aVwith
p3167
aVme
p3168
aVdown
p3169
aVto
p3170
aVthe
p3171
aVlaundromat
p3172
ag21
ag24
aVgot
p3173
aVta
p3174
aVpay
p3175
aVthis
p3176
aVguy
p3177
aVthe
p3178
aVmoney
p3179
aaa(lp3180
Vgeorge
p3181
a(lp3182
g24
aVlike
p3183
aVhorses
p3184
ag21
aVmaybe
p3185
ag24
aVcould
p3186
aVbe
p3187
ag73
aVstable
p3188
aVboy
p3189
ag21
aaa(lp3190
Vkramer
p3191
a(lp3192
Vyou
p3193
aVwan
p3194
aVna
p3195
aVshoot
p3196
aVsome
p3197
aVpool
p3198
aVtonight
p3199
ag65
aaa(lp3200
Vnewman
p3201
a(lp3202
g24
aVca
p3203
aVn't
p3204
ag21
ag24
aV'm
p3205
aVgoin
p3206
ag389
aVto
p3207
aVthe
p3208
aVmovies
p3209
ag21
aaa.