(lp0
(lp1
Vlevitan
p2
aVthe revenge written by larry david remind me to tell you what we did in lake george. get this i got it all on video.
p3
aa(lp4
Vgeorge
p5
aVthat's it. this is it. i'm done. through. it's over. i'm gone. finished. over. i will never work for you again. look at you. you think you're an important man? is that what you think? you are a laughingstock. you are a joke. these people are laughing at you. you're nothing! you have no brains, no ability, nothing! i quit!
p6
aa(lp7
Vkramer
p8
aVhey.
p9
aa(lp10
Vjerry
p11
aVhey.
p12
aa(lp13
Vkramer
p14
aVboy, i have really had it with newman. he wakes me up again last night at three o'clock in the morning to tell me he's going up onto the roof to kill himself.
p15
aa(lp16
Vjerry
p17
aVwell, what'd you say?
p18
aa(lp19
Vkramer
p20
aVi said jump. well, he's been threatening to do this for years. i said look, if you're gonna kill yourself do it already and stop bothering me. at least i'd respect the guy for accomplishing something.
p21
aa(lp22
Vjerry
p23
aVwhat's his problem?
p24
aa(lp25
Vkramer
p26
aVno job. no women.
p27
aa(lp28
Vjerry
p29
aVhe called the right guy.
p30
aa(lp31
Vkramer
p32
aVwhat am i supposed to tell him? how much there is for him to live for? why should i lie to him?
p33
aa(lp34
Vjerry
p35
aVall right, i'm leaving. i going to the laundry.
p36
aa(lp37
Vkramer
p38
aVwhy don't you use the machines down in the basement?
p39
aa(lp40
Vjerry
p41
aVfluff and fold. the only way to live. i drop it off. i pick it up. it's a delight.
p42
aa(lp43
Vkramer
p44
aVhow 'bout if i put a few things --
p45
aa(lp46
Vjerry
p47
aVwait a sec. i don't wanna do --
p48
aa(lp49
Vkramer
p50
aVwell, you're going over there.
p51
aa(lp52
Vjerry
p53
aVi don't wanna mix in everything! my guys don't know your guys. you can't just lock 'em all in the same machine together. they'll start a riot.
p54
aa(lp55
Vkramer
p56
aVhave you ever met my guys?
p57
aa(lp58
Vjerry
p59
aVno. i can't say as i have.
p60
aa(lp61
Vkramer
p62
aVwell!
p63
aa(lp64
Vjerry
p65
aVall right. put 'em on top.
p66
aa(lp67
Vkramer
p68
aVah!
p69
aa(lp70
Vjerry
p71
aVoh, beautiful. this stuff on top is my friends'. could i get it done in a separate machine?
p72
aa(lp73
Vvic
p74
aVi'll have to charge you for another machine.
p75
aa(lp76
Vjerry
p77
aVwhatever it costs. in fact, i would prefer it if the machines are not even touching each other. because something could, you know, jump across.
p78
aa(lp79
Vgeorge
p80
aVguess what.
p81
aa(lp82
Vjerry
p83
aVhow did you know i was here?
p84
aa(lp85
Vgeorge
p86
aVkramer. guess what.
p87
aa(lp88
Vjerry
p89
aVi don't know.
p90
aa(lp91
Vgeorge
p92
aVi quit my job.
p93
aa(lp94
Vjerry
p95
aVget outta here.
p96
aa(lp97
Vgeorge
p98
aVi couldn't take it anymore.
p99
aa(lp100
Vvic
p101
aVyou can have this on monday.
p102
aa(lp103
Vjerry
p104
aVwhat happened? levitan?
p105
aa(lp106
Vgeorge
p107
aVi go in to use his private bathroom, everybody uses it, and then i get a memo - a memo - telling me to use the men's room in the hall. well, we share it with pace electronics. it's disgusting!
p108
aa(lp109
Vjerry
p110
aVyou and your toilets.
p111
aa(lp112
Vgeorge
p113
aVi snapped! it was the last straw.
p114
aa(lp115
Vjerry
p116
aVso, what are you gonna do now? are you gonna look for something else in real estate?
p117
aa(lp118
Vgeorge
p119
aVnobody's hiring now. the market's terrible.
p120
aa(lp121
Vjerry
p122
aVso what are you gonna do?
p123
aa(lp124
Vgeorge
p125
aVi like sports. i could do something in sports.
p126
aa(lp127
Vjerry
p128
aVuh-huh. uh-huh. in what capacity?
p129
aa(lp130
Vgeorge
p131
aVyou know, like the general manager of a baseball team or something.
p132
aa(lp133
Vjerry
p134
aVyeah. well, that - that could be tough to get.
p135
aa(lp136
Vgeorge
p137
aVwell, it doesn't even have to be the general manager. maybe i could be like, an announcer. like a caller man. you know how i always make those interesting comments during the game.
p138
aa(lp139
Vjerry
p140
aVyeah. yeah. you make good comments.
p141
aa(lp142
Vgeorge
p143
aVwhat about that?
p144
aa(lp145
Vjerry
p146
aVwell, they tend to give those jobs to ex-ballplayers and people that are, you know, in broadcasting.
p147
aa(lp148
Vgeorge
p149
aVwell, that's really not fair.
p150
aa(lp151
Vjerry
p152
aVi know. well, okay. okay. what else do ya like?
p153
aa(lp154
Vgeorge
p155
aVmovies. i like to watch movies.
p156
aa(lp157
Vjerry
p158
aVyeah. yeah.
p159
aa(lp160
Vgeorge
p161
aVdo they pay people to watch movies?
p162
aa(lp163
Vjerry
p164
aVprojectionists.
p165
aa(lp166
Vgeorge
p167
aVthat's true.
p168
aa(lp169
Vjerry
p170
aVbut you gotta know how to work the projector.
p171
aa(lp172
Vgeorge
p173
aVright.
p174
aa(lp175
Vjerry
p176
aVand it's probably a union thing.
p177
aa(lp178
Vgeorge
p179
aVthose unions. okay. sports, movies. what about a talk show host?
p180
aa(lp181
Vjerry
p182
aVtalk show host. that's good.
p183
aa(lp184
Vgeorge
p185
aVi think i'd be good at that. i talk to people all the time. someone even told me once they thought i'd be a good talk show host.
p186
aa(lp187
Vjerry
p188
aVreally?
p189
aa(lp190
Vgeorge
p191
aVyeah. a couple of people. i don't get that, though. where do you start?
p192
aa(lp193
Vjerry
p194
aVwell, that's where it gets tricky.
p195
aa(lp196
Vgeorge
p197
aVyou can't just walk into a building and say i wanna be a talk show host.
p198
aa(lp199
Vjerry
p200
aVi wouldn't think so.
p201
aa(lp202
Vgeorge
p203
aVit's all politics.
p204
aa(lp205
Vjerry
p206
aVall right. okay. sports, movies, talk show host. what else?
p207
aa(lp208
Vgeorge
p209
aVthis could have been a huge mistake.
p210
aa(lp211
Vjerry
p212
aVwell, it doesn't sound like you completely thought this through.
p213
aa(lp214
Vgeorge
p215
aVwhat should i do?
p216
aa(lp217
Vjerry
p218
aVmaybe you can just go back.
p219
aa(lp220
Vgeorge
p221
aVgo back?
p222
aa(lp223
Vjerry
p224
aVyeah. pretend like it never happened.
p225
aa(lp226
Vgeorge
p227
aVyou mean just walk into the staff meeting on monday morning like it never happened?
p228
aa(lp229
Vjerry
p230
aVsure. you're an emotional person. people don't take you seriously.
p231
aa(lp232
Vgeorge
p233
aVjust go back. pretend the whole thing never happened.
p234
aa(lp235
Vjerry
p236
aVnever happened.
p237
aa(lp238
Vgeorge
p239
aVi was just blowin' off a little steam. so what?
p240
aa(lp241
Vjerry
p242
aVso what? you're entitled.
p243
aa(lp244
Vgeorge
p245
aVi'm emotional.
p246
aa(lp247
Vjerry
p248
aVthat's right. you're emotional.
p249
aa(lp250
Vgeorge
p251
aVnever happened.
p252
aa(lp253
Vjerry
p254
aVnever happened.
p255
aa(lp256
Vgeorge
p257
aVhow ya doin'?
p258
aa(lp259
Vglenda
p260
aVwhat are you doing here?
p261
aa(lp262
Vgeorge
p263
aVwhat? i work here.
p264
aa(lp265
Vglenda
p266
aVi thought you quit.
p267
aa(lp268
Vgeorge
p269
aVwhat quit? who quit?
p270
aa(lp271
Vdan
p272
aVbill, how was your weekend?
p273
aa(lp274
Vbill
p275
aVoh, excellent weekend. what about your weekend?
p276
aa(lp277
Vdan
p278
aVfine weekend.
p279
aa(lp280
Vgeorge
p281
aVyeah. good weekend.
p282
aa(lp283
Vdan
p284
aVwent up to the cape. took the kids sailing. lisa was a little scared at first, but that kids' gonna be a good sailor someday.
p285
aa(lp286
Vgeorge
p287
aVaw, she's gonna be a fine sailor.
p288
aa(lp289
Vlevitan
p290
aVava, what happened to you friday afternoon?
p291
aa(lp292
Vava
p293
aVi got a little tied up.
p294
aa(lp295
Vlevitan
p296
aVi'll bet you did.
p297
aa(lp298
Vlevitan
p299
aVi wanna remind everyone that the tenth anniversary party for rick barr properties is gonna be wednesday afternoon at four o'clock in lasky's bar, madison 48th. i want all of you to be there. this really means a lot to me. is that costanza over there? what are you doing here?
p300
aa(lp301
Vgeorge
p302
aVwhat?
p303
aa(lp304
Vlevitan
p305
aVam i crazy, or didn't you quit?
p306
aa(lp307
Vgeorge
p308
aVwhen?
p309
aa(lp310
Vlevitan
p311
aVfriday.
p312
aa(lp313
Vgeorge
p314
aVoh, what? what? that? are you kidding? i didn't quit. what? you took that seriously?
p315
aa(lp316
Vlevitan
p317
aVyou mean, laughingstock? all that stuff?
p318
aa(lp319
Vgeorge
p320
aVcome on. will you stop it.
p321
aa(lp322
Vlevitan
p323
aVno brains? no ability?
p324
aa(lp325
Vgeorge
p326
aVteasing.
p327
aa(lp328
Vlevitan
p329
aVokay. i want you outta here.
p330
aa(lp331
Vgeorge
p332
aVi don't know where you're getting this from. i you're serious aren't you? oh, you see?
p333
aa(lp334
Vlevitan
p335
aVyou can't win. you can't beat me. that's why i'm here and you're there. because i'm a winner. i'll always be a winner and you'll always be a loser.
p336
aa(lp337
Vgeorge
p338
aVi'll always be a winner and you'll always be a loser. this is what he said to me.
p339
aa(lp340
Vjerry
p341
aVwell, so that's that.
p342
aa(lp343
Vgeorge
p344
aVno. that's not that.
p345
aa(lp346
Vjerry
p347
aVthat's not that?
p348
aa(lp349
Vgeorge
p350
aVno.
p351
aa(lp352
Vjerry
p353
aVwell, if that's not that, what is that?
p354
aa(lp355
Vgeorge
p356
aVi've got some plans. i got plans.
p357
aa(lp358
Vjerry
p359
aVwhat kind of plans?
p360
aa(lp361
Vgeorge
p362
aVwhat's the difference?
p363
aa(lp364
Vjerry
p365
aVyou don't wanna tell me?
p366
aa(lp367
Vgeorge
p368
aVi'm gonna slip him a mickey.
p369
aa(lp370
Vjerry
p371
aVwhat? in his drink? are you outta your mind? what? are you peter lorre?
p372
aa(lp373
Vgeorge
p374
aVyou don't understand. he's got this big party coming up. he's been looking forward to this for months. this is gonna destroy the whole thing.
p375
aa(lp376
Vjerry
p377
aVwhat if you destroy him?
p378
aa(lp379
Vgeorge
p380
aVno. no. no. no. no. don't worry. it's perfectly safe. i researched it. he'll get a little woozy. he might keel over.
p381
aa(lp382
Vjerry
p383
aVwell, wha - what does that do? big deal.
p384
aa(lp385
Vgeorge
p386
aVthis is what they would do in the movies! it's a beautiful thing! it's like a movie! i'm gonna slip him a mickey!
p387
aa(lp388
Vjerry
p389
aVyou've really gone mental.
p390
aa(lp391
Vgeorge
p392
aVnah.
p393
aa(lp394
Vjerry
p395
aVwhere are you gonna get this mickey? i can't believe i'm saying mickey !
p396
aa(lp397
Vgeorge
p398
aVi got a sauce.
p399
aa(lp400
Vjerry
p401
aVyou got a mickey sauce?
p402
aa(lp403
Vgeorge
p404
aVand elaine is gonna keep him busy.
p405
aa(lp406
Vjerry
p407
aVelaine? how did you rope her into this?
p408
aa(lp409
Vgeorge
p410
aVi told her what a sexist he is. how he cheats on his wife.
p411
aa(lp412
Vjerry
p413
aVshe knew that.
p414
aa(lp415
Vgeorge
p416
aVbut she didn't know he doesn't recycle.
p417
aa(lp418
Vjerry
p419
aVwhat is the point of all this?
p420
aa(lp421
Vgeorge
p422
aVrevenge.
p423
aa(lp424
Vjerry
p425
aVoh, the best revenge is living well.
p426
aa(lp427
Vgeorge
p428
aVthere's no chance of that.
p429
aa(lp430
Vjerry
p431
aVdid you get your laundry?
p432
aa(lp433
Vkramer
p434
aVyeah.
p435
aa(lp436
Vjerry
p437
aVwhat's with you?
p438
aa(lp439
Vkramer
p440
aVhe jumped.
p441
aa(lp442
Vjerry
p443
aVwhat?
p444
aa(lp445
Vkramer
p446
aVyeah. newman jumped.
p447
aa(lp448
Vjerry
p449
aVdid he call you last night?
p450
aa(lp451
Vkramer
p452
aVoh, yeah. yeah. yeah. yeah. yeah. yeah.
p453
aa(lp454
Vjerry
p455
aVwhat did you say?
p456
aa(lp457
Vkramer
p458
aVi said wave to me when you pass my window.
p459
aa(lp460
Vjerry
p461
aVwhew. did he wave?
p462
aa(lp463
Vkramer
p464
aVno! he jumped from the second floor. mr. papanickolous saw him from across the street. he's lying out there faking. see, he's trying to get back at me.
p465
aa(lp466
Vjerry
p467
aVoh, my god!
p468
aa(lp469
Vkramer
p470
aVwhat's the matter?
p471
aa(lp472
Vjerry
p473
aVwell, on thursday when i came home i had $1500 on me. for some reason i decided to hide it in my laundry bag and then i completely forgot about it and then i took the laundry in on friday! oh, come on, let's go.
p474
aa(lp475
Vkramer
p476
aVwhere? where?
p477
aa(lp478
Vjerry
p479
aVto the laundromat.
p480
aa(lp481
Vvic
p482
aVi never saw it.
p483
aa(lp484
Vkramer
p485
aVokay. come on. give the guy his money. what -- what are you doing?
p486
aa(lp487
Vvic
p488
aVhey, you see that sign right there?
p489
aa(lp490
Vjerry
p491
aVoh, i see. so, you put up a sign so you can do whatever you want?
p492
aa(lp493
Vvic
p494
aVi'm not responsible.
p495
aa(lp496
Vjerry
p497
aVso, anybody leaves anything here, you can just take it? you have a license to steal? you are like the james bond of laundry?
p498
aa(lp499
Vvic
p500
aVyou ever hear of a bank?
p501
aa(lp502
Vjerry
p503
aVcome on. let's go.
p504
aa(lp505
Vkramer
p506
aVno. you can't let him get away with this.
p507
aa(lp508
Velaine
p509
aVwhich one is he?
p510
aa(lp511
Vgeorge
p512
aVthat's him over there. the one that looks like a blowfish.
p513
aa(lp514
Velaine
p515
aVoh, yeah. i see him.
p516
aa(lp517
Vgeorge
p518
aVyeah. hey, thanks for doing this.
p519
aa(lp520
Velaine
p521
aVwhy pass up the opportunity to go to prison?
p522
aa(lp523
Vgeorge
p524
aVthis is by far the most exciting thing i've ever done.
p525
aa(lp526
Velaine
p527
aVyeah. it is kind of cool.
p528
aa(lp529
Vgeorge
p530
aVfirst time in my life i've ever gotten back at someone.
p531
aa(lp532
Velaine
p533
aVi can't believe we're doing this. this is the kind of thing they do in the movies.
p534
aa(lp535
Vgeorge
p536
aVthat's exactly what i told jerry!
p537
aa(lp538
Velaine
p539
aVreally?
p540
aa(lp541
Vgeorge
p542
aVyes!
p543
aa(lp544
Vgeorge
p545
aVgod, i've never felt so alive!
p546
aa(lp547
Vjerry
p548
aVmaybe we should call this off.
p549
aa(lp550
Vkramer
p551
aVcome on. what's the big deal? just gonna put a little concrete in the washing machine.
p552
aa(lp553
Vjerry
p554
aVand what's gonna happen?
p555
aa(lp556
Vkramer
p557
aVwell, it'll gonna mix up with the water, and then by the end of the cycle it'll be a solid block!
p558
aa(lp559
Vjerry
p560
aVif only you could put your mind to something worthwhile. you're like lex luthor.
p561
aa(lp562
Vkramer
p563
aVyou keep him busy.
p564
aa(lp565
Vkramer
p566
aVwhoa!
p567
aa(lp568
Vgeorge
p569
aVyou go over there -
p570
aa(lp571
Velaine
p572
aVyeah.
p573
aa(lp574
Vgeorge
p575
aVyou start flirting with him and i'll come by and, while you're keeping him busy, i'll slip it in his drink.
p576
aa(lp577
Velaine
p578
aVwouldn't it be easier just to punch him in the mouth?
p579
aa(lp580
Vlevitan
p581
aVcome on! they're terrible. they got no infield.
p582
aa(lp583
Velaine
p584
aVoops! 'scuse me.
p585
aa(lp586
Vlevitan
p587
aVyeah.
p588
aa(lp589
Vgreeny
p590
aVi'm gonna get some food. you want some?
p591
aa(lp592
Vlevitan
p593
aVnah.
p594
aa(lp595
Velaine
p596
aVhi.
p597
aa(lp598
Vlevitan
p599
aVhi.
p600
aa(lp601
Velaine
p602
aV
p603
aa(lp604
Vlevitan
p605
aVgod bless you.
p606
aa(lp607
Velaine
p608
aVoh! thank you. thank you very much. really. i mean that. i am not one of those people who give insincere thank you's. no sir. no sir. when i thank someone i really thank them. so, thank yoooou!
p609
aa(lp610
Vlevitan
p611
aVyou're welcome.
p612
aa(lp613
Velaine
p614
aVpeople don't say god bless you as much as they used to. have you noticed that?
p615
aa(lp616
Vlevitan
p617
aVno.
p618
aa(lp619
Velaine
p620
aVso, i'm going to a nudist colony next week.
p621
aa(lp622
Vlevitan
p623
aVnudist colony?
p624
aa(lp625
Velaine
p626
aVoh, yeah. yeah. i love nudist colonies. they help me unwind. aah!
p627
aa(lp628
Vlevitan
p629
aVi'd never been to a nudist colony.
p630
aa(lp631
Velaine
p632
aVoh, really? oh, you should go. they're great. they're great. of course, when it's over, it's - it's hard to get used to all this clothing, you know. so, a lot of times, i'll just lock the door to my office and i'll just sit there naked.
p633
aa(lp634
Vlevitan
p635
aVseriously?
p636
aa(lp637
Velaine
p638
aVoh, yeah. i usually work naked a couple hours a day.
p639
aa(lp640
Vgeorge
p641
aVglenda, can i ask you a favor? can i have this seat?
p642
aa(lp643
Vglenda
p644
aVwhat do you have to sit here for? there are plenty of other seats.
p645
aa(lp646
Vgeorge
p647
aVi can't explain. it's very important that i sit here.
p648
aa(lp649
Vglenda
p650
aVwhat are you doing here anyway? i thought you were fired.
p651
aa(lp652
Vgeorge
p653
aVokay. okay. fine.
p654
aa(lp655
Velaine
p656
aVi cook naked, i clean i clean naked, i drive naked. naked. naked. naked.
p657
aa(lp658
Vlevitan
p659
aVwho are you?
p660
aa(lp661
Velaine
p662
aVoh, you don't wanna know, mistah. i'm trouble. big trouble.
p663
aa(lp664
Vjerry
p665
aVwhat about the gentle cycle? you ever use that?
p666
aa(lp667
Vjerry
p668
aVdo you think it's effeminate for a man to put clothes in a gentle cycle?
p669
aa(lp670
Vjerry
p671
aVwhat about fine fabrics? how do you deal with that kind of temperament?
p672
aa(lp673
Vjerry
p674
aVwhat about stone washing? you ever witness one of those? that must be something. what? do they just pummel the jeans with rocks?
p675
aa(lp676
Vkramer
p677
aVi didn't realize it was a full box.
p678
aa(lp679
Vgeorge
p680
aVi'm gonna count to three. if you don't give up the chair, the wig is coming off.
p681
aa(lp682
Vglenda
p683
aVi don't' wear a wig.
p684
aa(lp685
Vgeorge
p686
aVone
p687
aa(lp688
Velaine
p689
aVno. no. no. no. no. i don't really have a phone. in fact, i - i really don't have an apartment. i kinda sleep around.
p690
aa(lp691
Velaine
p692
aVi just like to have and few drinks and just let the guy do whatever he wants. would you close your eyes for a second? i wanna tell you a secret about my bra.
p693
aa(lp694
Vgeorge
p695
aVhello, rick.
p696
aa(lp697
Vlevitan
p698
aVheh heh heh hey! look who's here!
p699
aa(lp700
Vgeorge
p701
aVthat's right, ricky boy, it's me!
p702
aa(lp703
Vlevitan
p704
aVyou know something, costanza? i'm a very lucky man.
p705
aa(lp706
Vgeorge
p707
aVoh!
p708
aa(lp709
Vlevitan
p710
aVi've always been lucky. things just seem to fall right in my lap.
p711
aa(lp712
Vgeorge
p713
aVboom!
p714
aa(lp715
Vlevitan
p716
aVyou wouldn't believe it if i told you. in fact, uh, i'm glad you're here. you know, maybe i've been a little rough on ya, huh?
p717
aa(lp718
Vgeorge
p719
aVoh.
p720
aa(lp721
Vlevitan
p722
aVwhy should we let petty, personal differences get in the way of business? i, uh, i want you to come back. you can use my bathroom anytime you want.
p723
aa(lp724
Vgeorge
p725
aVyou want me to come back? uh
p726
aa(lp727
Vlevitan
p728
aVhey! how about a toast, huh? everybody, a toast!
p729
aa(lp730
Vgeorge
p731
aVrick.
p732
aa(lp733
Vlevitan
p734
aVeveryone, i wanna propose a toast to ten great years at rick barr properties.
p735
aa(lp736
Vgeorge
p737
aVuh, rick
p738
aa(lp739
Vlevitan
p740
aVand all the people in this room, that made that possible
p741
aa(lp742
Vgeorge
p743
aVrick.
p744
aa(lp745
Vlevitan
p746
aVi'd also like to welcome back into the fold our our little shrimpy friend, george costanza who, although he didn't really have a very good year -- how you blew that mcconnell deal, i'll never know. but, hey, what the hell, huh? we've always enjoyed his antics around the office. heh heh. anything you wanna add to this?
p747
aa(lp748
Vgeorge
p749
aVdrink up. i like history. civil war. maybe i could be a professor, or something.
p750
aa(lp751
Velaine
p752
aVwell, to teach something you really have to know a lot about it. i think you need a degree.
p753
aa(lp754
Vjerry
p755
aVyeah. that's true. what? my god, the money! the 1500! where'd you find it?
p756
aa(lp757
Vkramer
p758
aVit was in my laundry.
p759
aa(lp760
Vjerry
p761
aVin your laundry the whole time? i told you not to mix in our guys. what did we figure the damage on that machine would be?
p762
aa(lp763
Vkramer
p764
aVit was about 1200 bucks.
p765
aa(lp766
Vnewman
p767
aVkramer!
p768
aa(lp769
Vkramer
p770
aVoh! that's newman.
p771
aa(lp772
Vnewman
p773
aVi'm on the roof!
p774
aa(lp775
Vkramer
p776
aVwell, what are you waiting for?
p777
aa(lp778
Vjerry
p779
aVelaine, come on, take a walk with me down to the laundromat. i gotta pay this guy the money
p780
aa(lp781
Vgeorge
p782
aVi like horses. maybe i could be a stable boy.
p783
aa(lp784
Vkramer
p785
aVyou wanna shoot some pool tonight?
p786
aa(lp787
Vnewman
p788
aVi can't. i'm goin' to the movies.
p789
aa.