(lp0
(lp1
Vjerry
p2
a(lp3
Vthe
p4
aVheart
p5
aVattack
p6
aVwritten
p7
aVby
p8
aVlarry
p9
aVcharles
p10
aVyou
p11
aVknow
p12
aV,
p13
aVi
p14
aVtell
p15
aVya
p16
ag13
ag14
aVgot
p17
aVta
p18
aVsay
p19
aVthat
p20
ag14
aV'm
p21
aVenjoying
p22
aVadulthood
p23
aV.
p24
aVfor
p25
aVa
p26
aVlot
p27
aVof
p28
aVreasons
p29
ag24
aVand
p30
ag13
ag14
aV'll
p31
aVtell
p32
aVyou
p33
aVreason
p34
aVnumber
p35
aVone
p36
aVas
p37
aVan
p38
aVadult
p39
ag13
aVif
p40
ag14
aVwant
p41
ag26
aVcookie
p42
ag13
ag14
aVhave
p43
ag26
aVcookie
p44
ag13
aVokay
p45
aV?
p46
ag14
aVhave
p47
aVthree
p48
aVcookies
p49
aVor
p50
aVfour
p51
aVcookies
p52
ag13
aVor
p53
aVeleven
p54
aVcookies
p55
aVif
p56
ag14
aVwant
p57
ag24
aVmany
p58
aVtimes
p59
ag14
aVwill
p60
aVintentionally
p61
aVruin
p62
aVmy
p63
aVentire
p64
aVappetite
p65
ag24
aVjust
p66
aVruin
p67
aVit
p68
ag24
aVand
p69
aVthen
p70
ag13
ag14
aVcall
p71
aVmy
p72
aVmother
p73
aVup
p74
aVright
p75
aVafter
p76
aVto
p77
aVtell
p78
aVher
p79
aVthat
p80
ag14
aVdid
p81
aVit
p82
ag24
aVhello
p83
ag13
aVmom
p84
ag46
aVyeah
p85
ag13
ag14
aVjust
p86
aVruined
p87
aVmy
p88
aVentire
p89
aVappetite
p90
aVcookies
p91
ag24
aVso
p92
aVwhat
p93
aVif
p94
aVyou
p95
aVruin
p96
aVsee
p97
ag13
aVbecause
p98
aVas
p99
aVan
p100
aVadult
p101
ag13
aVwe
p102
aVunderstand
p103
aVeven
p104
aVif
p105
aVyou
p106
aVruin
p107
aVan
p108
aVappetite
p109
ag13
aVthere
p110
aV's
p111
aVanother
p112
aVappetite
p113
aVcoming
p114
aVright
p115
aVbehind
p116
aVit
p117
ag24
aVthere
p118
aV's
p119
aVno
p120
aVdanger
p121
aVin
p122
aVrunning
p123
aVout
p124
aVof
p125
aVappetites
p126
ag24
ag14
aV've
p127
aVgot
p128
aVmillions
p129
aVof
p130
aVthem
p131
ag13
ag14
aV'll
p132
aVruin
p133
aVthem
p134
aVwhenever
p135
ag14
aVwant
p136
aV!
p137
aVtv
p138
aVvoice
p139
aVlook
p140
ag13
aVsigmund
p141
ag24
aVlook
p142
aVin
p143
aVthe
p144
aVsky
p145
ag24
aVthe
p146
aVplanets
p147
aVare
p148
aVon
p149
aVfire
p150
ag24
aVit
p151
aVis
p152
aVjust
p153
aVas
p154
aVyou
p155
aVprophesied
p156
ag24
aVthe
p157
aVplanets
p158
aVof
p159
aVour
p160
aVsolar
p161
aVsystem
p162
ag13
aVincinerating
p163
ag24
aVlike
p164
aVflaming
p165
aVglobes
p166
ag13
aVsigmund
p167
ag24
aVlike
p168
aVflaming
p169
aVglobes
p170
aVah
p171
ag13
aVha
p172
ag13
aVha
p173
ag13
aVha
p174
aaa(lp175
Velaine
p176
a(lp177
Vwhat
p178
aVdo
p179
aVyou
p180
aVgot
p181
ag13
ag26
aVcucumber
p182
ag46
aaa(lp183
Vgeorge
p184
a(lp185
Vyeah
p186
ag13
aVso
p187
aVwhat
p188
ag46
aaa(lp189
Velaine
p190
a(lp191
Vyou
p192
aV're
p193
aVbringing
p194
aVin
p195
aVan
p196
aVouside
p197
aVcucumber
p198
ag46
aaa(lp199
Vgeorge
p200
a(lp201
Vthey
p202
aVrefuse
p203
aVto
p204
aVput
p205
aVcucumber
p206
aVin
p207
aVthe
p208
aVsalad
p209
ag24
ag14
aVneed
p210
aVcucumber
p211
ag24
aaa(lp212
Vjerry
p213
a(lp214
Vwhat
p215
aVhave
p216
ag14
aVdone
p217
ag46
ag14
aVca
p218
aVn't
p219
aVread
p220
aVthis
p221
ag137
aVful-hel-mo-nen-ter-val
p222
ag46
ag14
aVgot
p223
aVup
p224
aVlast
p225
aVnight
p226
ag13
ag14
aVwrote
p227
aVthis
p228
aVdown
p229
ag13
ag14
aVthought
p230
ag14
aVhad
p231
aVthis
p232
aVgreat
p233
aVbit
p234
ag24
aVwait
p235
ag26
aVsecond
p236
ag13
aVwait
p237
ag26
aVsecond
p238
aVfax
p239
aVme
p240
aVsome
p241
aVhalibut
p242
ag24
aVis
p243
aVthat
p244
aVfunny
p245
ag46
aVis
p246
aVthat
p247
ag26
aVjoke
p248
ag46
aaa(lp249
Velaine
p250
a(lp251
Vno
p252
ag24
aVlet
p253
aVme
p254
aVsee
p255
aVthat
p256
ag24
aVdon't-mess-with-johnny
p257
ag24
aaa(lp258
Vjerry
p259
a(lp260
Vjohnny
p261
ag46
aVjohnny
p262
aVwho
p263
ag46
aVjohnny
p264
aVcarson
p265
ag46
aVdid
p266
ag14
aVinsult
p267
aVjohnny
p268
aVon
p269
aVthe
p270
aVtonight
p271
aVshow
p272
ag46
aaa(lp273
Velaine
p274
a(lp275
Vdid
p276
aVyou
p277
aVmess
p278
aVwith
p279
aVjohnny
p280
ag13
aVjerry
p281
ag46
aaa(lp282
Vgeorge
p283
a(lp284
Vlet
p285
aVme
p286
aVsee
p287
aVthat
p288
ag24
aaa(lp289
Velaine
p290
a(lp291
Vhey
p292
ag13
aVwhere
p293
aV's
p294
aVkramer
p295
ag46
aaa(lp296
Vjerry
p297
a(lp298
g14
aVdo
p299
aVn't
p300
aVknow
p301
ag24
aVthat
p302
aV's
p303
aVlike
p304
aVasking
p305
aVwhere
p306
aV's
p307
aVwaldo
p308
ag46
aaa(lp309
Vgeorge
p310
a(lp311
g14
aVthink
p312
ag14
aV'm
p313
aVhaving
p314
ag26
aVheart
p315
aVattack
p316
ag24
aaa(lp317
Vjerry
p318
a(lp319
g14
aVdo
p320
aVn't
p321
aVthink
p322
aVthat
p323
aV's
p324
aVit
p325
ag24
aaa(lp326
Vgeorge
p327
a(lp328
g14
aV'm
p329
aVnot
p330
aVkidding
p331
ag24
aaa(lp332
Vjerry
p333
a(lp334
Vwhat
p335
aVdoes
p336
aVthat
p337
aVmean
p338
ag46
aaa(lp339
Velaine
p340
a(lp341
g14
aVthink
p342
aVwhat
p343
aVhe
p344
aV's
p345
aVtrying
p346
aVto
p347
aVsay
p348
aVis
p349
aVthat
p350
aVhe
p351
aV's
p352
aVhaving
p353
ag26
aVheart
p354
aVattack
p355
ag24
aaa(lp356
Vjerry
p357
a(lp358
Voh
p359
ag13
aVhe
p360
aV's
p361
aVhaving
p362
ag26
aVheart
p363
aVattack
p364
ag24
aaa(lp365
Vgeorge
p366
a(lp367
Vtightness
p368
aaa(lp369
Vjerry
p370
a(lp371
Vc'mon
p372
ag24
aaa(lp373
Vgeorge
p374
a(lp375
Vshortness
p376
aVof
p377
aVbreath
p378
aaa(lp379
Vjerry
p380
a(lp381
Voh
p382
ag13
aVthis
p383
aVis
p384
aVridiculous
p385
ag24
aaa(lp386
Vgeorge
p387
a(lp388
Vradiating
p389
aVwaves
p390
aVof
p391
aVpain
p392
aaa(lp393
Vjerry
p394
a(lp395
g14
aVknow
p396
aVwhat
p397
aVthis
p398
aVis
p399
ag24
aVyou
p400
aVsaw
p401
aVthat
p402
aVshow
p403
aVon
p404
aVpbs
p405
aVlast
p406
aVnight
p407
ag13
aVcoronary
p408
aVcountry
p409
ag24
ag14
aVsaw
p410
aVit
p411
aVin
p412
aVthe
p413
aVtv
p414
aVguide
p415
ag24
ag14
aVcalled
p416
aVhim
p417
aVand
p418
aVtold
p419
aVhim
p420
aVto
p421
aVmake
p422
aVsure
p423
aVand
p424
aVnot
p425
aVwatch
p426
aVit
p427
ag24
aaa(lp428
Vgeorge
p429
a(lp430
Vthere
p431
aVwas
p432
aVnothing
p433
aVelse
p434
aVon
p435
ag24
aVoh
p436
ag13
aVthe
p437
aVleft
p438
aVarm
p439
aVthe
p440
aVleft
p441
aVarm
p442
ag24
aaa(lp443
Vjerry
p444
a(lp445
Vhe
p446
aVsaw
p447
aVthat
p448
aVshow
p449
aVon
p450
aVanorexia
p451
aVlast
p452
aVyear
p453
ag13
aVand
p454
aVate
p455
aVlike
p456
aVan
p457
aVanimal
p458
aVfor
p459
aVtwo
p460
aVweeks
p461
ag24
aaa(lp462
Vgeorge
p463
a(lp464
Vwhy
p465
aVca
p466
aVn't
p467
ag14
aVhave
p468
ag26
aVheart
p469
aVattack
p470
ag46
ag14
aV'm
p471
aVallowed
p472
ag24
aaa(lp473
Vjerry
p474
a(lp475
Vso
p476
aVwhat
p477
aVdo
p478
aVyou
p479
aVwant
p480
ag46
aVyou
p481
aVwant
p482
aVme
p483
aVtake
p484
aVyou
p485
aVto
p486
aVthe
p487
aVhospital
p488
ag46
aaa(lp489
Vgeorge
p490
a(lp491
Vmanhattan
p492
aVmemorial
p493
ag13
aVless
p494
aVof
p495
ag26
aVline
p496
ag24
aaa(lp497
Vjerry
p498
a(lp499
g14
aV'll
p500
aVcall
p501
aVan
p502
aVambulance
p503
ag24
aaa(lp504
Vwaitress
p505
a(lp506
Vis
p507
aVeverything
p508
aValright
p509
ag46
aaa(lp510
Vgeorge
p511
a(lp512
Vwe
p513
aV'll
p514
aVjust
p515
aVtake
p516
ag26
aVcheck
p517
ag24
aVyou
p518
aVmade
p519
ag26
aVmistake
p520
aVon
p521
aVthe
p522
aaa(lp523
Velaine
p524
a(lp525
Vgeorge
p526
ag137
aaa(lp527
Vman
p528
a(lp529
Vooohhh
p530
aVargghhh
p531
aaa(lp532
Vgeorge
p533
a(lp534
Vare
p535
aVare
p536
aVyou
p537
aVokay
p538
ag46
aaa(lp539
Vman
p540
a(lp541
Vooooooohhh
p542
aaa(lp543
Vgeorge
p544
a(lp545
g14
aV'm
p546
aVgeorge
p547
aVgeorge
p548
aVcostanza
p549
ag14
aV've
p550
aVnever
p551
aVbeen
p552
aVin
p553
aVthe
p554
aVhospital
p555
ag26
aVday
p556
aVin
p557
aVmy
p558
aVlife
p559
aVexcept
p560
aVwhen
p561
ag14
aVhad
p562
aVmy
p563
aVtonsils
p564
aVout
p565
ag24
aVyou
p566
aVknow
p567
ag13
aVthey
p568
aVnever
p569
aVgave
p570
aVme
p571
aVany
p572
aVice
p573
aVcream
p574
ag24
ag14
aValways
p575
aVfelt
p576
aVthat-
p577
aaa(lp578
Vman
p579
a(lp580
Vshut
p581
aVup
p582
ag137
aaa(lp583
Vjerry
p584
a(lp585
Vwell
p586
ag46
aVwhat
p587
aVdo
p588
aVyou
p589
aVthink
p590
ag46
aVnurse
p591
aV1
p592
aVsalami
p593
ag13
aVsalami
p594
ag13
aVbologna
p595
ag24
aVdefinitely
p596
ag24
aaa(lp597
Vjerry
p598
a(lp599
Vsalami
p600
aVsalami
p601
aVbologna
p602
ag46
aaa(lp603
Vdoctor
p604
a(lp605
Voh
p606
ag13
aVyour
p607
aVfriend
p608
aV's
p609
aVfine
p610
ag24
aVhe
p611
aVdid
p612
aVn't
p613
aVhave
p614
ag26
aVheart
p615
aVattack
p616
ag24
ag14
aV'll
p617
aVbe
p618
aVin
p619
aV-
p620
aVin
p621
ag26
aVfew
p622
aVminutes
p623
ag24
aaa(lp624
Vjerry
p625
a(lp626
Vwhat
p627
ag26
aVsurprise
p628
ag24
aVhey
p629
ag13
aVhow
p630
aVya
p631
aVdoin
p632
aV'
p633
aVbuddy
p634
ag46
aVyou
p635
aVneed
p636
aVanything
p637
ag46
aVdo
p638
aVyou
p639
aVwant
p640
aVme
p641
aVto
p642
aVgo
p643
aVout
p644
aVand
p645
aVget
p646
aVyou
p647
ag26
aVsuperman
p648
aVcomic
p649
ag46
aaa(lp650
Vgeorge
p651
a(lp652
Vno
p653
ag13
aVno
p654
aVthanks
p655
ag24
aaa(lp656
Vjerry
p657
a(lp658
Vyou
p659
aVknow
p660
ag13
ag14
aVwas
p661
aVwondering
p662
aVyou
p663
aVknow
p664
aVthat
p665
aVblack
p666
aVhawks
p667
aVjacket
p668
aVyou
p669
aVhave
p670
ag46
aaa(lp671
Vgeorge
p672
a(lp673
Voh
p674
ag13
aVsure
p675
ag13
aVmy
p676
aVblack
p677
aVhawks
p678
aVjacket
p679
ag24
ag14
aVlove
p680
aVmy
p681
aVblack
p682
aVhawks
p683
aVjacket
p684
ag24
aaa(lp685
Vjerry
p686
a(lp687
Vwell
p688
ag13
aVyou
p689
aVknow
p690
ag13
ag14
aVwas
p691
aVthinking
p692
ag620
aVif
p693
aVthings
p694
aVdo
p695
aVn't
p696
aVexactly
p697
aVwork
p698
aVout
p699
aaa(lp700
Vgeorge
p701
a(lp702
Vwell
p703
ag13
aVit
p704
aVwould
p705
aVn't
p706
aVfit
p707
aVyou
p708
ag24
aVthe
p709
aVsleeves
p710
aVare
p711
aVtoo
p712
aVshort
p713
ag24
aaa(lp714
Vjerry
p715
a(lp716
Vno
p717
ag13
ag14
aVtried
p718
aVit
p719
aVon
p720
ag24
aVit
p721
aVfits
p722
aVgood
p723
ag24
aaa(lp724
Vgeorge
p725
a(lp726
Vwell
p727
ag13
ag14
aVdid
p728
aVn't
p729
aVreally
p730
aVthink
p731
aVabout
p732
aVwhat
p733
ag14
aVwas
p734
aVgon
p735
aVna
p736
aVdo
p737
aVwith
p738
aVall
p739
aaa(lp740
Vjerry
p741
a(lp742
Vwell
p743
ag13
aVyou
p744
aVknow
p745
aaa(lp746
Vgeorge
p747
a(lp748
Vwell
p749
ag13
aVokay
p750
ag24
aaa(lp751
Vjerry
p752
a(lp753
Voh
p754
ag13
aVand
p755
aVdo
p756
aVyou
p757
aVthink
p758
aVit
p759
aVwould
p760
aVbe
p761
aValright
p762
aVif
p763
ag14
aVcalled
p764
aVsusan
p765
aVdavis
p766
ag46
aaa(lp767
Vgeorge
p768
a(lp769
Vsusan
p770
aVdavis
p771
ag46
aVhey
p772
ag13
aVwait
p773
ag26
aVsecond
p774
aaa(lp775
Vjerry
p776
a(lp777
Vwell
p778
ag13
aVit
p779
aV's
p780
aVnot
p781
aVlike
p782
aVwe
p783
aV'd
p784
aVbe
p785
aVbumping
p786
aVinto
p787
aVyou
p788
ag24
aaa(lp789
Vgeorge
p790
a(lp791
g14
aVdo
p792
aVn't
p793
aVknow
p794
aVyou
p795
aVand
p796
aVsusan
p797
aVdavis
p798
ag46
aaa(lp799
Vjerry
p800
a(lp801
Vyou
p802
aVknow
p803
ag13
aVif
p804
aVyour
p805
aVfuture
p806
aVwas
p807
ag26
aVlittle
p808
aVmore
p809
aVcertain
p810
aaa(lp811
Vgeorge
p812
a(lp813
Vokay
p814
ag13
aVgo
p815
aVahead
p816
ag24
aVcall
p817
aVher
p818
ag13
aVget
p819
aVmarried
p820
ag13
aVhave
p821
aVbabies
p822
ag13
aVhave
p823
ag26
aVgreat
p824
aVlife
p825
aVwhat
p826
aVdo
p827
ag14
aVcare
p828
ag46
ag14
aV'm
p829
aVfinished
p830
ag24
aVit
p831
aV's
p832
aVall
p833
aVover
p834
aVfor
p835
aVme
p836
ag24
aVin
p837
aVfact
p838
ag13
aVlet
p839
aV's
p840
aVend
p841
aVit
p842
aVright
p843
aVnow
p844
ag24
aVjerry
p845
ag13
aVkill
p846
aVme
p847
ag13
aVkill
p848
aVme
p849
aVnow
p850
ag24
ag14
aV'm
p851
aVbegging
p852
aVyou
p853
ag24
aVlet
p854
aV's
p855
aVjust
p856
aVget
p857
aVit
p858
aVover
p859
aVwith
p860
ag24
aVbe
p861
ag26
aVpal
p862
aVjust
p863
aVtake
p864
aVthe
p865
aVpillow
p866
aVand
p867
aVput
p868
aVit
p869
aVover
p870
aVmy
p871
aVface
p872
ag24
aaa(lp873
Vjerry
p874
a(lp875
Vwell
p876
ag13
aVah
p877
aVwhat
p878
ag46
aVkind
p879
aVof
p880
aVlike
p881
aVthis
p882
ag46
aaa(lp883
Vgeorge
p884
a(lp885
Vwhat
p886
aVare
p887
aVya
p888
aVdoing
p889
ag46
ag137
aVwhadya
p890
ag13
aVcrazy
p891
ag46
ag137
aaa(lp892
Velaine
p893
a(lp894
Vjerry
p895
ag137
aaa(lp896
Vjerry
p897
a(lp898
Velaine
p899
ag13
aVwhat
p900
aVare
p901
aVyou
p902
aVdoing
p903
aVhere
p904
ag46
aaa(lp905
Vgeorge
p906
a(lp907
Vjerk
p908
aVoff
p909
ag24
aaa(lp910
Vjerry
p911
a(lp912
Vthere
p913
aV's
p914
aVnothing
p915
aVwrong
p916
aVwith
p917
aVhim
p918
ag24
ag14
aVsaw
p919
aVthe
p920
aVdoctor
p921
ag24
aVhe
p922
aV's
p923
aVfine
p924
ag24
aaa(lp925
Velaine
p926
a(lp927
Vhi
p928
ag13
aVgeorge
p929
ag24
aVhow
p930
aVya
p931
aVfeeling
p932
ag46
aVis
p933
aVanybody
p934
aVgetting
p935
aVyour
p936
aVapartment
p937
ag46
aaa(lp938
Vgeorge
p939
a(lp940
g14
aV'll
p941
aVtell
p942
aVya
p943
ag13
aVif
p944
ag14
aVever
p945
aVget
p946
aVout
p947
aVof
p948
aVhere
p949
ag13
ag14
aV'm
p950
aVgon
p951
aVna
p952
aVchange
p953
aVmy
p954
aVlife
p955
ag24
ag14
aV'm
p956
aVgon
p957
aVna
p958
aVdo
p959
ag26
aVwhole
p960
aVzen
p961
aVthing
p962
ag24
aVtake
p963
aVup
p964
aVyoga
p965
ag13
aVmeditate
p966
ag14
aV'll
p967
aVeat
p968
aVright
p969
ag24
aVcalm
p970
aVdown
p971
ag13
aVlose
p972
aVmy
p973
aVanger
p974
aVhey
p975
ag13
aVis
p976
aVanybody
p977
aVlistening
p978
ag46
ag137
aaa(lp979
Vdoctor
p980
a(lp981
Vuh
p982
ag13
aVhello
p983
ag24
aVuh
p984
ag13
aVmr.
p985
aVcostanza
p986
ag46
aaa(lp987
Vgeorge
p988
a(lp989
Vuh
p990
ag13
aVyeah
p991
ag24
aVyou
p992
aVknow
p993
ag13
aVdoctor
p994
ag13
ag14
aVgot
p995
aVta
p996
aVtell
p997
aVyou
p998
ag13
ag14
aVfeel
p999
ag26
aVlot
p1000
aVbetter
p1001
ag24
aaa(lp1002
Vdoctor
p1003
a(lp1004
Vwell
p1005
ag13
aVwe
p1006
aVlooked
p1007
aVat
p1008
aVyour
p1009
aVekg
p1010
aV's
p1011
ag13
aVran
p1012
aVsome
p1013
aVtests
p1014
ag13
aVdid
p1015
ag26
aVcomplete
p1016
aVwork-up
p1017
ag24
aaa(lp1018
Vgeorge
p1019
a(lp1020
Voh
p1021
aVgod
p1022
ag13
aVmommy
p1023
ag137
aaa(lp1024
Vdoctor
p1025
a(lp1026
Vand
p1027
aVyou
p1028
aVsimply
p1029
aVhave
p1030
aVn't
p1031
aVhad
p1032
ag26
aVheart
p1033
aVattack
p1034
ag24
aaa(lp1035
Vgeorge
p1036
a(lp1037
g14
aVhave
p1038
aVn't
p1039
ag46
ag14
aV'm
p1040
aVokay
p1041
ag46
ag14
aV'm
p1042
aVokay
p1043
ag46
aVoh
p1044
ag13
aVthank
p1045
aVyou
p1046
ag13
aVthank
p1047
aVyou
p1048
ag13
aVdoctor
p1049
ag137
ag14
aVdo
p1050
aVn't
p1051
aVknow
p1052
aVhow
p1053
aVto
p1054
aVthank
p1055
aVyou
p1056
ag24
aaa(lp1057
Vjerry
p1058
a(lp1059
Vhey
p1060
ag13
aVthat
p1061
aVwas
p1062
aVreally
p1063
aVfun
p1064
ag13
aVgeorge
p1065
ag24
aVcan
p1066
aVwe
p1067
aVgo
p1068
aVhome
p1069
aVnow
p1070
ag46
aaa(lp1071
Vdoctor
p1072
a(lp1073
Vno
p1074
ag13
aVactually
p1075
ag13
aVwe
p1076
aV'd
p1077
aVlike
p1078
aVto
p1079
aVkeep
p1080
aVhim
p1081
aVhere
p1082
aVovernight
p1083
aVfor
p1084
aVobservation
p1085
ag13
aVjust
p1086
aVto
p1087
aVbe
p1088
aVsafe
p1089
ag24
aaa(lp1090
Vgeorge
p1091
a(lp1092
Voh
p1093
ag13
aVsure
p1094
ag24
aVsure
p1095
ag13
aVanything
p1096
ag24
aVcan
p1097
aVyou
p1098
aVbelieve
p1099
aVit
p1100
ag46
aVthere
p1101
aV's
p1102
aVnothing
p1103
aVwrong
p1104
aVwith
p1105
aVme
p1106
ag24
aaa(lp1107
Vdoctor
p1108
a(lp1109
Vwell
p1110
ag13
ag14
aVwould
p1111
aVn't
p1112
aVgo
p1113
aVthat
p1114
aVfar
p1115
ag24
aaa(lp1116
Vgeorge
p1117
a(lp1118
Vwhat
p1119
ag46
aVoh
p1120
aVmy
p1121
aVgod
p1122
ag24
aVwhat
p1123
ag46
aVis
p1124
aVit
p1125
aVmeningitis
p1126
ag46
aVscoliosis
p1127
ag46
aVlupis
p1128
ag46
ag137
aVis
p1129
aVit
p1130
aVlupis
p1131
ag46
ag137
aaa(lp1132
Vdoctor
p1133
a(lp1134
Vhave
p1135
aVyou
p1136
aVever
p1137
aVhad
p1138
aVyour
p1139
aVtonsils
p1140
aVtaken
p1141
aVout
p1142
ag46
aaa(lp1143
Vgeorge
p1144
a(lp1145
Vmy
p1146
aVtonsils
p1147
ag46
aVyeah
p1148
ag13
aVwhen
p1149
ag14
aVwas
p1150
ag26
aVkid
p1151
ag24
aaa(lp1152
Vdoctor
p1153
a(lp1154
Vwell
p1155
ag13
aVthey
p1156
aV've
p1157
aVgrown
p1158
aVback
p1159
ag24
aVyour
p1160
aVadenoids
p1161
aVare
p1162
aVswollen
p1163
aVtoo
p1164
ag24
aaa(lp1165
Vgeorge
p1166
a(lp1167
Vreally
p1168
ag46
aaa(lp1169
Velaine
p1170
a(lp1171
Vwhose
p1172
aVtonsils
p1173
aVgrow
p1174
aVback
p1175
ag46
aaa(lp1176
Vdoctor
p1177
a(lp1178
Vit
p1179
aVhappens
p1180
ag24
aaa(lp1181
Vjerry
p1182
a(lp1183
Vyeah
p1184
ag13
aVif
p1185
aVyou
p1186
aV've
p1187
aVbeen
p1188
aVexposed
p1189
aVto
p1190
aVgamma
p1191
aVrays
p1192
ag24
aaa(lp1193
Velaine
p1194
a(lp1195
g14
aVstill
p1196
aVhave
p1197
aVmy
p1198
aVtonsils
p1199
ag24
aVeveryone
p1200
aVin
p1201
aVmy
p1202
aVfamily
p1203
aVhas
p1204
aVtheir
p1205
aVtonsils
p1206
ag24
aVin
p1207
aVfact
p1208
ag13
aVwe
p1209
aVwere
p1210
aVforbidden
p1211
aVto
p1212
aVsocialize
p1213
aVwith
p1214
aVanyone
p1215
aVwho
p1216
aVdid
p1217
aVn't
p1218
aVhave
p1219
aVtheir
p1220
aVtonsils
p1221
ag24
aaa(lp1222
Vdoctor
p1223
a(lp1224
Vthat
p1225
aV's
p1226
aVinteresting
p1227
ag24
aVbecause
p1228
ag13
aVno
p1229
aVone
p1230
aVin
p1231
aVmy
p1232
aVfamily
p1233
aVhas
p1234
aVtheir
p1235
aVtonsils
p1236
ag13
aVand
p1237
aVwe
p1238
aVwere
p1239
aVforbidden
p1240
aVto
p1241
aVsocialize
p1242
aVwith
p1243
aVtonsil
p1244
aVpeople
p1245
ag24
aaa(lp1246
Vjerry
p1247
a(lp1248
Vwell
p1249
ag13
aVit
p1250
aV's
p1251
aVlike
p1252
aVthe
p1253
aVcapulets
p1254
aVand
p1255
aVthe
p1256
aVmontagues
p1257
ag24
aaa(lp1258
Vgeorge
p1259
a(lp1260
Vexcuse
p1261
aVme
p1262
ag137
aaa(lp1263
Vdoctor
p1264
a(lp1265
Vanyway
p1266
ag13
ag14
aVstrongly
p1267
aVrecommend
p1268
aVthey
p1269
aVcome
p1270
aVout
p1271
ag24
aaa(lp1272
Vgeorge
p1273
a(lp1274
Vwhat
p1275
ag46
aVyou
p1276
aVmean
p1277
aVwith
p1278
ag26
aVknife
p1279
ag46
aaa(lp1280
Vdoctor
p1281
a(lp1282
Vyes
p1283
ag24
aVwith
p1284
ag26
aVknife
p1285
ag24
aVyou
p1286
aVknow
p1287
ag13
aVsnip
p1288
ag13
aVsnip
p1289
ag24
aVanyway
p1290
ag13
aVyou
p1291
aV'd
p1292
aVbe
p1293
aVcompletely
p1294
aVunder
p1295
ag13
aVyou
p1296
aVwould
p1297
aVn't
p1298
aVfeel
p1299
ag26
aVthing
p1300
ag24
aVand
p1301
aVwhen
p1302
aVyou
p1303
aVwake
p1304
aVup
p1305
ag13
aVyou
p1306
aVcan
p1307
aVhave
p1308
aVsome
p1309
aVice
p1310
aVcream
p1311
ag24
aaa(lp1312
Vgeorge
p1313
a(lp1314
Vyeah
p1315
ag13
aVthat
p1316
aV's
p1317
aVwhat
p1318
aVthey
p1319
aVtold
p1320
aVme
p1321
aVthe
p1322
aVlast
p1323
aVtime
p1324
ag24
aaa(lp1325
Vdoctor
p1326
a(lp1327
Vthink
p1328
aVabout
p1329
aVit
p1330
ag24
aVexcuse
p1331
aVme
p1332
ag24
aaa(lp1333
Velaine
p1334
a(lp1335
Voh
p1336
ag13
ag14
aV'm
p1337
aVsorry
p1338
ag24
ag14
aVjust
p1339
aVhave
p1340
aVto
p1341
aVask
p1342
aVthat
p1343
aVdoctor
p1344
aVone
p1345
aVmore
p1346
aVquestion
p1347
ag24
aaa(lp1348
Vjerry
p1349
a(lp1350
Vwomen
p1351
aVgo
p1352
aVafter
p1353
aVdoctors
p1354
aVlike
p1355
aVmen
p1356
aVgo
p1357
aVafter
p1358
aVmodels
p1359
ag24
aVthey
p1360
aVwant
p1361
aVsomeone
p1362
aVwith
p1363
aVknowledge
p1364
aVof
p1365
aVthe
p1366
aVbody
p1367
aVwe
p1368
aVjust
p1369
aVwant
p1370
aVthe
p1371
aVbody
p1372
ag24
aaa(lp1373
Vkramer
p1374
a(lp1375
Vhey
p1376
ag24
aaa(lp1377
Vjerry
p1378
a(lp1379
Vhey
p1380
ag24
aaa(lp1381
Vkramer
p1382
a(lp1383
Vboy
p1384
ag13
aVthey
p1385
aVgot
p1386
ag26
aVgreat
p1387
aVcafeteria
p1388
aVdownstairs
p1389
ag24
aVhot
p1390
aVfood
p1391
ag13
aVsandwiches
p1392
ag13
ag26
aVsalad
p1393
aVbar
p1394
aVit
p1395
aV's
p1396
aVlike
p1397
ag26
aVsizzler
p1398
aV's
p1399
aVopened
p1400
aVup
p1401
ag26
aVhospital
p1402
ag137
aVso
p1403
ag13
aVhow
p1404
aVdid
p1405
aVyou
p1406
aVhave
p1407
ag26
aVheart
p1408
aVattack
p1409
ag46
aVyou
p1410
aV're
p1411
ag26
aVyoung
p1412
aVman
p1413
ag24
aVwhat
p1414
aVwere
p1415
aVyou
p1416
aVdoing
p1417
ag46
aVare
p1418
aVthey
p1419
aVgon
p1420
aVna
p1421
aVdo
p1422
ag26
aVzipper
p1423
aVjob
p1424
ag46
aVoh
p1425
ag13
aVthey
p1426
aVlove
p1427
aVto
p1428
aVdo
p1429
aVzipper
p1430
aVjobs
p1431
ag24
aaa(lp1432
Vjerry
p1433
a(lp1434
Vkramer
p1435
ag24
aaa(lp1436
Vkramer
p1437
a(lp1438
Vthe
p1439
aVreally
p1440
aVbad
p1441
aVthing
p1442
aVabout
p1443
aVthe
p1444
aVheart
p1445
aVis
p1446
aVthe
p1447
aVsex
p1448
aVthing
p1449
ag24
aVsee
p1450
ag13
aVyou
p1451
aVgot
p1452
aVta
p1453
aVbe
p1454
aVcareful
p1455
aVabout
p1456
aVsex
p1457
aVnow
p1458
ag24
aVyou
p1459
aVget
p1460
aVthat
p1461
aVheart
p1462
aVpumping
p1463
aVand
p1464
aVsuddenly
p1465
ag13
aVboom
p1466
ag137
aVnext
p1467
aVthing
p1468
aVyou
p1469
aVknow
p1470
ag13
aVyou
p1471
aVgot
p1472
ag26
aVhose
p1473
aVcoming
p1474
aVout
p1475
aVof
p1476
aVyour
p1477
aVchest
p1478
aVattached
p1479
aVto
p1480
ag26
aVpiece
p1481
aVof
p1482
aVluggage
p1483
ag24
aaa(lp1484
Vjerry
p1485
a(lp1486
Vkramer
p1487
ag13
aVgeorge
p1488
aVdid
p1489
aVn't
p1490
aVhave
p1491
ag26
aVheart
p1492
aVattack
p1493
ag24
aaa(lp1494
Vkramer
p1495
a(lp1496
Vno
p1497
ag46
aVthat
p1498
aV's
p1499
aVgood
p1500
ag24
aaa(lp1501
Vgeorge
p1502
a(lp1503
g14
aVhave
p1504
aVto
p1505
aVhave
p1506
aVmy
p1507
aVtonsils
p1508
aVtaken
p1509
aVout
p1510
ag24
aaa(lp1511
Vkramer
p1512
a(lp1513
Voh
p1514
aVman
p1515
aVno
p1516
aVgeorge
p1517
ag13
aVwe
p1518
aVgot
p1519
aVta
p1520
aVget
p1521
aVyou
p1522
aVoutta
p1523
aVhere
p1524
ag24
aVget
p1525
aVout
p1526
ag137
aVright
p1527
aVnow
p1528
ag137
aVthey
p1529
aV'll
p1530
aVkill
p1531
aVya
p1532
aVin
p1533
aVhere
p1534
ag24
aaa(lp1535
Vjerry
p1536
a(lp1537
Vit
p1538
aV's
p1539
aVroutine
p1540
aVsurgery
p1541
ag24
aaa(lp1542
Vkramer
p1543
a(lp1544
Voh
p1545
aVyeah
p1546
ag46
aVmy
p1547
aVfriend
p1548
ag13
aVbob
p1549
aVsaccomanno
p1550
ag13
aVhe
p1551
aVcame
p1552
aVin
p1553
aVhere
p1554
aVfor
p1555
ag26
aVhernia
p1556
aVoperation
p1557
aVoh
p1558
aVyeah
p1559
ag13
aVroutine
p1560
aVsurgery
p1561
aVnow
p1562
aVhe
p1563
aV's
p1564
aVsittin
p1565
ag633
aVaround
p1566
aVin
p1567
ag26
aVchair
p1568
aVby
p1569
ag26
aVwindow
p1570
aVgoing
p1571
ag13
aVmy
p1572
aVname
p1573
aVis
p1574
aVbob
p1575
aVgeorge
p1576
ag13
aVwhatever
p1577
aVyou
p1578
aVdo
p1579
ag13
aVdo
p1580
aVn't
p1581
aVlet
p1582
aV'em
p1583
aVcut
p1584
aVyou
p1585
ag24
aVdo
p1586
aVn't
p1587
aVlet
p1588
aV'em
p1589
aVcut
p1590
aVyou
p1591
aaa(lp1592
Vgeorge
p1593
a(lp1594
Vwell
p1595
ag13
aVwhat
p1596
aVshould
p1597
ag14
aVdo
p1598
ag13
aVkramer
p1599
ag46
aaa(lp1600
Vjerry
p1601
a(lp1602
Vwell
p1603
ag13
aVfor
p1604
aVone
p1605
aVthink
p1606
ag13
aVdo
p1607
aVn't
p1608
aVlisten
p1609
aVto
p1610
aVhim
p1611
ag24
aaa(lp1612
Vkramer
p1613
a(lp1614
g14
aV'll
p1615
aVtell
p1616
aVyou
p1617
aVwhat
p1618
aVto
p1619
aVdo
p1620
ag13
ag14
aV'll
p1621
aVtell
p1622
aVyou
p1623
aVwhat
p1624
aVto
p1625
aVdo
p1626
ag24
aVyou
p1627
aVgo
p1628
aVto
p1629
aVtor
p1630
aVeckman
p1631
ag24
aVtor
p1632
ag13
aVtor
p1633
ag13
aVhe
p1634
aV'll
p1635
aVfix
p1636
aVyou
p1637
aVright
p1638
aVup
p1639
ag24
aVhe
p1640
aV's
p1641
ag26
aVherbalist
p1642
ag13
ag26
aVhealer
p1643
ag13
aVgeorge
p1644
ag24
aVhe
p1645
aV's
p1646
aVnot
p1647
aVjust
p1648
aVgon
p1649
aVna
p1650
aVfix
p1651
aVthe
p1652
aVtonsils
p1653
aVand
p1654
aVthe
p1655
aVadenoids
p1656
ag13
aVhe
p1657
aVis
p1658
aVgon
p1659
aVna
p1660
aVchange
p1661
aVthe
p1662
aVwhole
p1663
aVway
p1664
aVyou
p1665
aVfunction
p1666
ag620
aVbody
p1667
aVand
p1668
aVmind
p1669
ag24
aaa(lp1670
Vjerry
p1671
a(lp1672
Veckman
p1673
ag46
ag14
aVthought
p1674
aVhe
p1675
aVwas
p1676
aVdoing
p1677
aVtime
p1678
ag46
aaa(lp1679
Vkramer
p1680
a(lp1681
Vno
p1682
ag13
aVno
p1683
ag13
aVhe
p1684
aV's
p1685
aVout
p1686
ag24
aVhe
p1687
aVgot
p1688
aVout
p1689
ag24
aVsee
p1690
ag13
aVthe
p1691
aVmedical
p1692
aVestablishment
p1693
ag13
aVsee
p1694
ag13
aVthey
p1695
aVtried
p1696
aVto
p1697
aVframe
p1698
aVhim
p1699
ag24
aVit
p1700
aV's
p1701
aVall
p1702
aVpolitics
p1703
ag24
aVbut
p1704
aVhe
p1705
aV's
p1706
ag26
aVrebel
p1707
ag24
aaa(lp1708
Vjerry
p1709
a(lp1710
g26
aVrebel
p1711
ag46
aVno
p1712
ag24
aVjohnny
p1713
aVyuma
p1714
aVwas
p1715
ag26
aVrebel
p1716
ag24
aVeckman
p1717
aVis
p1718
ag26
aVnut
p1719
ag24
aVgeorge
p1720
ag13
aVyou
p1721
aVwant
p1722
aVto
p1723
aVtake
p1724
aVcare
p1725
aVof
p1726
aVyour
p1727
aVtonsils
p1728
ag13
aVyou
p1729
aVdo
p1730
aVit
p1731
aVin
p1732
ag26
aVhospital
p1733
ag24
aVwith
p1734
ag26
aVdoctor
p1735
ag24
aaa(lp1736
Vkramer
p1737
a(lp1738
Vhe
p1739
aV's
p1740
aVholistic
p1741
ag13
aVgeorge
p1742
ag24
aVhe
p1743
aV's
p1744
aVholistic
p1745
ag24
aaa(lp1746
Vgeorge
p1747
a(lp1748
Vholistic
p1749
aVthat
p1750
aVsounds
p1751
aVright
p1752
ag24
aaa(lp1753
Vjerry
p1754
a(lp1755
Vgeorge
p1756
ag13
aVyou
p1757
aVneed
p1758
ag26
aVmedical
p1759
aVdoctor
p1760
ag24
aaa(lp1761
Vgeorge
p1762
a(lp1763
Vlet
p1764
aVme
p1765
aVask
p1766
aVyou
p1767
aVsomething
p1768
aVhow
p1769
aVmuch
p1770
aVdo
p1771
aVyou
p1772
aVthink
p1773
aVit
p1774
aVwould
p1775
aVcost
p1776
aVto
p1777
aVhave
p1778
aVtonsils
p1779
aVand
p1780
aVadenoids
p1781
aVremoved
p1782
aVin
p1783
aVthe
p1784
aVhospital
p1785
ag46
aaa(lp1786
Vjerry
p1787
a(lp1788
Vwell
p1789
ag13
aVan
p1790
aVovernight
p1791
aVstay
p1792
aVin
p1793
ag26
aVhospital
p1794
ag46
aVminor
p1795
aVsurgery
p1796
ag46
ag14
aVdunno
p1797
ag13
aVfour
p1798
aVgrand
p1799
ag24
aaa(lp1800
Vgeorge
p1801
a(lp1802
Vuh-huh
p1803
ag24
aVand
p1804
aVhow
p1805
aVmuch
p1806
aVdoes
p1807
aVthe
p1808
aVhealer
p1809
aVcharge
p1810
ag46
aaa(lp1811
Vkramer
p1812
a(lp1813
Vfirst
p1814
aVvisit
p1815
ag46
aVthirty-eight
p1816
aVbucks
p1817
ag24
aaa(lp1818
Vgeorge
p1819
a(lp1820
Voh
p1821
ag13
aVyeah
p1822
ag46
aVholistic
p1823
aVthat
p1824
aV's
p1825
aVwhat
p1826
ag14
aVneed
p1827
ag24
aVthat
p1828
aV's
p1829
aVthe
p1830
aVanswer
p1831
ag24
aaa(lp1832
Vgeorge
p1833
a(lp1834
Vso
p1835
ag13
aVhow
p1836
aVdo
p1837
aVyou
p1838
aVlike
p1839
aVthe
p1840
aVway
p1841
ag14
aVtalked
p1842
aVyou
p1843
aVinto
p1844
aVcomin
p1845
ag633
aVdown
p1846
aVhere
p1847
ag46
aaa(lp1848
Vjerry
p1849
a(lp1850
Vdo
p1851
aVn't
p1852
aVflatter
p1853
aVyourself
p1854
ag13
aVmy
p1855
aVfriend
p1856
ag24
ag14
aV'm
p1857
aVhere
p1858
aVstrictly
p1859
aVfor
p1860
aVmaterial
p1861
ag13
aVand
p1862
ag14
aVhave
p1863
ag26
aVfeeling
p1864
aVthis
p1865
aVis
p1866
ag26
aVpotential
p1867
aVgold
p1868
aVmine
p1869
ag14
aVstill
p1870
aVthink
p1871
aVyou
p1872
aV're
p1873
aVnuts
p1874
ag13
aVthough
p1875
ag24
aaa(lp1876
Vgeorge
p1877
a(lp1878
Vall
p1879
ag14
aVknow
p1880
aVis
p1881
ag14
aV've
p1882
aVbeen
p1883
aVgoing
p1884
aVto
p1885
aVdoctors
p1886
aVall
p1887
aVmy
p1888
aVlife
p1889
ag24
aVwhat
p1890
aVhas
p1891
aVit
p1892
aVgotten
p1893
aVme
p1894
ag46
ag14
aV'm
p1895
aVthirty-three
p1896
aVyears
p1897
aVold
p1898
ag24
ag14
aVhave
p1899
aVn't
p1900
aVoutgrown
p1901
aVthe
p1902
aVproblems
p1903
aVof
p1904
aVpuberty
p1905
ag13
ag14
aV'm
p1906
aValready
p1907
aVfacing
p1908
aVthe
p1909
aVproblems
p1910
aVof
p1911
aVold
p1912
aVage
p1913
ag24
ag14
aVcompletely
p1914
aVskipped
p1915
aVhealthy
p1916
aVadulthood
p1917
ag24
ag14
aVwent
p1918
aVfrom
p1919
aVhaving
p1920
aVorgasms
p1921
aVimmediately
p1922
aVto
p1923
aVtaking
p1924
aVforever
p1925
ag24
aVyou
p1926
aVcould
p1927
aVdo
p1928
aVyour
p1929
aVtaxes
p1930
aVin
p1931
aVthe
p1932
aVtime
p1933
aVit
p1934
aVtakes
p1935
aVme
p1936
aVto
p1937
aVhave
p1938
aVan
p1939
aVorgasm
p1940
ag24
ag14
aV've
p1941
aVnever
p1942
aVhad
p1943
ag26
aVnormal
p1944
ag13
aVmedium
p1945
aVorgasm
p1946
ag24
aaa(lp1947
Vjerry
p1948
a(lp1949
g14
aV've
p1950
aVnever
p1951
aVhad
p1952
ag26
aVreally
p1953
aVgood
p1954
aVpickle
p1955
ag24
aaa(lp1956
Vgeorge
p1957
a(lp1958
Vbesides
p1959
ag13
aVwhat
p1960
aV's
p1961
aVit
p1962
aVgon
p1963
aVna
p1964
aVcost
p1965
aVme
p1966
ag46
aVthirty-eight
p1967
aVbucks
p1968
ag46
aaa(lp1969
Vtor
p1970
a(lp1971
Vwould
p1972
aVyou
p1973
aVnot
p1974
aVput
p1975
aVyour
p1976
aVfoot
p1977
aVon
p1978
aVthat
p1979
aVplease
p1980
ag46
aaa(lp1981
Vjerry
p1982
a(lp1983
Vsorry
p1984
ag24
aaa(lp1985
Vtor
p1986
a(lp1987
Vwhat
p1988
aVmonth
p1989
aVwere
p1990
aVyou
p1991
aVborn
p1992
ag46
aaa(lp1993
Vgeorge
p1994
a(lp1995
Vapril
p1996
ag24
aaa(lp1997
Vtor
p1998
a(lp1999
Vyou
p2000
aVshould
p2001
aVhave
p2002
aVbeen
p2003
aVborn
p2004
aVin
p2005
aVaugust
p2006
ag24
aVyour
p2007
aVparents
p2008
aVwould
p2009
aVhave
p2010
aVbeen
p2011
aVwell-advised
p2012
aVto
p2013
aVwait
p2014
ag24
aaa(lp2015
Vgeorge
p2016
a(lp2017
Vreally
p2018
ag46
aaa(lp2019
Vtor
p2020
a(lp2021
Vdo
p2022
aVyou
p2023
aVuse
p2024
aVhot
p2025
aVwater
p2026
aVin
p2027
aVthe
p2028
aVshower
p2029
ag46
aaa(lp2030
Vgeorge
p2031
a(lp2032
Vyes
p2033
ag24
aaa(lp2034
Vtor
p2035
a(lp2036
Vstop
p2037
aVusing
p2038
aVit
p2039
ag24
aaa(lp2040
Vgeorge
p2041
a(lp2042
Vokay
p2043
ag24
aaa(lp2044
Vkramer
p2045
a(lp2046
g14
aV'm
p2047
aVoff
p2048
aVhot
p2049
aVwater
p2050
ag24
aaa(lp2051
Vtor
p2052
a(lp2053
Vkramer
p2054
aVtells
p2055
aVme
p2056
aVthat
p2057
aVyou
p2058
aVare
p2059
aVinterested
p2060
aVin
p2061
aVan
p2062
aValternative
p2063
aVto
p2064
aVsurgery
p2065
ag24
aaa(lp2066
Vgeorge
p2067
a(lp2068
Vyes
p2069
ag13
aVyes
p2070
ag14
aVam
p2071
ag24
aaa(lp2072
Vtor
p2073
a(lp2074
g14
aVthink
p2075
aVwe
p2076
aVcan
p2077
aVhelp
p2078
aVyou
p2079
ag24
aVsee
p2080
ag13
aVunfortunately
p2081
ag13
aVthe
p2082
aVmedical
p2083
aVestablishment
p2084
aVis
p2085
ag26
aVbusiness
p2086
aVlike
p2087
aVany
p2088
aVother
p2089
aVbusiness
p2090
ag24
aVand
p2091
aVbusiness
p2092
aVneeds
p2093
aVcustomers
p2094
ag24
aVand
p2095
ag13
aVthey
p2096
aVwant
p2097
aVto
p2098
aVsell
p2099
aVyou
p2100
aVtheir
p2101
aVmost
p2102
aVexpensive
p2103
aVitem
p2104
aVwhich
p2105
aVis
p2106
aVunnecessary
p2107
aVsurgery
p2108
ag24
aaa(lp2109
Vgeorge
p2110
a(lp2111
Vcan
p2112
ag14
aVuse
p2113
aVhot
p2114
aVwater
p2115
aVon
p2116
aVmy
p2117
aVface
p2118
ag46
aaa(lp2119
Vtor
p2120
a(lp2121
Vno
p2122
ag24
aVyou
p2123
aVknow
p2124
ag13
ag14
aVam
p2125
aVnot
p2126
ag26
aVbusiness
p2127
aVman
p2128
ag24
ag14
aV'm
p2129
ag26
aVholistic
p2130
aVhealer
p2131
ag24
aVit
p2132
aV's
p2133
ag26
aVcalling
p2134
ag13
aVit
p2135
aV's
p2136
ag26
aVgift
p2137
ag24
aVyou
p2138
aVsee
p2139
ag13
aVit
p2140
aV's
p2141
aVin
p2142
aVthe
p2143
aVbest
p2144
aVinterest
p2145
aVof
p2146
aVthe
p2147
aVmedical
p2148
aVprofession
p2149
aVthat
p2150
aVyou
p2151
aVremain
p2152
aVsick
p2153
ag24
aVyou
p2154
aVsee
p2155
ag13
aVthat
p2156
aVinsures
p2157
aVgood
p2158
aVbusiness
p2159
ag24
aVyou
p2160
aV're
p2161
aVnot
p2162
ag26
aVpatient
p2163
ag24
aVyou
p2164
aV're
p2165
ag26
aVcustomer
p2166
ag24
aaa(lp2167
Vjerry
p2168
a(lp2169
Vand
p2170
aVyou
p2171
aV're
p2172
aVnot
p2173
ag26
aVdoctor
p2174
ag13
aVbut
p2175
aVyou
p2176
aVplay
p2177
aVone
p2178
aVin
p2179
aVreal
p2180
aVlife
p2181
ag24
aaa(lp2182
Vgeorge
p2183
a(lp2184
Vwhat
p2185
aVabout
p2186
aVshaving
p2187
ag46
aaa(lp2188
Vtor
p2189
a(lp2190
Vyou
p2191
aV're
p2192
aVeating
p2193
aVtoo
p2194
aVmuch
p2195
aVdairy
p2196
ag24
aVmay
p2197
ag14
ag46
aaa(lp2198
Vgeorge
p2199
a(lp2200
g14
aVguess
p2201
aVso
p2202
ag24
aaa(lp2203
Vtor
p2204
a(lp2205
Vyou
p2206
aVsee
p2207
ag13
aVyou
p2208
aVare
p2209
aVin
p2210
aVdisharmony
p2211
ag24
aVthe
p2212
aVthroat
p2213
aVis
p2214
aVthe
p2215
aVgateway
p2216
aVto
p2217
aVthe
p2218
aVlung
p2219
ag24
aVtonsillitis
p2220
ag13
aVadenoiditis
p2221
ag13
aVis
p2222
ag13
aVin
p2223
aVchinese
p2224
aVmedical
p2225
aVterms
p2226
ag13
aVand
p2227
aVinvasion
p2228
aVof
p2229
aVheat
p2230
aVand
p2231
aVwind
p2232
ag24
aaa(lp2233
Vjerry
p2234
a(lp2235
Vthere
p2236
aV's
p2237
aVsome
p2238
aVhot
p2239
aVair
p2240
aVblowing
p2241
aVin
p2242
aVhere
p2243
aaa(lp2244
Vtor
p2245
a(lp2246
Vyou
p2247
aVknow
p2248
ag13
ag14
aVlived
p2249
aVwith
p2250
aVthe
p2251
aVeskimos
p2252
aVmany
p2253
aVyears
p2254
aVago
p2255
ag13
aVand
p2256
aVthey
p2257
aVused
p2258
aVto
p2259
aVplunge
p2260
aVtheir
p2261
aVfaces
p2262
aVinto
p2263
aVthe
p2264
aVsnow
p2265
ag24
aaa(lp2266
Vgeorge
p2267
a(lp2268
Vcould
p2269
aVit
p2270
aVbe
p2271
aVlukewarm
p2272
ag46
aaa(lp2273
Vjerry
p2274
a(lp2275
Vtoo
p2276
aVmuch
p2277
aVdairy
p2278
ag46
aVyou
p2279
aVreally
p2280
aVthink
p2281
ag14
aV'm
p2282
aVeating
p2283
aVtoo
p2284
aVmuch
p2285
aVdairy
p2286
ag46
aaa(lp2287
Vdoctor
p2288
a(lp2289
Vthe
p2290
aVtongue
p2291
aVyes
p2292
ag13
aVthe
p2293
aVtongue
p2294
aVor
p2295
ag13
aVin
p2296
aVmedical
p2297
aVterms
p2298
ag13
aVthe
p2299
aVglossa
p2300
ag24
aVit
p2301
aV's
p2302
ag26
aVmuscular
p2303
aVorgan
p2304
aVconsists
p2305
aVof
p2306
aVtwo
p2307
aVparts
p2308
aVthe
p2309
aVbody
p2310
ag13
aVand
p2311
aVthe
p2312
aVroot
p2313
aVyou
p2314
aVsee
p2315
ag13
aVit
p2316
aV's
p2317
aVcovered
p2318
aVby
p2319
aVthis
p2320
aVmucous
p2321
aVmembrane
p2322
aVthese
p2323
aVlittle
p2324
aVraised
p2325
aVprojections
p2326
aVare
p2327
aVthe
p2328
aVpapillae
p2329
ag13
aVwhich
p2330
aVgive
p2331
aVit
p2332
aVthat
p2333
aVfurry
p2334
aVappearance
p2335
ag24
aVvery
p2336
aVtactile
p2337
aaa(lp2338
Velaine
p2339
a(lp2340
Vuh-huh
p2341
ag24
aaa(lp2342
Vtor
p2343
a(lp2344
Vyour
p2345
aVtea
p2346
aVis
p2347
aVready
p2348
aVnow
p2349
ag24
aVthis
p2350
aVwill
p2351
aVsolve
p2352
aVyour
p2353
aVso-called
p2354
aVtonsil
p2355
aVproblem
p2356
ag24
aVit
p2357
aV's
p2358
ag26
aVspecial
p2359
aVconcoction
p2360
ag24
aVit
p2361
aVcontains
p2362
aVcrampbark
p2363
ag24
aaa(lp2364
Vjerry
p2365
a(lp2366
g14
aVlove
p2367
aVcrampbark
p2368
ag24
aaa(lp2369
Vtor
p2370
a(lp2371
Vcleavers
p2372
ag24
aaa(lp2373
Vjerry
p2374
a(lp2375
Vcleaver
p2376
ag13
ag14
aVonce
p2377
aVhad
p2378
aVcleaver
p2379
aVas
p2380
ag26
aVkid
p2381
ag24
ag14
aVwas
p2382
aVable
p2383
aVto
p2384
aVlift
p2385
ag26
aVcar
p2386
ag24
aaa(lp2387
Vtor
p2388
a(lp2389
Vand
p2390
aVsome
p2391
aVcouchgrass
p2392
ag24
aaa(lp2393
Vjerry
p2394
a(lp2395
Vcouchgrass
p2396
aVand
p2397
aVcrampbark
p2398
ag46
aVyou
p2399
aVknow
p2400
ag13
ag14
aVthink
p2401
aVthat
p2402
aV's
p2403
aVwhat
p2404
aVkilled
p2405
aVcurly
p2406
ag24
aaa(lp2407
Vkramer
p2408
a(lp2409
Vgo
p2410
aVahead
p2411
ag13
aVdrink
p2412
aVit
p2413
ag13
aVgeorge
p2414
ag24
aaa(lp2415
Vjerry
p2416
a(lp2417
Vexcuse
p2418
aVme
p2419
ag13
aVtor
p2420
ag24
aVmay
p2421
ag14
aVask
p2422
aVyou
p2423
ag26
aVquestion
p2424
ag46
aVyou
p2425
aVhave
p2426
aVintuitive
p2427
aVabilities
p2428
ag24
aVyou
p2429
aV're
p2430
aVin
p2431
aVtouch
p2432
aVwith
p2433
ag26
aVlot
p2434
aVof
p2435
aVthis
p2436
aVcosmic
p2437
aVkind
p2438
aVof
p2439
aVthings
p2440
ag14
aVhave
p2441
aVthis
p2442
aVnote
p2443
ag14
aVca
p2444
aVn't
p2445
aVread
p2446
ag24
ag14
aVwas
p2447
aVwondering
p2448
aVif-
p2449
aaa(lp2450
Vtor
p2451
a(lp2452
Voh
p2453
ag13
aVyes
p2454
aVyes
p2455
aVcleveland
p2456
aV117
p2457
ag13
aVsan
p2458
aVantonio
p2459
aV109
p2460
aaa(lp2461
Vkramer
p2462
a(lp2463
Vgo
p2464
aVahead
p2465
ag13
aVdrink
p2466
aVit
p2467
ag13
aVgeorge
p2468
ag24
aaa(lp2469
Vgeorge
p2470
a(lp2471
Vhey
p2472
ag13
aVit
p2473
aV's
p2474
aVnot
p2475
aVtoo
p2476
aVbad
p2477
aaa(lp2478
Vgeorge
p2479
a(lp2480
g14
aV'm
p2481
aVan
p2482
aVeggplant
p2483
ag137
ag14
aV'm
p2484
aVan
p2485
aVeggplant
p2486
ag137
ag14
aV'm
p2487
ag26
aVminstrel
p2488
aVman
p2489
ag137
aaa(lp2490
Vdriver
p2491
a(lp2492
g14
aVdid
p2493
aVn't
p2494
aVtake
p2495
aVyour
p2496
aVchuckle
p2497
ag13
aVman
p2498
ag137
aaa(lp2499
Vassistant
p2500
a(lp2501
g14
aVhad
p2502
aVfive
p2503
aVchuckles
p2504
ag24
ag14
aVate
p2505
ag26
aVgreen
p2506
aVone
p2507
ag13
aVand
p2508
aVthe
p2509
aVyellow
p2510
aVone
p2511
ag13
aVand
p2512
aVthe
p2513
aVred
p2514
aVone
p2515
aVis
p2516
aVmissing
p2517
ag137
aaa(lp2518
Vdriver
p2519
a(lp2520
g14
aVdo
p2521
aVn't
p2522
aVeven
p2523
aVlike
p2524
aVchuckles
p2525
ag137
aaa(lp2526
Vjerry
p2527
a(lp2528
Vmaybe
p2529
aVhe
p2530
aVdoes
p2531
aVn't
p2532
aVlike
p2533
aVthem
p2534
ag24
aVthat
p2535
aV's
p2536
aVpossible
p2537
ag24
aaa(lp2538
Vgeorge
p2539
a(lp2540
Vmy
p2541
aVface
p2542
ag137
aVmy
p2543
aVface
p2544
ag137
aVget
p2545
aVme
p2546
aVto
p2547
aVthe
p2548
aVhospital
p2549
ag137
aaa(lp2550
Vassistant
p2551
a(lp2552
g14
aVwant
p2553
aVthat
p2554
aVchuckle
p2555
ag137
aVyou
p2556
aVhear
p2557
aVme
p2558
ag46
ag137
aaa(lp2559
Vjerry
p2560
a(lp2561
g14
aV'll
p2562
aVget
p2563
aVyou
p2564
ag26
aVchuckle
p2565
ag24
aVyou
p2566
aVwant
p2567
aVme
p2568
aVto
p2569
aVget
p2570
aVyou
p2571
ag26
aVchuckle
p2572
ag46
aaa(lp2573
Vassistant
p2574
a(lp2575
Vpull
p2576
aVover
p2577
ag137
aaa(lp2578
Vdriver
p2579
a(lp2580
Vpull
p2581
aVover
p2582
ag46
aVdid
p2583
aVyou
p2584
aVsay
p2585
aVpull
p2586
aVover
p2587
ag46
ag137
aVyou
p2588
aVwant
p2589
ag26
aVpiece
p2590
aVof
p2591
aVme
p2592
ag46
ag137
aaa(lp2593
Vassistant
p2594
a(lp2595
Vyeah
p2596
ag137
aaa(lp2597
Vjerry
p2598
a(lp2599
Vyou
p2600
aV're
p2601
aVgon
p2602
aVna
p2603
aVfight
p2604
ag46
aaa(lp2605
Vgeorge
p2606
a(lp2607
Vnow
p2608
ag46
ag137
ag14
aV'm
p2609
ag26
aVmutant
p2610
ag137
aaa(lp2611
Vkramer
p2612
a(lp2613
Vhey
p2614
ag13
aVlet
p2615
aVme
p2616
aVdrive
p2617
ag24
aaa(lp2618
Vassistant
p2619
a(lp2620
Vcome
p2621
aVon
p2622
ag13
aVman
p2623
ag24
aVpull
p2624
aVover
p2625
ag137
aaa(lp2626
Vdriver
p2627
a(lp2628
Valright
p2629
ag137
ag14
aV'm
p2630
aVgon
p2631
aVna
p2632
aVmess
p2633
aVyou
p2634
aVup
p2635
ag13
aVman
p2636
ag137
aaa(lp2637
Vjerry
p2638
a(lp2639
Vreally
p2640
ag13
aVgentlemen
p2641
ag13
aVplease
p2642
ag24
aaa(lp2643
Vgeorge
p2644
a(lp2645
Vmy
p2646
aVheart
p2647
ag137
aVmy
p2648
aVheart
p2649
ag137
aVwhere
p2650
aVyou
p2651
aVgoing
p2652
ag46
aVare
p2653
aVyou
p2654
aVcrazy
p2655
ag46
ag137
aaa(lp2656
Vassistant
p2657
a(lp2658
g14
aV'm
p2659
aVgon
p2660
aVna
p2661
aVkick
p2662
aVhis
p2663
aVass
p2664
ag24
aaa(lp2665
Vkramer
p2666
a(lp2667
Vhey
p2668
ag13
aVyou
p2669
aVhave
p2670
aVkeys
p2671
ag46
aaa(lp2672
Vgeorge
p2673
a(lp2674
Vyou
p2675
aVca
p2676
aVn't
p2677
aVleave
p2678
ag137
aVthis
p2679
aVis
p2680
aVan
p2681
aVambulance
p2682
ag137
aVthis
p2683
aVis
p2684
aVan
p2685
aVemergency
p2686
ag137
aaa(lp2687
Vjerry
p2688
a(lp2689
Vall
p2690
aVthis
p2691
aVfor
p2692
ag26
aVchuckle
p2693
ag24
aaa(lp2694
Vkramer
p2695
a(lp2696
Vwhat
p2697
aV's
p2698
ag26
aVchuckle
p2699
ag46
aaa(lp2700
Vjerry
p2701
a(lp2702
Vit
p2703
aV's
p2704
ag26
aVjelly
p2705
aVcandy
p2706
ag24
aVit
p2707
aVcomes
p2708
aVin
p2709
aVfive
p2710
aVflavors
p2711
ag24
aaa(lp2712
Vdoctor
p2713
a(lp2714
Vyou
p2715
aVsee
p2716
ag13
aVtaste
p2717
aVbuds
p2718
aVrun
p2719
aVon
p2720
aVgrooves
p2721
aValong
p2722
aVthe
p2723
aVsurfaces
p2724
ag24
aaa(lp2725
Velaine
p2726
a(lp2727
Vcan
p2728
aVyou
p2729
aVlet
p2730
aVgo
p2731
aVof
p2732
aVmy
p2733
aVtongue
p2734
aVnow
p2735
ag46
aaa(lp2736
Vdoctor
p2737
a(lp2738
Vwhat
p2739
ag46
aaa(lp2740
Velaine
p2741
a(lp2742
Vlet
p2743
aVgo
p2744
aVof
p2745
aVmy
p2746
aVtongue
p2747
ag137
aaa(lp2748
Vdoctor
p2749
a(lp2750
Voh
p2751
ag13
aVsorry
p2752
ag24
aaa(lp2753
Velaine
p2754
a(lp2755
Vwell
p2756
ag13
ag14
aVshould
p2757
aVget
p2758
aVgoing
p2759
aVwhat
p2760
aVare
p2761
aVyou
p2762
aVdoing
p2763
ag46
aaa(lp2764
Vdoctor
p2765
a(lp2766
g14
aVwas
p2767
aVgoing
p2768
aVto
p2769
aVkiss
p2770
aVyou
p2771
aVgood
p2772
aVnight
p2773
ag24
aaa(lp2774
Velaine
p2775
a(lp2776
g26
aVkiss
p2777
ag46
aVwith
p2778
aVthe
p2779
aVtongue
p2780
ag46
aVthe
p2781
aVglossa
p2782
aVwith
p2783
aVthe
p2784
aVbumps
p2785
aVand
p2786
aVthe
p2787
aVpapillae
p2788
ag46
aVyech
p2789
ag13
ag14
aVdo
p2790
aVn't
p2791
aVthink
p2792
aVso
p2793
ag24
aaa(lp2794
Vjerry
p2795
a(lp2796
Vyou
p2797
aVjust
p2798
aVca
p2799
aVn't
p2800
aVleave
p2801
aVhim
p2802
aVout
p2803
aVthere
p2804
ag24
aaa(lp2805
Vdriver
p2806
a(lp2807
g14
aVtold
p2808
aVhim
p2809
ag14
aVwas
p2810
aVgon
p2811
aVna
p2812
aVmess
p2813
aVhim
p2814
aVup
p2815
ag24
aaa(lp2816
Vkramer
p2817
a(lp2818
Vwell
p2819
ag13
aVcan
p2820
aVyou
p2821
aVcall
p2822
aVhim
p2823
aVan
p2824
aVambulance
p2825
ag46
aaa(lp2826
Vdriver
p2827
a(lp2828
g14
aVtold
p2829
aVhim
p2830
ag14
aVdid
p2831
aVn't
p2832
aVtake
p2833
aVhis
p2834
aVchuckle
p2835
ag24
ag14
aVdo
p2836
aVn't
p2837
aVeat
p2838
aVthat
p2839
aVgooey
p2840
aVcrap
p2841
ag137
aaa(lp2842
Vkramer
p2843
a(lp2844
Vhey
p2845
ag13
aVwatch
p2846
aVthe
p2847
aVroad
p2848
ag137
aVwatch
p2849
aVthe
p2850
aVroad
p2851
ag13
aVman
p2852
ag137
aaa(lp2853
Vdriver
p2854
a(lp2855
Vhey
p2856
ag13
aVman
p2857
ag13
aVyou
p2858
aVwant
p2859
aVsome
p2860
aVof
p2861
aVwhat
p2862
aVhe
p2863
aVgot
p2864
ag46
ag137
aaa(lp2865
Vkramer
p2866
a(lp2867
Vwatch
p2868
aVout
p2869
ag137
aaa(lp2870
Vjerry
p2871
ag2867
aa(lp2872
Vjerry
p2873
a(lp2874
Vhow
p2875
aVya
p2876
aVdoing
p2877
ag46
aVca
p2878
aVn't
p2879
aVtalk
p2880
ag46
aVhey
p2881
ag13
aVhow
p2882
aV'd
p2883
aVyou
p2884
aVget
p2885
aVthe
p2886
aVplastic
p2887
aVone
p2888
ag46
ag14
aVlike
p2889
aVthat
p2890
ag24
aVso
p2891
aVhow
p2892
aV's
p2893
aVlife
p2894
aVwithout
p2895
aVtonsils
p2896
ag46
aVwhat
p2897
ag46
aVwhat
p2898
aV's
p2899
aVthat
p2900
ag46
aVso
p2901
ag13
aVhow
p2902
aVmuch
p2903
aVis
p2904
aVthis
p2905
aVthing
p2906
aVgon
p2907
aVna
p2908
aVcost
p2909
aVyou
p2910
aVnow
p2911
ag46
aVlike
p2912
ag13
aVfive
p2913
ag13
aVsix
p2914
aVthousand
p2915
ag46
aVwell
p2916
ag13
aVlive
p2917
aVand
p2918
aVlearn
p2919
aVat
p2920
aVleast
p2921
aVwe
p2922
aVlived
p2923
ag24
aVkramer
p2924
aVwent
p2925
aVto
p2926
aVeckman
p2927
aVhe
p2928
aVfeels
p2929
aVbetter
p2930
aValreadyy
p2931
aVwhat
p2932
aVare
p2933
aVyou
p2934
aVdoing
p2935
ag46
aaa(lp2936
Velaine
p2937
a(lp2938
Voh
p2939
ag13
aVpoor
p2940
aVgeorge
p2941
ag24
aVoh
p2942
ag13
ag14
aV'm
p2943
aVsorry
p2944
ag13
aVbut
p2945
ag14
aVca
p2946
aVn't
p2947
aVstay
p2948
aVlong
p2949
ag24
ag14
aVdo
p2950
aVn't
p2951
aVwant
p2952
aVto
p2953
aVrun
p2954
aVinto
p2955
aVdoctor
p2956
aVtongue
p2957
aVhere
p2958
ag13
ag14
aVbrought
p2959
aVyou
p2960
aVsomething
p2961
ag24
aVoh
p2962
ag13
aVplease
p2963
ag13
aVcome
p2964
aVon
p2965
aVit
p2966
aVwas
p2967
aVnothing
p2968
ag24
aaa(lp2969
Vjerry
p2970
a(lp2971
Vhey
p2972
ag13
aVcheck
p2973
aVthe
p2974
aVtv
p2975
ag24
aVtv
p2976
aVvoice
p2977
aVit
p2978
aV's
p2979
aVjust
p2980
aVas
p2981
aVyou
p2982
aVprophesied
p2983
ag24
aVthe
p2984
aVplanets
p2985
aVof
p2986
aVour
p2987
aVsolar
p2988
aVsystem
p2989
ag13
aVincinerating
p2990
ag24
aVlike
p2991
aVflaming
p2992
aVglobes
p2993
ag13
aVsigmond
p2994
ag24
aVlike
p2995
aVflaming
p2996
aVglobes
p2997
ag24
aVah
p2998
ag13
aVha
p2999
ag13
aVha
p3000
ag13
aVha
p3001
aaa(lp3002
Vjerry
p3003
a(lp3004
Vthat
p3005
aV's
p3006
aVit
p3007
ag137
aVthat
p3008
aV's
p3009
aVit
p3010
ag137
aVflaming
p3011
aVglobes
p3012
aVof
p3013
aVsigmond
p3014
ag137
aVflaming
p3015
aVglobes
p3016
aVof
p3017
aVsigmond
p3018
ag137
aVthat
p3019
aV's
p3020
aVmy
p3021
aVnote
p3022
ag137
aVtha'ts
p3023
aVwhat
p3024
ag14
aVthought
p3025
aVwas
p3026
aVso
p3027
aVfunny
p3028
ag46
ag137
aVthat
p3029
aV's
p3030
aVnot
p3031
aVfunny
p3032
aVthere
p3033
aV's
p3034
aVnothing
p3035
aVfunny
p3036
aVabout
p3037
aVthat
p3038
ag24
aaa(lp3039
Vman
p3040
a(lp3041
Vaaahhhgggg
p3042
aV!
p3043
aaa.