(lp0
(lp1
Vjerry
p2
a(lp3
Vthe
p4
aVdeal
p5
aVwritten
p6
aVby
p7
aVlarry
p8
aVdavid
p9
aVi
p10
aV've
p11
aVbeen
p12
aVwatching
p13
aVwomen
p14
aVin
p15
aVthe
p16
aVdepartment
p17
aVstores
p18
aV.
p19
aVthey
p20
aV're
p21
aVtrying
p22
aVon
p23
aVclothes
p24
aV,
p25
aVand
p26
ag10
aV've
p27
aVnoticed
p28
aVthat
p29
aVthey
p30
aVdo
p31
aVit
p32
aVdifferently
p33
aVfrom
p34
aVmen
p35
ag19
aVwomen
p36
aVdo
p37
aVn't
p38
aVtry
p39
aVon
p40
aVthe
p41
aVclothes
p42
ag25
aVthey
p43
aVget
p44
aVbehind
p45
aVthe
p46
aVclothes
p47
ag25
aVyou
p48
aVsee
p49
aV?
p50
aVthey
p51
aVtake
p52
aVa
p53
aVdress
p54
aVoff
p55
aVthe
p56
aVrack
p57
ag25
aVand
p58
aVthey
p59
aVhold
p60
aVit
p61
aVup
p62
aVagainst
p63
aVthemself
p64
ag19
aVthey
p65
aVcan
p66
aVtell
p67
aVsomething
p68
aVfrom
p69
aVthis
p70
ag19
aVthey
p71
aVstick
p72
aVone
p73
aVleg
p74
aVway
p75
aVout
p76
aV'cause
p77
aVthey
p78
aVnedd
p79
aVto
p80
aVknow
p81
ag25
aVif
p82
aVsome
p83
aVday
p84
ag10
aV'm
p85
aVone-legged
p86
ag25
aVand
p87
aVat
p88
ag53
aVfourty-five
p89
aVdegree
p90
aVangle
p91
ag25
aVwhat
p92
aVam
p93
ag10
aVgon
p94
aVna
p95
aVwear
p96
ag50
aVyou
p97
aVnever
p98
aVsee
p99
ag53
aVman
p100
aVdo
p101
aVthat
p102
ag19
aVyou
p103
aVnever
p104
aVsee
p105
ag53
aVguy
p106
aVtake
p107
ag53
aVsuit
p108
aVoff
p109
aVthe
p110
aVrack
p111
ag25
aVput
p112
aVhis
p113
aVhead
p114
aVin
p115
aVthe
p116
aVneck
p117
ag25
aVand
p118
aVgo
p119
ag25
aVwhat
p120
aVdo
p121
aVyou
p122
aVthink
p123
aVabout
p124
aVthis
p125
aVsuit
p126
ag50
ag10
aVthink
p127
ag10
aV'll
p128
aVget
p129
aVit
p130
ag19
aVyeah
p131
ag25
aVit
p132
aVlooks
p133
aVfine
p134
ag19
aVput
p135
aVsome
p136
aVshoes
p137
aVby
p138
aVthe
p139
aVbottom
p140
aVof
p141
aVthe
p142
aVpants
p143
ag25
ag10
aVwan
p144
aVna
p145
aVmake
p146
aVsure
p147
ag19
aVyeah
p148
ag25
aVperfect
p149
ag19
aVand
p150
aVwhat
p151
aVif
p152
ag10
aV'm
p153
aVwalking
p154
ag50
aVmove
p155
aVthe
p156
aVshoes
p157
ag25
aVmove
p158
aVthe
p159
aVshoes
p160
ag25
aVmove
p161
aVthe
p162
aVshoes
p163
ag25
aVmove
p164
aVthe
p165
aVshoes
p166
ag19
aaa(lp167
Vjerry
p168
a(lp169
Vwhat
p170
aVare
p171
aVyou
p172
aVdoing
p173
ag50
aVall
p174
aVright
p175
ag25
aVall
p176
aVright
p177
ag19
aVwhat
p178
aV's
p179
aVthe
p180
aVmatter
p181
aVwith
p182
aVthat
p183
ag50
aVwhat
p184
aVabout
p185
aVthat
p186
aVone
p187
ag50
aaa(lp188
Velaine
p189
a(lp190
Vrobert
p191
aVvaughn
p192
ag25
aVthe
p193
aVhelsinki
p194
aVformula
p195
ag50
aaa(lp196
Vjerry
p197
a(lp198
Vhe
p199
aVwas
p200
aVgood
p201
aVin
p202
aVman
p203
aVfrom
p204
aVuncle
p205
ag19
aaa(lp206
Velaine
p207
a(lp208
Vguess
p209
aVwhose
p210
aVbirthday
p211
aV's
p212
aVcomin
p213
aV'
p214
aVup
p215
aVsoon
p216
ag50
aaa(lp217
Vjerry
p218
a(lp219
g10
aVknow
p220
ag25
ag10
aV'm
p221
aVhaving
p222
aVmy
p223
aVroot
p224
aVcanal
p225
aVthe
p226
aVsame
p227
aVweek
p228
ag19
aaa(lp229
Velaine
p230
a(lp231
Voh
p232
ag25
aVright
p233
ag19
ag10
aVhope
p234
aVyou
p235
aVhave
p236
ag53
aVgood
p237
aVoral
p238
aVsurgeon
p239
aVbecause
p240
aVthat
p241
aVcan
p242
aVbe
p243
aVvery
p244
aVserious
p245
ag19
aVhey
p246
ag25
aVlook
p247
aVat
p248
aVnaked
p249
aVpeople
p250
ag19
aaa(lp251
Vjerry
p252
a(lp253
Vno
p254
ag25
ag10
aVdo
p255
aVn't
p256
aVwan
p257
aVna
p258
aVsee
p259
aVthe
p260
aVnaked
p261
aVpeople
p262
ag19
aaa(lp263
Velaine
p264
a(lp265
Vbeen
p266
ag53
aVwhile
p267
ag50
aaa(lp268
Vjerry
p269
a(lp270
g10
aVhave
p271
ag53
aVvague
p272
aVrecollection
p273
aVof
p274
aVdoing
p275
aVsomething
p276
aVwith
p277
aVsomeone
p278
ag25
aVbut
p279
aVit
p280
aVwas
p281
ag53
aVlong
p282
ag25
aVlong
p283
aVtime
p284
aVago
p285
ag19
aaa(lp286
Velaine
p287
a(lp288
g10
aVthink
p289
aVmy
p290
aVlast
p291
aVtime
p292
aVwas
p293
aVin
p294
aVrochester
p295
ag19
aVmy
p296
aVhair
p297
aVwas
p298
ag53
aVlot
p299
aVshorter
p300
ag19
aaa(lp301
Vjerry
p302
a(lp303
g10
aVremember
p304
aVthat
p305
aVit
p306
aV's
p307
ag53
aVgood
p308
aVthing
p309
ag19
aVsomeday
p310
ag25
ag10
aVhope
p311
aVto
p312
aVdo
p313
aVit
p314
aVagain
p315
ag19
aaa(lp316
Velaine
p317
a(lp318
Vwhat
p319
ag50
aaa(lp320
Vjerry
p321
a(lp322
Vwhat
p323
ag50
aaa(lp324
Velaine
p325
a(lp326
Vwhat
p327
aVwas
p328
aVthat
p329
aVlook
p330
ag50
aaa(lp331
Vjerry
p332
a(lp333
Vwhat
p334
aVlook
p335
ag50
aaa(lp336
Velaine
p337
a(lp338
Vthe
p339
aVlook
p340
aVyou
p341
aVjust
p342
aVgave
p343
aVme
p344
ag19
aaa(lp345
Vjerry
p346
a(lp347
g10
aVgave
p348
ag53
aVlook
p349
ag50
aaa(lp350
Velaine
p351
a(lp352
Vyes
p353
ag19
aaa(lp354
Vjerry
p355
a(lp356
Vwhat
p357
aVkind
p358
aVof
p359
aVlook
p360
ag50
aaa(lp361
Velaine
p362
a(lp363
g10
aVknow
p364
aVthat
p365
aVlook
p366
ag19
aaa(lp367
Vjerry
p368
a(lp369
Vthen
p370
aVwhat
p371
aVwas
p372
aVit
p373
ag50
aaa(lp374
Velaine
p375
a(lp376
Vwhy
p377
aVshould
p378
ag10
aVtell
p379
aVyou
p380
ag50
aaa(lp381
Vjerry
p382
a(lp383
Vwell
p384
ag25
aVyou
p385
aV're
p386
aVthe
p387
aVbig
p388
aVlook
p389
aVexpert
p390
ag19
ag10
aVwan
p391
aVna
p392
aVsee
p393
aVhow
p394
aVsmart
p395
aVyou
p396
aVare
p397
ag19
aaa(lp398
Velaine
p399
a(lp400
Vtrust
p401
aVme
p402
ag19
ag10
aVknow
p403
aVthe
p404
aVlook
p405
ag19
aVso
p406
aaa(lp407
Vjerry
p408
a(lp409
Vwhat
p410
ag50
aaa(lp411
Velaine
p412
a(lp413
Vwhat
p414
aVabout
p415
aVthe
p416
aVlook
p417
ag50
aaa(lp418
Vjerry
p419
a(lp420
g10
aVdo
p421
aVn't
p422
aVknow
p423
ag19
aaa(lp424
Velaine
p425
a(lp426
Vyou
p427
aVgot
p428
aVsomething
p429
aVon
p430
aVyour
p431
aVmind
p432
ag50
aaa(lp433
Vjerry
p434
a(lp435
Vno
p436
ag19
aVthings
p437
aVpop
p438
aVinto
p439
aVyour
p440
aVhead
p441
ag19
aVyou
p442
ag50
aaa(lp443
Velaine
p444
a(lp445
Vthings
p446
aVoccur
p447
aVto
p448
aVme
p449
aVfrom
p450
aVtime
p451
aVto
p452
aVtime
p453
ag19
aaa(lp454
Vjerry
p455
a(lp456
Vyeah
p457
ag25
aVme
p458
aVtoo
p459
ag19
aVwell
p460
ag25
aVyou
p461
aVca
p462
aVn't
p463
aVexpect
p464
aVto
p465
aVjust
p466
aVforget
p467
aVthe
p468
aVpast
p469
aVcompletely
p470
ag19
aaa(lp471
Velaine
p472
a(lp473
Vno
p474
ag25
aVof
p475
aVcourse
p476
aVnot
p477
ag19
aaa(lp478
Vjerry
p479
a(lp480
g10
aVmean
p481
ag25
aVit
p482
aVwas
p483
aVsomething
p484
aVwe
p485
aVdid
p486
ag19
aVprobably
p487
aVabout
p488
ag25
aVwhat
p489
ag50
aVtwenty-five
p490
aVtimes
p491
ag50
aaa(lp492
Velaine
p493
a(lp494
Vthirty-seven
p495
ag19
aaa(lp496
Vjerry
p497
a(lp498
Vyeah
p499
ag25
aVwe
p500
aVpretty
p501
aVmuch
p502
aVknow
p503
aVwhat
p504
aVwe
p505
aV're
p506
aVdoin
p507
ag214
aVin
p508
aVthere
p509
ag19
aaa(lp510
Velaine
p511
a(lp512
Vwe
p513
aVknow
p514
aVthe
p515
aVterrain
p516
ag19
aaa(lp517
Vjerry
p518
a(lp519
Vno
p520
aVbig
p521
aVsurprises
p522
ag19
aaa(lp523
Velaine
p524
a(lp525
Vnope
p526
ag19
aaa(lp527
Vjerry
p528
a(lp529
Vwhat
p530
aVdo
p531
aVyou
p532
aVthink
p533
ag50
aaa(lp534
Velaine
p535
a(lp536
g10
aVdo
p537
aVn't
p538
aVknow
p539
ag19
aVwhat
p540
aVdo
p541
aVyou
p542
aVthink
p543
ag50
aaa(lp544
Vjerry
p545
a(lp546
Vwell
p547
ag25
aVit
p548
aV's
p549
aVsomething
p550
aVto
p551
aVconsider
p552
ag19
aaa(lp553
Velaine
p554
a(lp555
Vyeah
p556
ag19
aaa(lp557
Vjerry
p558
a(lp559
g10
aVmean
p560
ag25
aVlet
p561
aV's
p562
aVsay
p563
aVwe
p564
aVdid
p565
ag19
aaa(lp566
Velaine
p567
a(lp568
Vwhat
p569
aVif
p570
ag19
aaa(lp571
Vjerry
p572
a(lp573
Vis
p574
aVthat
p575
aVlike
p576
aVthe
p577
aVend
p578
aVof
p579
aVthe
p580
aVworld
p581
aVor
p582
aVsomething
p583
ag50
aaa(lp584
Velaine
p585
a(lp586
Vcertainly
p587
aVnot
p588
ag19
aaa(lp589
Vjerry
p590
a(lp591
Vwhy
p592
aVshould
p593
aVn't
p594
aVwe
p595
aVbe
p596
aVable
p597
aVto
p598
aVdo
p599
aVthat
p600
aVonce
p601
aVin
p602
ag53
aVwhile
p603
aVif
p604
aVwe
p605
aVwant
p606
aVto
p607
ag50
aaa(lp608
Velaine
p609
a(lp610
g10
aVknow
p611
ag19
aaa(lp612
Vjerry
p613
a(lp614
g10
aVmean
p615
ag25
aVreally
p616
ag25
aVwhat
p617
aVis
p618
aVthe
p619
aVbig
p620
aVdeal
p621
ag50
aVwe
p622
aVgo
p623
aVin
p624
aVthere
p625
ag19
aVwe
p626
aV're
p627
aVin
p628
aVthere
p629
aVfor
p630
ag53
aVwhile
p631
ag19
aVwe
p632
aVcome
p633
aVright
p634
aVback
p635
aVout
p636
aVhere
p637
ag19
aVit
p638
aV's
p639
aVnot
p640
aVcomplicated
p641
ag19
aaa(lp642
Velaine
p643
a(lp644
Vit
p645
aV's
p646
aValmost
p647
aVstupid
p648
aVif
p649
aVwe
p650
aVdid
p651
aVn't
p652
ag19
aaa(lp653
Vjerry
p654
a(lp655
Vit
p656
aV's
p657
aVmoronic
p658
ag19
aaa(lp659
Velaine
p660
a(lp661
Vabsurd
p662
aV!
p663
aaa(lp664
Vjerry
p665
a(lp666
Vof
p667
aVcourse
p668
ag25
ag10
aVguess
p669
ag25
aVmaybe
p670
ag25
aVsome
p671
aVlittle
p672
aVproblems
p673
aVcould
p674
aVarise
p675
ag19
aaa(lp676
Velaine
p677
a(lp678
Vwe
p679
ag25
aVthere
p680
aVare
p681
aValways
p682
ag53
aVfew
p683
ag19
aaa(lp684
Vjerry
p685
a(lp686
g10
aVmean
p687
ag25
aVif
p688
aVanything
p689
aVhappened
p690
ag25
aVand
p691
aVwe
p692
aVcould
p693
aVn't
p694
aVbe
p695
aVfriends
p696
aVthe
p697
aVway
p698
aVwe
p699
aVare
p700
aVnow
p701
ag25
aVthat
p702
aVwould
p703
aVbe
p704
aVreally
p705
aVbad
p706
ag19
aaa(lp707
Velaine
p708
a(lp709
Vdevastating
p710
ag19
aaa(lp711
Vjerry
p712
a(lp713
Vbecause
p714
aVthis
p715
aVis
p716
aVvery
p717
aVgood
p718
ag19
aaa(lp719
Velaine
p720
a(lp721
Vand
p722
aVthat
p723
aVwould
p724
aVbe
p725
aVgood
p726
ag19
aaa(lp727
Vjerry
p728
a(lp729
Vthat
p730
aVwould
p731
aVbe
p732
aVgood
p733
aVtoo
p734
ag19
aVthe
p735
aVidea
p736
aVis
p737
aVcombine
p738
aVthe
p739
aVthis
p740
aVand
p741
aVthe
p742
aVthat
p743
ag19
aVbut
p744
aVthis
p745
aVcan
p746
aVnot
p747
aVbe
p748
aVdisturbed
p749
ag19
aaa(lp750
Velaine
p751
a(lp752
Vyeah
p753
ag25
aVwe
p754
aVjust
p755
aVwan
p756
aVna
p757
aVtake
p758
aVthis
p759
aVand
p760
aVadd
p761
aVthat
p762
ag19
aaa(lp763
Vjerry
p764
a(lp765
Vbut
p766
aVof
p767
aVcourse
p768
ag25
aVwe
p769
aV'd
p770
aVhave
p771
aVto
p772
aVfigure
p773
aVout
p774
ag53
aVway
p775
aVto
p776
aVavoid
p777
aVthe
p778
aVthings
p779
aVthat
p780
aVcause
p781
aVthe
p782
aVlittle
p783
aVproblems
p784
ag19
aVmaybe
p785
aVsome
p786
aVrules
p787
aVor
p788
aVsomething
p789
ag19
aaa(lp790
Velaine
p791
a(lp792
Vhuh
p793
ag19
aaa(lp794
Vjerry
p795
a(lp796
Vfor
p797
aVexample
p798
ag25
aVnow
p799
ag25
ag10
aVcall
p800
aVyou
p801
aVwhenever
p802
ag10
aV'm
p803
aVinclined
p804
aVand
p805
aVvice
p806
aVversa
p807
ag19
aaa(lp808
Velaine
p809
a(lp810
Vright
p811
ag19
aaa(lp812
Vjerry
p813
a(lp814
Vbut
p815
aVif
p816
aVwe
p817
aVdid
p818
aVthat
p819
ag25
aVwe
p820
aVmight
p821
aVfeel
p822
ag53
aVcertain
p823
aVobligation
p824
aVto
p825
aVcall
p826
ag19
aaa(lp827
Velaine
p828
a(lp829
Vwell
p830
aVwhy
p831
aVshould
p832
aVthat
p833
aVbe
p834
ag50
aVoh
p835
ag25
ag10
aVhave
p836
aVan
p837
aVidea
p838
ag19
ag10
aVhave
p839
aVan
p840
aVidea
p841
ag19
aVno
p842
aVcall
p843
aVthe
p844
aVday
p845
aVafter
p846
aVthat
p847
ag19
aaa(lp848
Vjerry
p849
a(lp850
Vbeautiful
p851
ag19
aVlet
p852
aV's
p853
aVmake
p854
aVit
p855
ag53
aVrule
p856
ag19
aaa(lp857
Velaine
p858
a(lp859
Vall
p860
aVright
p861
ag25
aVsir
p862
ag19
aaa(lp863
Vjerry
p864
a(lp865
Vnow
p866
aVhere
p867
aV's
p868
aVanother
p869
aVlittle
p870
aVrule
p871
ag19
aVwhen
p872
aVwe
p873
aVsee
p874
aVeach
p875
aVother
p876
aVnow
p877
ag25
aVwe
p878
aVretire
p879
aVto
p880
aVour
p881
aVseparate
p882
aVquarters
p883
ag19
aVbut
p884
aVsometimes
p885
ag25
aVwhen
p886
aVpeople
p887
aVget
p888
aVinvolved
p889
aVwith
p890
aVthat
p891
ag25
aVthey
p892
aVfeel
p893
aVpressure
p894
aVto
p895
aVsleep
p896
aVover
p897
ag19
aVwhen
p898
aVthat
p899
aVis
p900
aVnot
p901
aVreally
p902
aVsleep
p903
ag19
aVsleep
p904
aVis
p905
aVseparate
p906
aVfrom
p907
aVthat
p908
ag19
aVand
p909
ag10
aVdo
p910
aVn't
p911
aVsee
p912
aVwhy
p913
aVsleep
p914
aVgot
p915
aVall
p916
aVtied
p917
aVup
p918
aVand
p919
aVconnected
p920
aVwith
p921
aVthat
p922
ag19
aaa(lp923
Velaine
p924
a(lp925
Vokay
p926
ag25
aVokay
p927
ag19
aVspending
p928
aVthe
p929
aVnight
p930
aVis
p931
aVoptional
p932
ag663
aaa(lp933
Vjerry
p934
a(lp935
Vwell
p936
aVnow
p937
aVwe
p938
aV're
p939
aVgettin
p940
ag214
aVsomewhere
p941
ag19
aaa(lp942
Velaine
p943
a(lp944
Vwhat
p945
aVabout
p946
aVthe
p947
aVkiss
p948
aVgoodnight
p949
ag50
aaa(lp950
Vjerry
p951
a(lp952
Vtough
p953
aVone
p954
ag19
aVyou
p955
aV're
p956
aVcall
p957
ag19
aaa(lp958
Velaine
p959
a(lp960
Vit
p961
aV's
p962
aVbrug-wa
p963
ag19
aaa(lp964
Vjerry
p965
a(lp966
Vfine
p967
ag19
aVwell
p968
ag19
aaa(lp969
Velaine
p970
a(lp971
Vwell
p972
ag19
aaa(lp973
Vjerry
p974
a(lp975
Vyou
p976
aVready
p977
ag50
aaa(lp978
Velaine
p979
a(lp980
Vready
p981
ag19
aaa(lp982
Vjerry
p983
a(lp984
Vso
p985
aVthink
p986
aVyou
p987
aVcan
p988
aVhandle
p989
aVthis
p990
ag50
aaa(lp991
Velaine
p992
a(lp993
Vdefinitely
p994
ag19
aaa(lp995
Vkramer
p996
a(lp997
Vhey
p998
ag19
aaa(lp999
Vjerry
p1000
a(lp1001
Vhey
p1002
ag19
aaa(lp1003
Vkramer
p1004
a(lp1005
Vgot
p1006
aVthe
p1007
aVpaper
p1008
ag50
aaa(lp1009
Vjerry
p1010
a(lp1011
Vnot
p1012
aVyet
p1013
ag19
aaa(lp1014
Vkramer
p1015
a(lp1016
Vno
p1017
aVpaper
p1018
ag50
aaa(lp1019
Vjerry
p1020
a(lp1021
g10
aVhave
p1022
aVn't
p1023
aVbeen
p1024
aVout
p1025
aVyet
p1026
ag19
aaa(lp1027
Vkramer
p1028
a(lp1029
Vwell
p1030
ag25
aVwhat
p1031
aV's
p1032
aVtaking
p1033
aVyou
p1034
aVso
p1035
aVlong
p1036
ag50
aVuh
p1037
ag50
aVoh
p1038
ag25
aVwell
p1039
ag25
aVyeah
p1040
aaa(lp1041
Vgeorge
p1042
a(lp1043
Vwhat
p1044
aV's
p1045
aVthe
p1046
aVdeal
p1047
aVwith
p1048
aVaquaman
p1049
ag50
aVcould
p1050
aVhe
p1051
aVgo
p1052
aVon
p1053
aVland
p1054
ag25
aVor
p1055
aVwas
p1056
aVhe
p1057
aVjust
p1058
aVrestricted
p1059
aVto
p1060
aVwater
p1061
ag50
aaa(lp1062
Vjerry
p1063
a(lp1064
Vno
p1065
ag25
ag10
aVthink
p1066
ag10
aVsaw
p1067
aVhim
p1068
aVon
p1069
aVland
p1070
ag53
aVcouple
p1071
aVtimes
p1072
ag19
aVso
p1073
aVhow
p1074
aV's
p1075
aVthe
p1076
aVjob
p1077
aVsituation
p1078
aVgoin
p1079
ag214
ag50
aaa(lp1080
Vgeorge
p1081
a(lp1082
Vstill
p1083
aVlookin
p1084
ag214
ag19
aVit
p1085
aV's
p1086
aVpretty
p1087
aVbad
p1088
aVout
p1089
aVthere
p1090
ag19
aVwhat
p1091
aVabout
p1092
aVyou
p1093
ag50
aaa(lp1094
Vjerry
p1095
a(lp1096
Vnothin
p1097
ag214
aVmuch
p1098
ag19
ag10
aVslept
p1099
aVwith
p1100
aVelaine
p1101
aVlast
p1102
aVnight
p1103
ag19
aaa(lp1104
Vgeorge
p1105
a(lp1106
Voxygen
p1107
ag663
ag10
aVneed
p1108
aVsome
p1109
aVoxygen
p1110
ag663
aVthis
p1111
aVis
p1112
aVmajor
p1113
ag19
aaa(lp1114
Vjerry
p1115
a(lp1116
g10
aVthought
p1117
aVyou
p1118
aV'd
p1119
aVlike
p1120
aVthat
p1121
ag19
aaa(lp1122
Vgeorge
p1123
a(lp1124
Voh
p1125
ag25
aVthis
p1126
aVis
p1127
aVhuge
p1128
ag663
aaa(lp1129
Vjerry
p1130
a(lp1131
g10
aVknow
p1132
ag19
aaa(lp1133
Vgeorge
p1134
a(lp1135
Vall
p1136
aVright
p1137
ag25
aVokay
p1138
ag19
aVlet
p1139
aV's
p1140
aVgo
p1141
ag25
aVdetails
p1142
ag19
aaa(lp1143
Vjerry
p1144
a(lp1145
Vno
p1146
ag25
ag10
aVca
p1147
aVn't
p1148
aVdo
p1149
aVdetails
p1150
ag19
aaa(lp1151
Vgeorge
p1152
a(lp1153
Vyou
p1154
aVwha
p1155
ag50
aaa(lp1156
Vjerry
p1157
a(lp1158
g10
aVca
p1159
aVn't
p1160
aVgive
p1161
aVdetails
p1162
ag19
aaa(lp1163
Vgeorge
p1164
a(lp1165
Vno
p1166
aVdetails
p1167
ag50
aaa(lp1168
Vjerry
p1169
a(lp1170
g10
aV'm
p1171
aVnot
p1172
aVin
p1173
aVthe
p1174
aVmood
p1175
ag19
aaa(lp1176
Vgeorge
p1177
a(lp1178
Vyou
p1179
aVask
p1180
aVme
p1181
aVto
p1182
aVhave
p1183
aVlunch
p1184
ag25
aVtell
p1185
aVme
p1186
aVyou
p1187
aVslept
p1188
aVwith
p1189
aVelaine
p1190
ag25
aVand
p1191
aVthen
p1192
aVsay
p1193
aVyou
p1194
aV're
p1195
aVnot
p1196
aVin
p1197
aVthe
p1198
aVmood
p1199
aVfor
p1200
aVdetails
p1201
ag19
aVnow
p1202
aVyou
p1203
aVlisten
p1204
aVto
p1205
aVme
p1206
ag19
ag10
aVwant
p1207
aVdetails
p1208
aVand
p1209
ag10
aVwant
p1210
aVthem
p1211
aVright
p1212
aVnow
p1213
ag19
ag10
aVdo
p1214
aVn't
p1215
aVhave
p1216
ag53
aVjob
p1217
ag25
ag10
aVhave
p1218
aVno
p1219
aVplace
p1220
aVto
p1221
aVgo
p1222
ag19
aVyou
p1223
aV're
p1224
aVnot
p1225
aVin
p1226
aVthe
p1227
aVmood
p1228
ag50
aVwell
p1229
aVyou
p1230
aVget
p1231
aVin
p1232
aVthe
p1233
aVmood
p1234
ag663
aaa(lp1235
Vjerry
p1236
a(lp1237
Vall
p1238
aVright
p1239
ag25
aVokay
p1240
ag19
aVwe
p1241
aV're
p1242
aVin
p1243
aVthe
p1244
aVapartment
p1245
aVwatching
p1246
aVtv
p1247
ag19
aaa(lp1248
Vgeorge
p1249
a(lp1250
Vwhere
p1251
aVare
p1252
aVyou
p1253
aVsitting
p1254
ag50
aaa(lp1255
Vjerry
p1256
a(lp1257
Von
p1258
aVthe
p1259
aVcouch
p1260
ag19
aaa(lp1261
Vgeorge
p1262
a(lp1263
Vnext
p1264
aVto
p1265
aVeach
p1266
aVother
p1267
ag50
aaa(lp1268
Vjerry
p1269
a(lp1270
Vno
p1271
ag25
aVseparated
p1272
ag19
aaa(lp1273
Vgeorge
p1274
a(lp1275
Vtime
p1276
ag50
aaa(lp1277
Vjerry
p1278
a(lp1279
Vabout
p1280
aVeleven
p1281
ag19
aaa(lp1282
Vgeorge
p1283
a(lp1284
Vokay
p1285
ag25
aVgo
p1286
aVahead
p1287
ag19
aaa(lp1288
Vjerry
p1289
a(lp1290
Vso
p1291
aVshe
p1292
aV's
p1293
aVflipping
p1294
aVaround
p1295
aVthe
p1296
aVtv
p1297
ag25
aVand
p1298
aVshe
p1299
aVgets
p1300
aVto
p1301
aVthe
p1302
aVnaked
p1303
aVstation
p1304
ag19
aaa(lp1305
Vgeorge
p1306
a(lp1307
Voh
p1308
ag25
aVsee
p1309
ag50
aVthat
p1310
aV's
p1311
aVwhy
p1312
ag10
aVdo
p1313
aVn't
p1314
aVhave
p1315
aVcable
p1316
aVin
p1317
aVmy
p1318
aVhouse
p1319
ag19
aVbecause
p1320
aVof
p1321
aVthat
p1322
aVnaked
p1323
aVstation
p1324
ag19
aVif
p1325
ag10
aVhad
p1326
aVthat
p1327
aVin
p1328
aVmy
p1329
aVhouse
p1330
ag25
ag10
aVwould
p1331
aVnever
p1332
aVturn
p1333
aVit
p1334
aVoff
p1335
ag19
ag10
aVwould
p1336
aVn't
p1337
aVsleep
p1338
ag25
ag10
aVwould
p1339
aVn't
p1340
aVeat
p1341
ag19
aVeventually
p1342
ag25
aVfiremen
p1343
aVwould
p1344
aVhave
p1345
aVto
p1346
aVbreak
p1347
aVthrough
p1348
aVthe
p1349
aVdoor
p1350
ag25
aVthey
p1351
aV'd
p1352
aVfind
p1353
aVme
p1354
aVsitting
p1355
aVthere
p1356
aVin
p1357
aVmy
p1358
aVpajamas
p1359
aVwith
p1360
aVdrool
p1361
aVcoming
p1362
aVdown
p1363
aVmy
p1364
aVface
p1365
ag19
aVall
p1366
aVright
p1367
ag25
aVall
p1368
aVright
p1369
ag19
aVso
p1370
aVyou
p1371
aV're
p1372
aVwatching
p1373
aVthe
p1374
aVnaked
p1375
aVstation
p1376
ag19
aaa(lp1377
Vjerry
p1378
a(lp1379
Vand
p1380
aVthen
p1381
ag25
aVsomehow
p1382
ag25
aVwe
p1383
aVstarted
p1384
aVtalking
p1385
aVabout
p1386
ag25
aVwhat
p1387
aVif
p1388
aVwe
p1389
aVhad
p1390
aVsex
p1391
ag19
aaa(lp1392
Vgeorge
p1393
a(lp1394
Vboy
p1395
ag25
aVthese
p1396
aVare
p1397
aVreally
p1398
aVbad
p1399
aVdetails
p1400
ag19
aaa(lp1401
Vjerry
p1402
a(lp1403
Vit
p1404
aVpains
p1405
aVme
p1406
aVto
p1407
aVsay
p1408
aVthis
p1409
ag25
aVbut
p1410
ag10
aVmay
p1411
aVbe
p1412
aVgetting
p1413
aVto
p1414
aVmature
p1415
aVfor
p1416
aVdetails
p1417
ag19
aaa(lp1418
Vgeorge
p1419
a(lp1420
Voh
p1421
ag10
aVhate
p1422
aVto
p1423
aVhear
p1424
aVthis
p1425
ag19
aVthat
p1426
aVkind
p1427
aVof
p1428
aVgrowth
p1429
aVreally
p1430
aVirritates
p1431
aVme
p1432
ag19
aaa(lp1433
Vjerry
p1434
a(lp1435
Vwell
p1436
ag19
ag10
aV'll
p1437
aVtell
p1438
aVyou
p1439
aVthough
p1440
ag19
aVit
p1441
aVwas
p1442
aVreally
p1443
aVpassionate
p1444
ag19
aaa(lp1445
Vgeorge
p1446
a(lp1447
Vbetter
p1448
aVthan
p1449
aVbefore
p1450
ag50
aaa(lp1451
Vjerry
p1452
a(lp1453
Vshe
p1454
aVmust
p1455
aV've
p1456
aVtaken
p1457
aVsome
p1458
aVkind
p1459
aVof
p1460
aVseminar
p1461
aVor
p1462
aVsomething
p1463
ag19
aaa(lp1464
Vgeorge
p1465
a(lp1466
Vthis
p1467
aVis
p1468
aVall
p1469
aVtoo
p1470
aVmuch
p1471
ag19
aVso
p1472
aVwhat
p1473
aVare
p1474
aVyou
p1475
aVfeeling
p1476
ag50
aVwhat
p1477
aV's
p1478
aVgoing
p1479
aVon
p1480
ag50
aVare
p1481
aVyou
p1482
aVlike
p1483
ag53
aVcouple
p1484
aVagain
p1485
aVnow
p1486
ag50
aaa(lp1487
Vjerry
p1488
a(lp1489
Vnot
p1490
aVexactly
p1491
ag19
aaa(lp1492
Vgeorge
p1493
a(lp1494
Vnot
p1495
aVexactly
p1496
ag19
aVwhat
p1497
aVdoes
p1498
aVthat
p1499
aVmean
p1500
ag50
aaa(lp1501
Vjerry
p1502
a(lp1503
Vwell
p1504
ag25
aVwe
p1505
aV've
p1506
aVtried
p1507
aVto
p1508
aVarrange
p1509
ag53
aVsituation
p1510
aVwhere
p1511
aVwe
p1512
aV'll
p1513
aVbe
p1514
aVable
p1515
aVto
p1516
aVdo
p1517
aVthis
p1518
aVonce
p1519
aVin
p1520
ag53
aVwhile
p1521
aVand
p1522
aVstill
p1523
aVbe
p1524
aVfriends
p1525
ag19
aaa(lp1526
Vgeorge
p1527
a(lp1528
Vwhere
p1529
aVare
p1530
aVyou
p1531
aVliving
p1532
ag50
aVare
p1533
aVyou
p1534
aVhere
p1535
ag50
aVare
p1536
aVyou
p1537
aVon
p1538
aVthis
p1539
aVplanet
p1540
ag50
aVit
p1541
aV's
p1542
aVimpossible
p1543
ag19
aVit
p1544
aVca
p1545
aVn't
p1546
aVbe
p1547
aVdone
p1548
ag19
aVthousands
p1549
aVof
p1550
aVyears
p1551
aVpeople
p1552
aVhave
p1553
aVbeen
p1554
aVtrying
p1555
aVto
p1556
aVhave
p1557
aVtheir
p1558
aVcake
p1559
aVand
p1560
aVeat
p1561
aVit
p1562
aVtoo
p1563
ag19
aVso
p1564
aVall
p1565
aVof
p1566
ag53
aVsudden
p1567
aVthe
p1568
aVtwo
p1569
aVof
p1570
aVyou
p1571
aVare
p1572
aVgoing
p1573
aVto
p1574
aVcome
p1575
aValong
p1576
aVand
p1577
aVdo
p1578
aVit
p1579
ag19
aVwhere
p1580
aVdo
p1581
aVyou
p1582
aVget
p1583
aVthe
p1584
aVego
p1585
ag50
aVno
p1586
aVone
p1587
aVcan
p1588
aVdo
p1589
aVit
p1590
ag19
aVit
p1591
aVca
p1592
aVn't
p1593
aVbe
p1594
aVdone
p1595
ag19
aaa(lp1596
Vjerry
p1597
a(lp1598
g10
aVthink
p1599
aVwe
p1600
aV've
p1601
aVworked
p1602
aVout
p1603
ag53
aVsystem
p1604
ag19
aaa(lp1605
Vgeorge
p1606
a(lp1607
Voh
p1608
ag25
aVyou
p1609
aVknow
p1610
aVwhat
p1611
aVyou
p1612
aV're
p1613
aVlike
p1614
ag50
aVyou
p1615
aV're
p1616
aVlike
p1617
ag53
aVpathetic
p1618
aVgambler
p1619
ag19
aVyou
p1620
aV're
p1621
aVone
p1622
aVof
p1623
aVthose
p1624
aVlosers
p1625
aVin
p1626
aVlas
p1627
aVvegas
p1628
aVwho
p1629
aVkeeps
p1630
aVthinking
p1631
aVhe
p1632
aV's
p1633
aVgon
p1634
aVna
p1635
aVcome
p1636
aVup
p1637
aVwith
p1638
ag53
aVway
p1639
aVto
p1640
aVwin
p1641
aVat
p1642
aVblackjack
p1643
ag19
aaa(lp1644
Vjerry
p1645
a(lp1646
Vno
p1647
ag25
aVthis
p1648
aVis
p1649
aVvery
p1650
aVadvanced
p1651
ag19
aVwe
p1652
aV've
p1653
aVdesigned
p1654
aVat
p1655
aVset
p1656
aVof
p1657
aVrules
p1658
aVthat
p1659
aVwe
p1660
aVcan
p1661
aVmaintain
p1662
aVthe
p1663
aVfriendship
p1664
aVby
p1665
aVadvancing
p1666
aVall
p1667
aVof
p1668
aVthe
p1669
aVrelationship
p1670
aVpitfalls
p1671
ag19
aaa(lp1672
Vgeorge
p1673
a(lp1674
Vsure
p1675
ag25
aVall
p1676
aVright
p1677
ag19
aVtell
p1678
aVme
p1679
aVthe
p1680
aVrules
p1681
ag19
aaa(lp1682
Vjerry
p1683
a(lp1684
Vokay
p1685
ag19
aVno
p1686
aVcalls
p1687
aVthe
p1688
aVnext
p1689
aVday
p1690
ag19
aaa(lp1691
Vgeorge
p1692
a(lp1693
Vso
p1694
aVyou
p1695
aV're
p1696
aVhavin
p1697
ag214
aVthe
p1698
aVsex
p1699
ag25
aVnext
p1700
aVday
p1701
aVyou
p1702
aVdo
p1703
aVn't
p1704
aVhave
p1705
aVto
p1706
aVcall
p1707
ag19
aVthat
p1708
aV's
p1709
aVpretty
p1710
aVgood
p1711
ag19
aVgo
p1712
aVahead
p1713
ag19
aaa(lp1714
Vjerry
p1715
a(lp1716
Vyou
p1717
aVready
p1718
aVfor
p1719
aVthe
p1720
aVsecond
p1721
aVone
p1722
ag50
aaa(lp1723
Vgeorge
p1724
a(lp1725
g10
aVhave
p1726
aVtell
p1727
aVyou
p1728
ag25
ag10
aV'm
p1729
aVpretty
p1730
aVimpressed
p1731
aVwith
p1732
aVthe
p1733
aVfirst
p1734
aVone
p1735
ag19
aaa(lp1736
Vjerry
p1737
a(lp1738
Vspending
p1739
aVthe
p1740
aVnight
p1741
ag19
aVoptional
p1742
ag19
aaa(lp1743
Vgeorge
p1744
a(lp1745
Vno
p1746
ag25
aVyou
p1747
aVsee
p1748
ag50
aVyou
p1749
aVgot
p1750
aVgreedy
p1751
ag19
aaa(lp1752
Vjerry
p1753
a(lp1754
Vno
p1755
ag25
aVthat
p1756
aV's
p1757
aVthe
p1758
aVrule
p1759
ag19
aVit
p1760
aV's
p1761
aVoptional
p1762
ag19
aaa(lp1763
Vgeorge
p1764
a(lp1765
g10
aVknow
p1766
aVless
p1767
aVabout
p1768
aVwomen
p1769
aVthan
p1770
aVanyone
p1771
aVin
p1772
aVthe
p1773
aVworld
p1774
ag19
aVbut
p1775
aVone
p1776
aVthing
p1777
ag10
aVdo
p1778
aVknow
p1779
aVis
p1780
aVthey
p1781
aV're
p1782
aVnot
p1783
aVhappy
p1784
aVif
p1785
aVyou
p1786
aVdo
p1787
aVn't
p1788
aVspend
p1789
aVthe
p1790
aVnight
p1791
ag19
ag10
aVcould
p1792
aVbe
p1793
ag53
aVhot
p1794
ag25
aVsweaty
p1795
aVroom
p1796
aVwith
p1797
aVno
p1798
aVair
p1799
aVconditioning
p1800
aVand
p1801
aVall
p1802
aVthey
p1803
aVhave
p1804
aVis
p1805
ag53
aVlittle
p1806
aVarmy
p1807
aVcot
p1808
aVthis
p1809
aVwide
p1810
aVyou
p1811
aV're
p1812
aVnot
p1813
aVgoing
p1814
aVanywhere
p1815
ag19
aaa(lp1816
Vjerry
p1817
a(lp1818
g10
aVthink
p1819
aVyou
p1820
aV're
p1821
aVwrong
p1822
ag19
aaa(lp1823
Vgeorge
p1824
a(lp1825
g10
aVhope
p1826
ag10
aVam
p1827
ag19
aaa(lp1828
Vjerry
p1829
a(lp1830
Vis
p1831
aVthis
p1832
aVyours
p1833
aVor
p1834
aVthe
p1835
aVroommate
p1836
aV's
p1837
ag50
aaa(lp1838
Velaine
p1839
a(lp1840
Vthe
p1841
aVroommate
p1842
aV's
p1843
ag19
aaa(lp1844
Vjerry
p1845
a(lp1846
Vwould
p1847
aVshe
p1848
aVmind
p1849
ag50
aaa(lp1850
Velaine
p1851
a(lp1852
Vshe
p1853
aVkeeps
p1854
aVtrack
p1855
aVof
p1856
aVeverything
p1857
ag19
aaa(lp1858
Vjerry
p1859
a(lp1860
Vwell
p1861
ag25
aVthat
p1862
aV's
p1863
aVtoo
p1864
aVbad
p1865
ag25
aV'cause
p1866
ag10
aV'm
p1867
aVtakin
p1868
ag214
aVit
p1869
ag19
aaa(lp1870
Velaine
p1871
a(lp1872
Vthanks
p1873
ag19
aaa(lp1874
Vjerry
p1875
a(lp1876
Vwell
p1877
ag25
aVguess
p1878
ag10
aV'll
p1879
aVget
p1880
aVgoing
p1881
ag19
aaa(lp1882
Velaine
p1883
a(lp1884
Voh
p1885
ag19
aaa(lp1886
Vjerry
p1887
a(lp1888
Vwell
p1889
ag25
ag10
aVhave
p1890
aVthat
p1891
aVroot
p1892
aVcanal
p1893
aVtomorrow
p1894
aVmorning
p1895
ag19
aVit
p1896
aV'll
p1897
aVbe
p1898
aVeasier
p1899
aVif
p1900
ag10
aVgo
p1901
aVhome
p1902
ag19
aaa(lp1903
Velaine
p1904
a(lp1905
Vfine
p1906
ag25
aVgo
p1907
aVaway
p1908
ag19
aaa(lp1909
Vjerry
p1910
a(lp1911
g10
aVdo
p1912
aVn't
p1913
aVunderstand
p1914
ag19
aVis
p1915
aVthere
p1916
ag53
aVproblem
p1917
ag50
ag10
aV'm
p1918
aVgetting
p1919
aVthe
p1920
aVimpression
p1921
aVthere
p1922
aV's
p1923
ag53
aVproblem
p1924
ag19
aaa(lp1925
Velaine
p1926
a(lp1927
Vjust
p1928
aVgo
p1929
ag19
aaa(lp1930
Vjerry
p1931
a(lp1932
g10
aV'm
p1933
aVhaving
p1934
aVsurgery
p1935
aVtomorrow
p1936
ag19
aaa(lp1937
Velaine
p1938
a(lp1939
Voh
p1940
ag25
aVsurgery
p1941
ag19
aVyou
p1942
aV're
p1943
aVgoing
p1944
aVto
p1945
aVthe
p1946
aVdentist
p1947
ag19
aaa(lp1948
Vjerry
p1949
a(lp1950
Vbut
p1951
aVyou
p1952
aVsaid
p1953
ag25
aVit
p1954
aVcan
p1955
aVbe
p1956
aVvery
p1957
aVserious
p1958
ag19
aaa(lp1959
Velaine
p1960
a(lp1961
Vokay
p1962
ag25
aVso
p1963
aVfine
p1964
ag19
aVgo
p1965
ag19
aaa(lp1966
Vjerry
p1967
a(lp1968
Vwhat
p1969
aVhappened
p1970
aVto
p1971
aVthe
p1972
aVrules
p1973
ag50
aVremember
p1974
ag50
aVsleeping
p1975
aVover
p1976
aVwas
p1977
aVoptional
p1978
ag19
aaa(lp1979
Velaine
p1980
a(lp1981
Vyeah
p1982
ag25
aVit
p1983
aV's
p1984
aVmy
p1985
aVhouse
p1986
ag25
aVit
p1987
aV's
p1988
aVmy
p1989
aVoption
p1990
ag19
aaa(lp1991
Vjerry
p1992
a(lp1993
Vit
p1994
aVhas
p1995
aVnothing
p1996
aVto
p1997
aVdo
p1998
aVwith
p1999
aVwhose
p2000
aVhouse
p2001
aVit
p2002
aVis
p2003
ag19
aaa(lp2004
Velaine
p2005
a(lp2006
Voh
p2007
ag25
aVof
p2008
aVcourse
p2009
aVit
p2010
aVdoes
p2011
ag19
aaa(lp2012
Vtina
p2013
a(lp2014
Vhi
p2015
ag19
aVelaine
p2016
aV+
p2017
aVjerry
p2018
aVhi
p2019
ag19
aaa(lp2020
Vtina
p2021
a(lp2022
Vhi
p2023
ag25
aVjerry
p2024
ag19
aaa(lp2025
Vjerry
p2026
a(lp2027
Vhi
p2028
ag19
aaa(lp2029
Vtina
p2030
a(lp2031
Vsuch
p2032
ag53
aVgreat
p2033
aVimprov
p2034
aVclass
p2035
aVtonight
p2036
ag19
aaa(lp2037
Velaine
p2038
a(lp2039
Voh
p2040
aVreally
p2041
ag50
aaa(lp2042
Vtina
p2043
a(lp2044
g10
aVhad
p2045
aVthis
p2046
aVimprov
p2047
aVwhere
p2048
ag10
aVpretended
p2049
ag10
aVwas
p2050
aVworking
p2051
aVin
p2052
aVone
p2053
aVof
p2054
aVthose
p2055
aVbooths
p2056
ag19
aVyou
p2057
aVknow
p2058
ag25
aVin
p2059
aVthe
p2060
aVamusement
p2061
aVpark
p2062
ag25
aVwhere
p2063
aVyou
p2064
aVhave
p2065
aVto
p2066
aVshoot
p2067
aVthe
p2068
aVwater
p2069
aVin
p2070
aVthe
p2071
aVclown
p2072
aV's
p2073
aVmouth
p2074
aVand
p2075
aVyou
p2076
aVhave
p2077
aVto
p2078
aVblow
p2079
aVup
p2080
aVthe
p2081
aVballoon
p2082
ag19
aaa(lp2083
Velaine
p2084
a(lp2085
Vuh
p2086
ag25
aVtina
p2087
ag50
aVcould
p2088
aVyou
p2089
aVexcuse
p2090
aVus
p2091
aVfor
p2092
aVjust
p2093
aVone
p2094
aVsecond
p2095
ag50
aaa(lp2096
Vtina
p2097
a(lp2098
Voh
p2099
ag25
aVyeah
p2100
ag19
ag10
aV'll
p2101
aVexcuse
p2102
aVyou
p2103
ag19
aaa(lp2104
Velaine
p2105
a(lp2106
Vwhat
p2107
aVare
p2108
aVyou
p2109
aVdoing
p2110
ag50
aaa(lp2111
Vjerry
p2112
a(lp2113
g10
aVca
p2114
aVn't
p2115
aVgo
p2116
aVif
p2117
aVyou
p2118
aV're
p2119
aVmad
p2120
ag19
aaa(lp2121
Velaine
p2122
a(lp2123
g10
aV'm
p2124
aVnot
p2125
aVmad
p2126
ag19
aaa(lp2127
Vjerry
p2128
a(lp2129
Vyou
p2130
aVseemed
p2131
ag53
aVlittle
p2132
aVmad
p2133
ag19
aaa(lp2134
Velaine
p2135
a(lp2136
Vno
p2137
ag25
aVno
p2138
ag19
aVjerry
p2139
ag25
ag10
aV'm
p2140
aVfine
p2141
aVreally
p2142
ag19
aVit
p2143
aV's
p2144
aVokay
p2145
ag19
aaa(lp2146
Vjerry
p2147
a(lp2148
Vso
p2149
aVyou
p2150
aV're
p2151
aVokay
p2152
aVwith
p2153
aVeverything
p2154
ag50
aaa(lp2155
Velaine
p2156
a(lp2157
Vdefinitely
p2158
ag19
aVare
p2159
aVyou
p2160
ag50
aaa(lp2161
Vjerry
p2162
a(lp2163
Vdefinitely
p2164
ag19
aVwell
p2165
ag25
aVgoodnight
p2166
ag19
aaa(lp2167
Velaine
p2168
a(lp2169
Vgoodn
p2170
aV--
p2171
aVwhat
p2172
aV're
p2173
aVyou
p2174
aVdoing
p2175
ag50
aaa(lp2176
Vjerry
p2177
a(lp2178
Vwhat
p2179
ag50
aaa(lp2180
Velaine
p2181
a(lp2182
Vrules
p2183
ag19
aaa(lp2184
Vtina
p2185
a(lp2186
Vhey
p2187
ag25
aVwho
p2188
aVtook
p2189
aVmy
p2190
aVcake
p2191
ag50
aaa(lp2192
Vgeorge
p2193
a(lp2194
Vwhat
p2195
aVabout
p2196
aVjewelry
p2197
ag50
aVthat
p2198
aV's
p2199
aVvery
p2200
aVnice
p2201
aVgift
p2202
ag19
aaa(lp2203
Vjerry
p2204
a(lp2205
Vno
p2206
ag25
aVno
p2207
ag19
ag10
aVhave
p2208
aVto
p2209
aVbe
p2210
aVvery
p2211
aVcareful
p2212
aVhere
p2213
ag19
ag10
aVdo
p2214
aVn't
p2215
aVwant
p2216
aVto
p2217
aVsend
p2218
aVthe
p2219
aVwrong
p2220
aVmessage
p2221
ag19
aVespecially
p2222
aVafter
p2223
aVthe
p2224
aVother
p2225
aVnight
p2226
ag19
aaa(lp2227
Vgeorge
p2228
a(lp2229
Vmaybe
p2230
ag10
aV'll
p2231
aVget
p2232
aVher
p2233
aVsome
p2234
aVjewelry
p2235
ag19
aaa(lp2236
Vjerry
p2237
a(lp2238
Vno
p2239
ag25
aVno
p2240
ag19
aVyou
p2241
aVca
p2242
aVn't
p2243
aVget
p2244
aVher
p2245
aVanything
p2246
aVbetter
p2247
aVthan
p2248
aVme
p2249
ag19
aVwhatever
p2250
ag10
aVspend
p2251
ag25
aVyou
p2252
aVhave
p2253
aVto
p2254
aVspend
p2255
aVhalf
p2256
ag19
aaa(lp2257
Vgeorge
p2258
a(lp2259
Vwhat
p2260
aVam
p2261
ag10
aVsupposed
p2262
aVto
p2263
aVget
p2264
ag25
ag53
aVbazooka
p2265
ag50
aaa(lp2266
Vjerry
p2267
a(lp2268
Vyou
p2269
aVdo
p2270
aVn't
p2271
aVunderstand
p2272
ag19
ag10
aV'm
p2273
aVin
p2274
ag53
aVvery
p2275
aVdelicate
p2276
aVposition
p2277
ag19
aVwhatever
p2278
ag10
aVgive
p2279
aVher
p2280
ag25
aVshe
p2281
aV's
p2282
aVgoing
p2283
aVto
p2284
aVbe
p2285
aVbringing
p2286
aVin
p2287
aVexperts
p2288
aVfrom
p2289
aVall
p2290
aVover
p2291
aVthe
p2292
aVcountry
p2293
aVto
p2294
aVinterpret
p2295
aVthe
p2296
aVmeaning
p2297
aVbehind
p2298
aVit
p2299
ag19
aaa(lp2300
Vgeorge
p2301
a(lp2302
Vwhat
p2303
aVdoes
p2304
aVshe
p2305
aVneed
p2306
ag50
aVmaybe
p2307
aVthere
p2308
aV's
p2309
aVsomething
p2310
aVthat
p2311
aVshe
p2312
aVneeds
p2313
ag19
aaa(lp2314
Vjerry
p2315
a(lp2316
g10
aVthink
p2317
ag10
aVheard
p2318
aVher
p2319
aVsay
p2320
aVsomething
p2321
aVabout
p2322
ag53
aVbench
p2323
ag19
aaa(lp2324
Vgeorge
p2325
a(lp2326
g53
aVbench
p2327
ag50
aVwhat
p2328
aVkind
p2329
aVof
p2330
ag53
aVbench
p2331
ag50
aaa(lp2332
Vjerry
p2333
a(lp2334
g10
aVdo
p2335
aVn't
p2336
aVknow
p2337
ag25
aVbut
p2338
aVshe
p2339
aVmentioned
p2340
ag53
aVbench
p2341
ag19
aaa(lp2342
Vgeorge
p2343
a(lp2344
Vwhat
p2345
ag25
aVlike
p2346
aVat
p2347
ag53
aVbus
p2348
aVstop
p2349
ag50
aaa(lp2350
Vjerry
p2351
a(lp2352
g10
aVdo
p2353
aVn't
p2354
aVknow
p2355
ag19
aaa(lp2356
Vgeorge
p2357
a(lp2358
Vlike
p2359
ag53
aVpark
p2360
aVbench
p2361
ag50
aaa(lp2362
Vjerry
p2363
a(lp2364
g10
aVhave
p2365
aVno
p2366
aVidea
p2367
ag19
aaa(lp2368
Vgeorge
p2369
a(lp2370
Vwho
p2371
aVputs
p2372
ag53
aVbench
p2373
aVin
p2374
aVtheir
p2375
aVhouse
p2376
ag50
aaa(lp2377
Vjerry
p2378
a(lp2379
Vforget
p2380
aVthe
p2381
aVbench
p2382
ag19
aaa(lp2383
Vgeorge
p2384
a(lp2385
g10
aVgot
p2386
aVit
p2387
ag19
aVyou
p2388
aVwan
p2389
aVna
p2390
aVget
p2391
aVher
p2392
aVsomething
p2393
aVnice
p2394
ag50
aVhow
p2395
aV'bout
p2396
ag53
aVmusic
p2397
aVbox
p2398
ag50
aaa(lp2399
Vjerry
p2400
a(lp2401
Vno
p2402
ag25
aVtoo
p2403
aVrelationshippy
p2404
ag19
aVshe
p2405
aVopens
p2406
aVit
p2407
aVup
p2408
ag25
aVshe
p2409
aVhears
p2410
aVthat
p2411
aVlaura
p2412
aV's
p2413
aVtheme
p2414
ag25
ag10
aV'm
p2415
aVdead
p2416
ag19
aaa(lp2417
Vgeorge
p2418
a(lp2419
Vokay
p2420
ag25
aVwhat
p2421
aVabout
p2422
ag53
aVnice
p2423
aVframe
p2424
ag50
aVwith
p2425
ag53
aVpicture
p2426
aVof
p2427
aVanother
p2428
aVguy
p2429
aVin
p2430
aVit
p2431
ag19
aVframe
p2432
aVsays
p2433
ag10
aVcare
p2434
aVfor
p2435
aVyou
p2436
ag25
aVbut
p2437
aVif
p2438
aVyou
p2439
aVwan
p2440
aVna
p2441
aVget
p2442
aVserious
p2443
ag25
aVperhaps
p2444
aVyou
p2445
aV'd
p2446
aVbe
p2447
aVinterested
p2448
aVin
p2449
aVsomeone
p2450
aVlike
p2451
aVthis
p2452
ag19
aaa(lp2453
Vjerry
p2454
a(lp2455
Vnice
p2456
aVlooking
p2457
aVfellow
p2458
ag19
aaa(lp2459
Vgeorge
p2460
a(lp2461
Vwhat
p2462
aVabout
p2463
aVcandle
p2464
aVholders
p2465
ag50
aaa(lp2466
Vjerry
p2467
a(lp2468
Vtoo
p2469
aVromantic
p2470
ag19
aaa(lp2471
Vgeorge
p2472
a(lp2473
Vlingerie
p2474
ag50
aaa(lp2475
Vjerry
p2476
a(lp2477
Vtoo
p2478
aVsexual
p2479
ag19
aaa(lp2480
Vgeorge
p2481
a(lp2482
Vwaffle
p2483
aVmaker
p2484
ag19
aaa(lp2485
Vjerry
p2486
a(lp2487
Vtoo
p2488
aVdomestic
p2489
ag19
aaa(lp2490
Vgeorge
p2491
a(lp2492
Vbust
p2493
aVof
p2494
aVnelson
p2495
aVrockefeller
p2496
ag19
aaa(lp2497
Vjerry
p2498
a(lp2499
Vtoo
p2500
aVgubernatorial
p2501
ag19
aaa(lp2502
Vgeorge
p2503
a(lp2504
Vlet
p2505
aV's
p2506
aVwork
p2507
aVon
p2508
aVthe
p2509
aVcard
p2510
ag19
aaa(lp2511
Vjerry
p2512
a(lp2513
Vmaybe
p2514
aVyou
p2515
aVwo
p2516
aVn't
p2517
aVlike
p2518
aVit
p2519
ag19
aaa(lp2520
Velaine
p2521
a(lp2522
Voh
p2523
ag25
aVhow
p2524
aVcould
p2525
ag10
aVnot
p2526
aVlike
p2527
aVit
p2528
ag50
aVof
p2529
aVcourse
p2530
ag10
aV'll
p2531
aVlike
p2532
aVit
p2533
ag19
aaa(lp2534
Vjerry
p2535
a(lp2536
Vyou
p2537
aVcould
p2538
aVnot
p2539
aVlike
p2540
aVit
p2541
ag19
aaa(lp2542
Velaine
p2543
a(lp2544
Vjust
p2545
aVthe
p2546
aVfact
p2547
aVthat
p2548
aVyou
p2549
aVremembered
p2550
aVmeans
p2551
aVeverything
p2552
ag19
aaa(lp2553
Vjerry
p2554
a(lp2555
Vof
p2556
aVcourse
p2557
ag10
aVremembered
p2558
ag19
aVyou
p2559
aVreminded
p2560
aVme
p2561
aVeveryday
p2562
aVfor
p2563
aVtwo
p2564
aVmonths
p2565
ag19
aVoh
p2566
ag25
aVthe
p2567
aVcard
p2568
ag19
aaa(lp2569
Velaine
p2570
a(lp2571
Vcash
p2572
ag50
aaa(lp2573
Vjerry
p2574
a(lp2575
Vwould
p2576
aVdo
p2577
aVyou
p2578
aVthink
p2579
ag50
aaa(lp2580
Velaine
p2581
a(lp2582
Vyou
p2583
aVgot
p2584
aVme
p2585
aVcash
p2586
ag50
aaa(lp2587
Vjerry
p2588
a(lp2589
Vwell
p2590
aVthis
p2591
aVway
p2592
ag10
aVfigure
p2593
aVyou
p2594
aVcan
p2595
aVgo
p2596
aVout
p2597
aVand
p2598
aVget
p2599
aVyourself
p2600
aVwhatever
p2601
aVyou
p2602
aVwant
p2603
ag19
aVno
p2604
aVgood
p2605
ag50
aaa(lp2606
Velaine
p2607
a(lp2608
Vwho
p2609
aVare
p2610
aVyou
p2611
ag25
aVmy
p2612
aVuncle
p2613
ag50
aaa(lp2614
Vjerry
p2615
a(lp2616
Vwell
p2617
aVcome
p2618
aVon
p2619
ag19
aVthat
p2620
aV's
p2621
aV$
p2622
aV182
p2623
aVright
p2624
aVthere
p2625
ag19
ag10
aVdo
p2626
aVn't
p2627
aVthink
p2628
aVthat
p2629
aV's
p2630
aVanything
p2631
aVto
p2632
aVsneeze
p2633
aVat
p2634
ag19
aaa(lp2635
Velaine
p2636
a(lp2637
Vlet
p2638
aVme
p2639
aVsee
p2640
aVthe
p2641
aVcard
p2642
ag19
aVto
p2643
ag53
aVwonderful
p2644
aVgirl
p2645
ag25
ag53
aVgreat
p2646
aVpal
p2647
ag25
aVand
p2648
aVmore
p2649
ag50
aaa(lp2650
Vkramer
p2651
a(lp2652
Vhey
p2653
ag19
aVoh
p2654
ag25
aVelaine
p2655
ag19
ag10
aV'm
p2656
aVglad
p2657
aVyou
p2658
aV're
p2659
aVhere
p2660
ag19
aVstay
p2661
aVright
p2662
aVthere
p2663
ag19
ag10
aV'm
p2664
aVgon
p2665
aVna
p2666
aVbe
p2667
aVright
p2668
aVback
p2669
ag19
aaa(lp2670
Velaine
p2671
a(lp2672
Vpal
p2673
ag50
aVyou
p2674
aVthink
p2675
ag10
aV'm
p2676
aVyour
p2677
aVpal
p2678
ag50
aaa(lp2679
Vjerry
p2680
a(lp2681
g10
aVsaid
p2682
ag25
aVand
p2683
aVmore
p2684
ag19
aaa(lp2685
Velaine
p2686
a(lp2687
g10
aVam
p2688
aVnot
p2689
aVyour
p2690
aVpal
p2691
ag19
aaa(lp2692
Vjerry
p2693
a(lp2694
Vwhat
p2695
aV's
p2696
aVwrong
p2697
aVwith
p2698
aVpal
p2699
ag50
aVwhy
p2700
aVis
p2701
aVeveryone
p2702
aVso
p2703
aVdown
p2704
aVon
p2705
aVpal
p2706
ag50
aaa(lp2707
Velaine
p2708
a(lp2709
Voh
p2710
ag25
aVwhat
p2711
aVis
p2712
aVthis
p2713
ag50
aVyou
p2714
aVgot
p2715
aVme
p2716
aVsomething
p2717
ag50
aaa(lp2718
Vkramer
p2719
a(lp2720
Vyeah
p2721
ag19
aVopen
p2722
aVit
p2723
ag19
aaa(lp2724
Velaine
p2725
a(lp2726
Voh
p2727
aVkramer
p2728
aVthe
p2729
aVbench
p2730
ag663
aVyou
p2731
aVgot
p2732
aVme
p2733
aVthe
p2734
aVbench
p2735
aVthat
p2736
ag10
aVwanted
p2737
ag663
aaa(lp2738
Vkramer
p2739
a(lp2740
Vthat
p2741
aV's
p2742
aVpretty
p2743
aVgood
p2744
ag25
aVhuh
p2745
ag50
aaa(lp2746
Vjerry
p2747
a(lp2748
Vgreat
p2749
ag19
aaa(lp2750
Vkramer
p2751
a(lp2752
Vremember
p2753
aVwhen
p2754
aVwe
p2755
aVwere
p2756
aVstanding
p2757
aVthere
p2758
aVand
p2759
aVshe
p2760
aVmentioned
p2761
aVit
p2762
ag50
ag10
aVmade
p2763
ag53
aVmental
p2764
aVnote
p2765
aVof
p2766
aVit
p2767
ag19
aaa(lp2768
Vjerry
p2769
a(lp2770
Vwell
p2771
aVgoody
p2772
aVfor
p2773
aVyou
p2774
ag19
aaa(lp2775
Vkramer
p2776
a(lp2777
Voh
p2778
aVyeah
p2779
ag25
ag10
aV'm
p2780
aVvery
p2781
aVsensitive
p2782
aVabout
p2783
aVthat
p2784
ag19
ag10
aVmean
p2785
ag25
aVwhen
p2786
aVsomeone
p2787
aV's
p2788
aVbirthday
p2789
aVcomes
p2790
aVup
p2791
ag25
ag10
aVkeep
p2792
aVmy
p2793
aVears
p2794
aVopen
p2795
ag19
aVso
p2796
aVwhat
p2797
aV'd
p2798
aVyou
p2799
aVget
p2800
aVher
p2801
ag50
aaa(lp2802
Vjerry
p2803
a(lp2804
V182
p2805
aVbucks
p2806
ag19
aaa(lp2807
Vkramer
p2808
a(lp2809
Vcash
p2810
ag50
aVyou
p2811
aVgot
p2812
aVta
p2813
aVbe
p2814
aVkidding
p2815
ag19
aVwhat
p2816
aVkind
p2817
aVof
p2818
aVgift
p2819
aVis
p2820
aVthat
p2821
ag50
aVthat
p2822
aV's
p2823
aVlike
p2824
aVsomething
p2825
aVher
p2826
aVuncle
p2827
aVwould
p2828
aVget
p2829
aVher
p2830
ag19
aaa(lp2831
Velaine
p2832
a(lp2833
Vthink
p2834
aVwhere
p2835
aVman
p2836
aV's
p2837
aVglory
p2838
aVmost
p2839
aVbegins
p2840
aVand
p2841
aVends
p2842
aVand
p2843
aVsay
p2844
aVmy
p2845
aVglory
p2846
aVwas
p2847
ag10
aVhad
p2848
aVsuch
p2849
ag53
aVfriend
p2850
ag19
aaa(lp2851
Vkramer
p2852
a(lp2853
Vyates
p2854
ag19
aaa(lp2855
Velaine
p2856
a(lp2857
Voh
p2858
aVkramer
p2859
ag19
aaa(lp2860
Vjerry
p2861
a(lp2862
Vcould
p2863
aVyou
p2864
aVexcuse
p2865
aVus
p2866
aVplease
p2867
ag50
aaa(lp2868
Vkramer
p2869
a(lp2870
Vwhat
p2871
ag50
aaa(lp2872
Vjerry
p2873
a(lp2874
Vwe
p2875
aV're
p2876
aVtalking
p2877
ag19
aaa(lp2878
Vkramer
p2879
a(lp2880
Voh
p2881
ag25
aVthe
p2882
aVrelationship
p2883
ag19
aaa(lp2884
Vjerry
p2885
a(lp2886
Vyou
p2887
aVknow
p2888
ag25
aVwe
p2889
aVnever
p2890
aVhad
p2891
aVone
p2892
aVfight
p2893
aVbefore
p2894
aVthis
p2895
aVdeal
p2896
ag19
aaa(lp2897
Velaine
p2898
a(lp2899
g10
aVknow
p2900
ag19
aaa(lp2901
Vjerry
p2902
a(lp2903
Vnever
p2904
ag19
aaa(lp2905
Velaine
p2906
a(lp2907
Vever
p2908
ag19
aaa(lp2909
Vjerry
p2910
a(lp2911
Vwe
p2912
aVgot
p2913
aValong
p2914
aVbeautifully
p2915
ag19
aaa(lp2916
Velaine
p2917
a(lp2918
Vlike
p2919
aVclams
p2920
ag19
aaa(lp2921
Vjerry
p2922
a(lp2923
Vit
p2924
aVwas
p2925
aVwonderful
p2926
ag19
aaa(lp2927
Velaine
p2928
a(lp2929
g53
aVpleasure
p2930
ag19
aaa(lp2931
Vjerry
p2932
a(lp2933
Vso
p2934
ag10
aVthink
p2935
aVwe
p2936
aVshould
p2937
aVjust
p2938
aVforget
p2939
aVthe
p2940
aVwhole
p2941
aVdeal
p2942
ag25
aVand
p2943
aVgo
p2944
aVback
p2945
aVto
p2946
aVbeing
p2947
aVfriends
p2948
ag19
aaa(lp2949
Velaine
p2950
a(lp2951
g10
aVca
p2952
aVn't
p2953
aVdo
p2954
aVit
p2955
ag19
aaa(lp2956
Vjerry
p2957
a(lp2958
Vyou
p2959
aVwhat
p2960
ag50
aaa(lp2961
Velaine
p2962
a(lp2963
g10
aVca
p2964
aVn't
p2965
aVdo
p2966
aVthat
p2967
ag19
aaa(lp2968
Vjerry
p2969
a(lp2970
Vyou
p2971
aVmean
p2972
aVit
p2973
aV's
p2974
aVno
p2975
aVthis
p2976
ag19
aVno
p2977
aVthat
p2978
ag19
aVno
p2979
aVthis
p2980
aVor
p2981
aVthat
p2982
ag19
aVoh
p2983
ag25
aVboy
p2984
ag19
aVwhat
p2985
aVdo
p2986
aVyou
p2987
aVwant
p2988
ag50
aaa(lp2989
Velaine
p2990
a(lp2991
Vthis
p2992
ag25
aVthat
p2993
ag25
aVand
p2994
aVthe
p2995
aVother
p2996
ag19
aaa(lp2997
Vjerry
p2998
a(lp2999
Voh
p3000
ag25
aVsure
p3001
ag19
aVof
p3002
aVcourse
p3003
ag25
aVyou
p3004
aV're
p3005
aVentitled
p3006
ag19
aVwho
p3007
aVdoes
p3008
aVn't
p3009
aVwant
p3010
aVthis
p3011
ag25
aVthat
p3012
ag25
aVand
p3013
aVthe
p3014
aVother
p3015
ag50
aaa(lp3016
Velaine
p3017
a(lp3018
Vyou
p3019
ag19
aaa(lp3020
Vjerry
p3021
a(lp3022
Vwell
p3023
aaa(lp3024
Vgeorge
p3025
a(lp3026
Vthose
p3027
aVbirthdays
p3028
ag19
ag10
aVtold
p3029
aVyou
p3030
ag19
aVthey
p3031
aV're
p3032
aVrelationship
p3033
aVkillers
p3034
ag19
aVif
p3035
ag53
aVrelationship
p3036
aVis
p3037
aVhaving
p3038
aVany
p3039
aVproblems
p3040
aVwhatsoever
p3041
ag25
ag53
aVbirthday
p3042
aVwill
p3043
aValways
p3044
aVbring
p3045
aVit
p3046
aVout
p3047
ag19
aaa(lp3048
Vjerry
p3049
a(lp3050
g10
aVnever
p3051
aVshould
p3052
aVhave
p3053
aVmade
p3054
aVup
p3055
aVthose
p3056
aVrules
p3057
ag19
aaa(lp3058
Vgeorge
p3059
a(lp3060
Vwhat
p3061
aVis
p3062
aVit
p3063
aVabout
p3064
aVsex
p3065
aVthat
p3066
aVjust
p3067
aVdisrupts
p3068
aVeverything
p3069
ag50
aVis
p3070
aVit
p3071
aVthe
p3072
aVtouching
p3073
ag50
aVis
p3074
aVit
p3075
aVthe
p3076
aVnudity
p3077
ag50
aaa(lp3078
Vjerry
p3079
a(lp3080
Vit
p3081
aVca
p3082
aVn't
p3083
aVbe
p3084
aVthe
p3085
aVnudity
p3086
ag19
ag10
aVnever
p3087
aVgot
p3088
aVinto
p3089
aVthese
p3090
aVterrible
p3091
aVfights
p3092
aVand
p3093
aVmisunderstandings
p3094
aVwhen
p3095
ag10
aVwas
p3096
aVchanging
p3097
aVbefore
p3098
aVgym
p3099
aVclass
p3100
ag19
aaa(lp3101
Vgeorge
p3102
a(lp3103
Vyou
p3104
aVknow
p3105
aVwhat
p3106
aVthis
p3107
aVmeans
p3108
ag50
ag10
aVca
p3109
aVn't
p3110
aVsee
p3111
aVher
p3112
aVanymore
p3113
aVeither
p3114
ag19
aaa(lp3115
Vjerry
p3116
a(lp3117
Vwhy
p3118
ag50
aaa(lp3119
Vgeorge
p3120
a(lp3121
Vit
p3122
aV's
p3123
aVbreak
p3124
aVup
p3125
aVby
p3126
aVassociation
p3127
ag19
aVbesides
p3128
ag25
aVshe
p3129
aV's
p3130
aVmad
p3131
aVat
p3132
aVme
p3133
aVanyway
p3134
aVbecause
p3135
aVof
p3136
aVmy
p3137
aVbirthday
p3138
aVpresent
p3139
ag19
aaa(lp3140
Vjerry
p3141
a(lp3142
Vwhat
p3143
aVdid
p3144
aVyou
p3145
aVend
p3146
aVup
p3147
aVgiving
p3148
aVher
p3149
ag50
aaa(lp3150
Vgeorge
p3151
a(lp3152
V91
p3153
aVdollars
p3154
ag19
aaa(lp3155
Vjerry
p3156
a(lp3157
Vsorry
p3158
aVabout
p3159
aVthat
p3160
ag19
aaa(lp3161
Vgeorge
p3162
a(lp3163
Vso
p3164
aVwhat
p3165
aV're
p3166
aVyou
p3167
aVgon
p3168
aVna
p3169
aVdo
p3170
ag50
aaa(lp3171
Vjerry
p3172
a(lp3173
Vwell
p3174
ag25
aVif
p3175
ag10
aVcall
p3176
aVher
p3177
ag25
aVthere
p3178
aV's
p3179
aVno
p3180
aVjoking
p3181
aVaround
p3182
aVanymore
p3183
ag19
aVthis
p3184
aVis
p3185
aVpretty
p3186
aVmuch
p3187
aVit
p3188
ag19
aaa(lp3189
Vgeorge
p3190
a(lp3191
Vso
p3192
ag25
aVmaybe
p3193
aVthis
p3194
aVshould
p3195
aVbe
p3196
aVit
p3197
ag19
aaa(lp3198
Vjerry
p3199
a(lp3200
Vcould
p3201
aVbe
p3202
aVit
p3203
ag19
aaa(lp3204
Vgeorge
p3205
a(lp3206
Vshe
p3207
aVseems
p3208
aVlike
p3209
aVan
p3210
aVit
p3211
ag19
aaa(lp3212
Vjerry
p3213
a(lp3214
Vshe
p3215
aV's
p3216
aVat
p3217
aVit
p3218
aVas
p3219
aVyou
p3220
aVget
p3221
ag19
aVimagine
p3222
aVbumping
p3223
aVinto
p3224
aVher
p3225
aVon
p3226
aVthe
p3227
aVstreet
p3228
aVin
p3229
aVfive
p3230
aVyears
p3231
aVwith
p3232
ag53
aVhusband
p3233
ag19
aVand
p3234
aVshe
p3235
aVtells
p3236
aVme
p3237
aVhe
p3238
aV's
p3239
ag53
aVsculptor
p3240
ag25
aVthey
p3241
aVlive
p3242
aVin
p3243
aVvermont
p3244
aaa(lp3245
Vgeorge
p3246
a(lp3247
Vwe
p3248
aV'd
p3249
aVhave
p3250
aVto
p3251
aVkill
p3252
aVhim
p3253
ag19
aaa(lp3254
Vjerry
p3255
a(lp3256
Vwe
p3257
aV'd
p3258
aVget
p3259
aVcaught
p3260
ag25
ag10
aV'd
p3261
aVget
p3262
aVthe
p3263
aVchair
p3264
ag19
aaa(lp3265
Vgeorge
p3266
a(lp3267
g10
aV'd
p3268
aVgo
p3269
aVto
p3270
aVprison
p3271
aVas
p3272
aVyour
p3273
aVaccomplice
p3274
ag19
ag10
aV'd
p3275
aVhave
p3276
aVto
p3277
aVwear
p3278
aVthat
p3279
aVreally
p3280
aVheavy
p3281
aVdenim
p3282
ag19
aVgo
p3283
aVto
p3284
aVthe
p3285
aVcafeteria
p3286
aVline
p3287
aVwith
p3288
aVthe
p3289
aVguy
p3290
aVwho
p3291
aVslops
p3292
aVthose
p3293
aVmashed
p3294
aVpotatoes
p3295
aVonto
p3296
aVyour
p3297
aVplate
p3298
ag19
aVgo
p3299
aVto
p3300
aVthe
p3301
aVbathroom
p3302
aVin
p3303
aVfront
p3304
aVof
p3305
aVhundreds
p3306
aVof
p3307
aVpeople
p3308
ag19
aaa(lp3309
Vjerry
p3310
a(lp3311
Vplus
p3312
ag25
aVyou
p3313
aVknow
p3314
aVwhat
p3315
aVelse
p3316
ag19
aaa(lp3317
Vgeorge
p3318
a(lp3319
Vyou
p3320
aVbetter
p3321
aVcall
p3322
aVher
p3323
ag19
aaa(lp3324
Vkramer
p3325
a(lp3326
Vhey
p3327
ag19
aaa(lp3328
Vjerry
p3329
a(lp3330
Vhey
p3331
ag19
aaa(lp3332
Vkramer
p3333
a(lp3334
Vyou
p3335
aVgot
p3336
aVthe
p3337
aVpaper
p3338
aVyet
p3339
ag50
aaa(lp3340
Vjerry
p3341
a(lp3342
Vyeah
p3343
ag19
aaa(lp3344
Vkramer
p3345
a(lp3346
Vwell
p3347
aVwhere
p3348
aVis
p3349
aVit
p3350
ag50
aVhey
p3351
ag25
aVyou
p3352
aVdone
p3353
aVwith
p3354
aVthat
p3355
ag50
aaa(lp3356
Velaine
p3357
a(lp3358
Vno
p3359
ag19
aaa(lp3360
Vkramer
p3361
a(lp3362
Vwell
p3363
ag25
aVyou
p3364
aV're
p3365
aVnot
p3366
aVreading
p3367
aVit
p3368
aVnow
p3369
ag19
aaa(lp3370
Velaine
p3371
a(lp3372
Vall
p3373
aVright
p3374
ag25
aVyou
p3375
aVcan
p3376
aVtake
p3377
aVit
p3378
ag19
aVbut
p3379
ag10
aVwant
p3380
aVit
p3381
aVback
p3382
ag19
aaa(lp3383
Vkramer
p3384
a(lp3385
Voh
p3386
aVyeah
p3387
ag19
aVso
p3388
ag25
aVah
p3389
ag25
aVwhat
p3390
aV're
p3391
aVyou
p3392
aVguys
p3393
aVgon
p3394
aVna
p3395
aVdo
p3396
aVtoday
p3397
ag50
aaa(lp3398
Velaine
p3399
a(lp3400
Vah
p3401
ag25
aVthis
p3402
ag19
aVand
p3403
aVthat
p3404
ag19
aaa(lp3405
Vjerry
p3406
a(lp3407
Vand
p3408
aVthe
p3409
aVother
p3410
ag19
aaa.