(lp0
(lp1
Vjerry
p2
a(lp3
Vthe
p4
aVrobbery
p5
aVwritten
p6
aVby
p7
aVmatt
p8
aVgoldman
p9
aVso
p10
aVi
p11
aVmove
p12
aVinto
p13
aVthe
p14
aVcentre
p15
aVlane
p16
aV,
p17
aVnow
p18
ag11
aVget
p19
aVahead
p20
aVof
p21
aVthis
p22
aVwomen
p23
ag17
aVwho
p24
aVfelt
p25
aVfor
p26
aVsome
p27
aVreason
p28
ag11
aVguess
p29
ag17
aVthat
p30
aVshe
p31
aVthought
p32
aVthat
p33
ag11
aVcut
p34
aVher
p35
aVoff
p36
aV.
p37
aVso
p38
ag17
aVshe
p39
aVpulls
p40
aVup
p41
aValong
p42
aVside
p43
aVof
p44
aVme
p45
ag17
aVgives
p46
aVme
p47
aVthe
p48
aVfinger
p49
ag37
aVit
p50
aVseems
p51
aVlike
p52
aVsuch
p53
aVan
p54
aVarbitrary
p55
ag17
aVridiculous
p56
aVthing
p57
aVto
p58
aVjust
p59
aVpick
p60
aVa
p61
aVfinger
p62
aVand
p63
aVyou
p64
aVshow
p65
aVit
p66
aVto
p67
aVthe
p68
aVperson
p69
ag37
aVit
p70
aV's
p71
ag61
aVfinger
p72
ag17
aVwhat
p73
aVdoes
p74
aVit
p75
aVmean
p76
aV?
p77
aVsomeone
p78
aVshows
p79
aVme
p80
aVone
p81
aVof
p82
aVtheir
p83
aVfingers
p84
aVand
p85
ag11
aV'm
p86
aVsupposed
p87
aVto
p88
aVfeel
p89
aVbad
p90
ag37
aVis
p91
aVthat
p92
aVthe
p93
aVway
p94
aVit
p95
aV's
p96
aVsupposed
p97
aVto
p98
aVwork
p99
ag77
aaa(lp100
Vi
p101
a(lp102
Vmean
p103
ag17
aVyou
p104
aVcould
p105
aVjust
p106
aVgive
p107
aVsomeone
p108
aVthe
p109
aVtoe
p110
ag17
aVreally
p111
ag17
aVcould
p112
aVn't
p113
aVyou
p114
ag77
ag11
aVwould
p115
aVfeel
p116
aVworse
p117
aVif
p118
ag11
aVgot
p119
aVthe
p120
aVtoe
p121
ag17
aVthan
p122
aVif
p123
ag11
aVgot
p124
aVthe
p125
aVfinger
p126
ag37
aV'cause
p127
aVit
p128
aV's
p129
aVnot
p130
aVeasy
p131
aVto
p132
aVgive
p133
aVsomeone
p134
aVthe
p135
aVtoe
p136
ag17
aVyou
p137
aV've
p138
aVgot
p139
aVta
p140
aVget
p141
aVthe
p142
aVshoe
p143
aVoff
p144
ag17
aVthe
p145
aVsock
p146
aVof
p147
aVand
p148
aVdrive
p149
ag17
aVget
p150
aVit
p151
aVup
p152
aVand
p153
aVuh
p154
aVlook
p155
aVat
p156
aVthat
p157
aVtoe
p158
ag17
aVbuddy
p159
ag37
ag11
aVmean
p160
ag17
aVthat
p161
aV's
p162
aVreally
p163
aVinsulting
p164
aVto
p165
aVget
p166
aVthe
p167
aVtoe
p168
ag17
aVis
p169
aVn't
p170
aVit
p171
ag77
aaa(lp172
Vjerry
p173
a(lp174
Vis
p175
aVthat
p176
aVit
p177
ag77
aVgot
p178
aVthe
p179
aVcue
p180
aVtips
p181
ag17
aVgot
p182
aVthe
p183
aVmini-umbrella
p184
ag17
aVsomething
p185
aVboring
p186
aVto
p187
aVread
p188
aVon
p189
aVthe
p190
aVplane
p191
ag37
aVthat
p192
aV's
p193
aVit
p194
ag37
aVdone
p195
aV!
p196
aaa(lp197
Velaine
p198
a(lp199
Vthat
p200
aVis
p201
aVthe
p202
aVsingle
p203
aVgreatest
p204
aVpacking
p205
aVperformance
p206
ag11
aVhave
p207
aVever
p208
aVseen
p209
ag37
aaa(lp210
Vjerry
p211
a(lp212
g11
aVam
p213
aVthe
p214
aVmaster
p215
aVpacker
p216
ag37
aaa(lp217
Velaine
p218
a(lp219
Vyeah
p220
ag17
aVright
p221
ag17
aVyou
p222
aV're
p223
aVthe
p224
aVmaster
p225
aVpacker
p226
ag37
aaa(lp227
Vjerry
p228
a(lp229
Vwhat
p230
aVyou
p231
aVmust
p232
aVunderstand
p233
ag17
aVelaine
p234
ag17
aVpacking
p235
aVis
p236
aVno
p237
aVdifferent
p238
aVthan
p239
aVleading
p240
aVmen
p241
aVinto
p242
aaa(lp243
Vbattle
p244
a(lp245
Vyou
p246
aV've
p247
aVgot
p248
aVta
p249
aVknow
p250
aVthe
p251
aVstrengths
p252
aVand
p253
aVweaknesses
p254
aVof
p255
aVevery
p256
aVsoldier
p257
aVin
p258
aVthat
p259
aVplatoon
p260
ag37
aVfrom
p261
ag61
aVcollapsible
p262
aVtoothbrush
p263
aVto
p264
ag61
aVpair
p265
aVof
p266
aVordinary
p267
aVblack
p268
aVsocks
p269
ag37
aaa(lp270
Velaine
p271
a(lp272
V'scuse
p273
aVme
p274
aVmaster
p275
aVpacker
p276
ag196
aaa(lp277
Vjerry
p278
a(lp279
Vyes
p280
ag37
aaa(lp281
Velaine
p282
a(lp283
Vjust
p284
aVgim
p285
aVme
p286
aVyour
p287
aVkeys
p288
ag37
aaa(lp289
Vjerry
p290
a(lp291
Valright
p292
ag17
aVsir
p293
ag37
aVgeorge
p294
ag77
aaa(lp295
Vgeorge
p296
a(lp297
Vyeah
p298
aaa(lp299
Velaine
p300
a(lp301
Vok
p302
ag17
aVso
p303
ag17
aVnow
p304
ag17
aVis
p305
aVthere
p306
aVanything
p307
aVelse
p308
ag11
aVneed
p309
aVto
p310
aVknow
p311
aV'bout
p312
aVthis
p313
aVplace
p314
ag77
aaa(lp315
Vjerry
p316
a(lp317
Vuh
p318
ag17
aVyeah
p319
ag17
aVthe
p320
aVuuhh
p321
ag17
aVhot
p322
aVwater
p323
aVtakes
p324
ag61
aVlittle
p325
aVwhile
p326
aVto
p327
aVcome
p328
aVon
p329
ag37
aVso
p330
ag17
aVthe
p331
aVbest
p332
aVthing
p333
aVto
p334
aVdo
p335
aVis
p336
aVto
p337
aVturn
p338
aVit
p339
aVon
p340
ag17
aVdo
p341
aVall
p342
aVyour
p343
aVshopping
p344
ag17
aVyou
p345
aVcome
p346
aVback
p347
aVand
p348
aVtake
p349
ag61
aVshower
p350
ag37
aaa(lp351
Velaine
p352
a(lp353
Vok
p354
ag17
aVthis
p355
aVis
p356
aVquite
p357
ag61
aVplace
p358
ag37
aaa(lp359
Vjerry
p360
a(lp361
Vthere
p362
aV's
p363
aVmore
p364
ag17
aVthe
p365
aVrefrigerator
p366
ag37
aVdeduct
p367
ag61
aVminimum
p368
aVof
p369
aVtwo
p370
aVdays
p371
aVof
p372
aVall
p373
aVexpiration
p374
aVdates
p375
ag37
aVno
p376
aVmeat
p377
ag17
aVno
p378
aVleftovers
p379
ag17
aVno
p380
aVbutter
p381
ag37
aVthat
p382
aVclear
p383
ag77
aaa(lp384
Velaine
p385
a(lp386
g11
aV'll
p387
aVeat
p388
aVout
p389
ag37
aaa(lp390
Vjerry
p391
a(lp392
Vone
p393
aVmore
p394
aVthing
p395
ag17
aVbenes
p396
ag17
aVregarding
p397
aVsexual
p398
aVactivity
p399
aVstrictly
p400
aVprohibited
p401
ag17
aVbut
p402
aVif
p403
aVyou
p404
aVabsolutely
p405
aVmust
p406
ag17
aVdo
p407
aVus
p408
aVall
p409
ag61
aVbig
p410
aVfavour
p411
aVdo
p412
aVit
p413
aVin
p414
aVthe
p415
aVtub
p416
ag37
aaa(lp417
Vgeorge
p418
a(lp419
Vready
p420
ag77
aaa(lp421
Vjerry
p422
a(lp423
Vyeah
p424
ag17
aVone
p425
aVsec
p426
ag37
aaa(lp427
Vgeorge
p428
a(lp429
Vhey
p430
ag17
aVelaine
p431
aaa(lp432
Velaine
p433
a(lp434
Vhi
p435
ag37
aaa(lp436
Vgeorge
p437
a(lp438
Vcoming
p439
aVto
p440
aVthe
p441
aVairport
p442
aVwith
p443
aVus
p444
ag77
aaa(lp445
Velaine
p446
a(lp447
Vno
p448
ag17
ag11
aV'm
p449
aVstaying
p450
aVhere
p451
aVfor
p452
aVthe
p453
aVweekend
p454
ag37
ag11
aV'm
p455
aVgetting
p456
ag61
aVbreak
p457
aVfrom
p458
aVmy
p459
aVroommate
p460
ag37
aaa(lp461
Vgeorge
p462
a(lp463
Voh
p464
ag17
aVthe
p465
aVactress-waitress
p466
ag37
aaa(lp467
Velaine
p468
a(lp469
Vno
p470
ag17
aVthe
p471
aVwaitress-actress
p472
ag37
aVshe
p473
aVjust
p474
aVgot
p475
aVsome
p476
aVpart
p477
aVin
p478
aVsome
p479
aVdinner-theater
p480
aVproduction
p481
aVof
p482
ag61
aVchorus
p483
aVline
p484
ag37
aVso
p485
ag17
aVnow
p486
aVall
p487
aVday
p488
aVgod
p489
ag17
ag11
aVhope
p490
ag11
aVget
p491
aVit
p492
ag17
ag11
aVhope
p493
ag11
aVget
p494
aVit
p495
ag37
aVshe
p496
aV's
p497
aVgon
p498
aVna
p499
aVget
p500
aVit
p501
aVright
p502
aVin
p503
aVher
p504
aaa(lp505
Vgeorge
p506
a(lp507
Vyou
p508
aVjust
p509
aVkick
p510
aVher
p511
aVout
p512
ag37
aaa(lp513
Velaine
p514
a(lp515
Vshe
p516
aV's
p517
aVon
p518
aVthe
p519
aVlease
p520
ag196
aVgeorge
p521
aVyou
p522
aVhave
p523
aVgot
p524
aVto
p525
aVfind
p526
aVan
p527
aVother
p528
aVplace
p529
aVfor
p530
aVme
p531
ag37
aaa(lp532
Vgeorge
p533
a(lp534
Vyeah
p535
ag17
aVwell
p536
ag61
aVlittle
p537
aVruff
p538
aVfinding
p539
aVsomething
p540
aVgood
p541
aVin
p542
aVyour
p543
aVprice-range
p544
ag37
aVbut
p545
aVyou
p546
ag17
aVmy
p547
aVfriend
p548
ag17
aVmay
p549
aVbe
p550
aVin
p551
aVluck
p552
ag37
aaa(lp553
Vjerry
p554
a(lp555
g11
aV'm
p556
aVnot
p557
aVlooking
p558
ag37
aaa(lp559
Vgeorge
p560
a(lp561
Vno
p562
aVno
p563
aVno
p564
ag17
aVthis
p565
aVone
p566
aV's
p567
aVdifferent
p568
ag17
aVthis
p569
aVone
p570
aV's
p571
ag61
aVbeauty
p572
ag196
aaa(lp573
Vjerry
p574
a(lp575
Vyeah
p576
ag17
aVwhat
p577
aV's
p578
aVit
p579
aVlike
p580
ag77
aaa(lp581
Vgeorge
p582
a(lp583
g11
aVhave
p584
aVn't
p585
aVseen
p586
aVit
p587
aVyet
p588
ag17
aVbut
p589
aVit
p590
aV's
p591
ag61
aVtwo-bedroom
p592
ag17
aVit
p593
aV's
p594
aVon
p595
aVthe
p596
aVuh
p597
ag17
aVwest
p598
aV83rd
p599
ag17
aV'bout
p600
ag61
aVhalf
p601
aVblock
p602
aVfrom
p603
aVthe
p604
aVpark
p605
ag77
aaa(lp606
Vjerry
p607
a(lp608
Vhow
p609
aVmuch
p610
ag77
aaa(lp611
Vgeorge
p612
a(lp613
Vuh
p614
ag17
aVtwice
p615
aVwhat
p616
aVyou
p617
aVpay
p618
aVin
p619
aVhere
p620
ag17
aVbut
p621
aVit
p622
aV's
p623
ag61
aVgreat
p624
aVbuilding
p625
ag17
aVit
p626
aV's
p627
aVtwo
p628
aVbedrooms
p629
ag196
aaa(lp630
Vjerry
p631
a(lp632
Vtwo
p633
aVbedrooms
p634
ag77
aVwhy
p635
aVdo
p636
ag11
aVneed
p637
aVtwo
p638
aVbedrooms
p639
ag77
ag11
aVgot
p640
aVenough
p641
aVtrouble
p642
aVmaintaining
p643
aVactivity
p644
aVin
p645
aVone
p646
ag37
ag11
aVsaw
p647
aVthat
p648
ag37
aaa(lp649
Velaine
p650
a(lp651
Vyou
p652
aVoughtta
p653
aVleast
p654
aVtake
p655
ag61
aVlook
p656
aVat
p657
aVit
p658
ag37
aaa(lp659
Vjerry
p660
a(lp661
Vreally
p662
ag77
aVwhy
p663
ag77
aaa(lp664
Velaine
p665
a(lp666
V'cause
p667
aVthen
p668
ag11
aVcould
p669
aVmove
p670
aVin
p671
aVhere
p672
ag37
aaa(lp673
Vjerry
p674
a(lp675
Vooohhhh
p676
aaa(lp677
Velaine
p678
a(lp679
Vit
p680
aV's
p681
aVtime
p682
aVyou
p683
aVgot
p684
aVout
p685
ag61
aVhere
p686
aVanyway
p687
ag37
aaa(lp688
Vgeorge
p689
a(lp690
Vyeah
p691
ag17
aVtell
p692
aV'm
p693
ag17
aVbut
p694
aVquickly
p695
ag17
ag11
aV'm
p696
aVdouble
p697
aVparked
p698
aVhere
p699
ag37
aaa(lp700
Velaine
p701
a(lp702
Vlisten
p703
ag17
aVjerry
p704
ag17
aVthis
p705
aVplace
p706
aVis
p707
aVfalling
p708
aVapart
p709
ag37
aVyou
p710
aVhave
p711
aVno
p712
aVhot
p713
aVwater
p714
ag17
aVyou
p715
aVca
p716
aVn't
p717
aVhave
p718
aVsoft
p719
aVcheese
p720
aaa(lp721
Vgeorge
p722
a(lp723
Vlet
p724
aV's
p725
aVnot
p726
aVforget
p727
aVthe
p728
aVradiator
p729
ag17
aVthe
p730
aVsteam
p731
aVhas
p732
aVbeen
p733
aVon
p734
aVhere
p735
aVfor
p736
aVten
p737
aVyears
p738
aVno
p739
aVhuman
p740
aVcan
p741
aVturn
p742
aVthis
p743
aVoff
p744
ag37
aaa(lp745
Velaine
p746
a(lp747
Vjerry
p748
ag17
aVcome
p749
aVon
p750
ag17
aVyou
p751
aV're
p752
aVdoin
p753
aV'
p754
aVok
p755
aVnow
p756
ag17
aVyou
p757
aVshould
p758
aVat
p759
aVleast
p760
aVtake
p761
ag61
aVlook
p762
aVat
p763
aVthis
p764
aVplace
p765
ag37
aVyou
p766
aVshould
p767
aVn't
p768
aVhave
p769
aVto
p770
aVlive
p771
aVlike
p772
aVthis
p773
ag37
aaa(lp774
Vjerry
p775
a(lp776
Vlike
p777
aVthis
p778
ag77
aVyou
p779
aVjust
p780
aVsaid
p781
ag17
aVyou
p782
aVwanted
p783
aVto
p784
aVlive
p785
aVhere
p786
ag37
aaa(lp787
Velaine
p788
a(lp789
Vwell
p790
ag17
aVfor
p791
aVme
p792
aVit
p793
aV's
p794
ag61
aVstep
p795
aVup
p796
ag37
aVit
p797
aV's
p798
aVlike
p799
aVmoving
p800
aVfrom
p801
aVisland
p802
aVto
p803
aVfinland
p804
ag37
aaa(lp805
Vgeorge
p806
a(lp807
Vjerry
p808
ag17
aVwhat
p809
aVdo
p810
aVya
p811
aVyou
p812
aVwan
p813
aVna
p814
aVyou
p815
aVwan
p816
aVna
p817
aVsee
p818
aVthe
p819
aVplace
p820
aVor
p821
aVnot
p822
ag77
aaa(lp823
Vjerry
p824
a(lp825
g11
aVca
p826
aVn't
p827
aVthink
p828
aVabout
p829
aVit
p830
aVnow
p831
ag37
aVcome
p832
aVon
p833
ag17
ag11
aV'm
p834
aVgoing
p835
aVto
p836
aVminneapolis
p837
ag37
ag11
aVgot
p838
aVfour
p839
aVshows
p840
aVthis
p841
aVweekend
p842
ag37
aaa(lp843
Vjerry
p844
a(lp845
Velaine
p846
ag196
aaa(lp847
Vjerry
p848
a(lp849
Velaine
p850
ag196
aaa(lp851
Velaine
p852
a(lp853
Vjerry
p854
ag196
aVjerry
p855
ag17
aVoh
p856
ag17
aVhi
p857
ag17
aVwelcome
p858
aVback
p859
ag37
aVhow
p860
aVwere
p861
aVthe
p862
aVshows
p863
ag77
aaa(lp864
Vjerry
p865
a(lp866
Vgreat
p867
ag17
ag11
aVhad
p868
aVfun
p869
ag17
aVwhere
p870
aV's
p871
aVthe
p872
aVtv
p873
ag17
aVwhere
p874
aV's
p875
aVthe
p876
aVvcr
p877
ag37
aVwhat
p878
ag77
aaa(lp879
Velaine
p880
a(lp881
Vthey
p882
aVwere
p883
aVstolen
p884
ag37
aaa(lp885
Vjerry
p886
a(lp887
Vstolen
p888
ag77
aVwhen
p889
ag77
aaa(lp890
Velaine
p891
a(lp892
g61
aVcouple
p893
ag61
aVhours
p894
aVago
p895
ag17
aVthe
p896
aVpolice
p897
aVare
p898
aVcoming
p899
aVright
p900
aVover
p901
ag37
aaa(lp902
Vjerry
p903
a(lp904
Vstolen
p905
ag77
aaa(lp906
Velaine
p907
a(lp908
Vsomeone
p909
aVleft
p910
aVthe
p911
aVdoor
p912
aVopen
p913
ag37
aaa(lp914
Vjerry
p915
a(lp916
Vyou
p917
aVleft
p918
aVthe
p919
aVdoor
p920
aVopen
p921
ag77
ag196
aaa(lp922
Vkramer
p923
a(lp924
Vuh
p925
ag17
aVjer
p926
ag17
aVwell
p927
aVya
p928
aVknow
p929
ag17
ag11
aVwas
p930
aVcookin
p931
ag754
aVand
p932
ag11
ag17
ag11
aVuh
p933
ag17
ag11
aVcame
p934
aVin
p935
aVto
p936
aVget
p937
aVthis
p938
aVspatula
p939
aVand
p940
ag11
aVleft
p941
aVthe
p942
aVdoor
p943
aVopen
p944
ag17
aV'cause
p945
ag11
aVwas
p946
aVgon
p947
aVna
p948
aVbring
p949
aVthe
p950
aVspatula
p951
aVright
p952
aVback
p953
ag196
aaa(lp954
Vjerry
p955
a(lp956
Vwait
p957
ag17
aVyou
p958
aVleft
p959
aVthe
p960
aVlock
p961
aVopen
p962
aVor
p963
aVthe
p964
aVdoor
p965
aVopen
p966
ag77
aaa(lp967
Vkramer
p968
a(lp969
Vthe
p970
aVdoor
p971
ag37
aaa(lp972
Vjerry
p973
a(lp974
Vthe
p975
aVdoor
p976
ag77
aVyou
p977
aVleft
p978
aVthe
p979
aVdoor
p980
aVopen
p981
ag77
aaa(lp982
Vkramer
p983
a(lp984
Vyeah
p985
ag17
aVwell
p986
ag17
ag11
aVwas
p987
aVgon
p988
aVna
p989
aVbring
p990
aVthe
p991
aVspatula
p992
aVright
p993
aVback
p994
ag37
aaa(lp995
Vjerry
p996
a(lp997
Vyeah
p998
ag17
aVand
p999
ag77
aaa(lp1000
Vkramer
p1001
a(lp1002
Vwell
p1003
ag17
ag11
aVgot
p1004
aVcaught
p1005
aVup
p1006
aVwatching
p1007
ag61
aVsoap
p1008
aVopera
p1009
aVthe
p1010
aVbold
p1011
aVand
p1012
aVthe
p1013
aVbeautiful
p1014
aaa(lp1015
Vjerry
p1016
a(lp1017
Vso
p1018
aVthe
p1019
aVdoor
p1020
aVwas
p1021
aVwide
p1022
aVopen
p1023
ag77
aaa(lp1024
Vkramer
p1025
a(lp1026
Vwide
p1027
aVopen
p1028
ag196
aaa(lp1029
Vjerry
p1030
a(lp1031
Vand
p1032
aVwhere
p1033
aVwere
p1034
aVyou
p1035
ag77
aaa(lp1036
Velaine
p1037
a(lp1038
g11
aVwas
p1039
aVat
p1040
aVbloomingdale
p1041
aV's
p1042
aVwaiting
p1043
aVfor
p1044
aVthe
p1045
aVshower
p1046
aVto
p1047
aVheat
p1048
aVup
p1049
ag37
aaa(lp1050
Vkramer
p1051
a(lp1052
Vlook
p1053
ag17
aVjerry
p1054
ag17
ag11
aV'm
p1055
aVsorry
p1056
ag17
ag11
aV'm
p1057
aVuh
p1058
ag17
aVyou
p1059
aVhave
p1060
aVinsurance
p1061
ag17
aVright
p1062
aVbuddy
p1063
ag77
aaa(lp1064
Vjerry
p1065
a(lp1066
Vno
p1067
ag37
aaa(lp1068
Vkramer
p1069
a(lp1070
Vhow
p1071
aVcan
p1072
aVyou
p1073
aVnot
p1074
aVhave
p1075
aVinsurance
p1076
ag77
aaa(lp1077
Vjerry
p1078
a(lp1079
Vbecause
p1080
ag11
aVspent
p1081
aVmy
p1082
aVmoney
p1083
aVon
p1084
aVthe
p1085
aVclapgo
p1086
aVd.
p1087
aV29
p1088
ag17
aVit
p1089
aV's
p1090
aVthe
p1091
aVmost
p1092
aVimpenetrable
p1093
aVlock
p1094
aVon
p1095
aVthe
p1096
aVmarket
p1097
aVtoday
p1098
aVit
p1099
aVhas
p1100
aVonly
p1101
aVone
p1102
aVdesign
p1103
aVflaw
p1104
aVthe
p1105
aVdoor
p1106
aVmust
p1107
aVbe
p1108
aVclosed
p1109
ag37
aaa(lp1110
Vkramer
p1111
a(lp1112
Vjerry
p1113
ag196
ag11
aV'm
p1114
aVgon
p1115
aVna
p1116
aVfind
p1117
aVyour
p1118
aVstuff
p1119
ag37
ag11
aV'm
p1120
aVgon
p1121
aVna
p1122
aVsolve
p1123
aVit
p1124
ag17
ag11
aV'm
p1125
aVon
p1126
aVthe
p1127
aVcase
p1128
ag17
aVbuddy
p1129
ag17
ag11
aV'm
p1130
aVon
p1131
aVthe
p1132
aVcase
p1133
ag196
aaa(lp1134
Vjerry
p1135
a(lp1136
Vyeah
p1137
ag17
aVdo
p1138
aVn't
p1139
aVinvestigate
p1140
ag17
aVdo
p1141
aVn't
p1142
aVpay
p1143
aVme
p1144
aVback
p1145
ag17
aVit
p1146
aVwas
p1147
aVan
p1148
aVaccident
p1149
ag37
aaa(lp1150
Vkramer
p1151
a(lp1152
g11
aVmade
p1153
ag61
aVmistake
p1154
ag37
aaa(lp1155
Velaine
p1156
a(lp1157
Vthese
p1158
aVthings
p1159
aVhappen
p1160
aaa(lp1161
Vkramer
p1162
a(lp1163
g11
aV'm
p1164
aVhuman
p1165
aaa(lp1166
Vjerry
p1167
a(lp1168
Vin
p1169
aVyour
p1170
aVway
p1171
ag37
aaa(lp1172
Vpoliceman
p1173
a(lp1174
Vlet
p1175
aV's
p1176
aVsee
p1177
ag17
aVthat
p1178
aV's
p1179
aVuh
p1180
ag17
aVone
p1181
aVtv
p1182
ag17
ag61
aVstereo
p1183
ag17
aVone
p1184
aVleather
p1185
aVjacket
p1186
ag17
ag61
aVvcr
p1187
aVand
p1188
ag61
aVcomputer
p1189
aVis
p1190
aVthat
p1191
aV'bout
p1192
aVit
p1193
ag77
aaa(lp1194
Velaine
p1195
a(lp1196
Vanswering
p1197
aVmachine
p1198
ag37
aaa(lp1199
Vjerry
p1200
a(lp1201
Vanswering
p1202
aVmachine
p1203
ag37
aVoh
p1204
ag17
ag11
aVhate
p1205
aVthe
p1206
aVidea
p1207
aVof
p1208
aVsomebody
p1209
aVout
p1210
aVthere
p1211
aVreturning
p1212
aVmy
p1213
aVcalls
p1214
ag37
aaa(lp1215
Vpoliceman
p1216
a(lp1217
Vwhat
p1218
aVdo
p1219
aVya
p1220
aVmean
p1221
ag77
aaa(lp1222
Vjerry
p1223
a(lp1224
Vit
p1225
aV's
p1226
ag61
aVjoke
p1227
ag37
aaa(lp1228
Vpoliceman
p1229
a(lp1230
g11
aVsee
p1231
aVwell
p1232
ag17
aVmister
p1233
aVseinfeld
p1234
aVuh
p1235
ag17
aVwe
p1236
aV'll
p1237
aVlook
p1238
aVinto
p1239
aVit
p1240
aVand
p1241
aVuh
p1242
ag17
aVwe
p1243
aV'll
p1244
aVlet
p1245
aVyou
p1246
aVknow
p1247
aVif
p1248
aVwe
p1249
aVuh
p1250
ag17
aVyou
p1251
aVknow
p1252
ag17
aVif
p1253
aVwe
p1254
aVfind
p1255
aVanything
p1256
ag37
aaa(lp1257
Vjerry
p1258
a(lp1259
Vyou
p1260
aVever
p1261
aVfind
p1262
aVanything
p1263
ag77
aaa(lp1264
Vpoliceman
p1265
a(lp1266
Vno
p1267
ag37
aaa(lp1268
Vjerry
p1269
a(lp1270
Vwell
p1271
ag17
aVthanks
p1272
aVanyway
p1273
ag37
aaa(lp1274
Vpoliceman
p1275
a(lp1276
Vyou
p1277
aVbet
p1278
ag37
aaa(lp1279
Velaine
p1280
a(lp1281
g11
aVdid
p1282
aVn't
p1283
aVget
p1284
aVthat
p1285
aVjoke
p1286
aVeither
p1287
ag37
aaa(lp1288
Vjerry
p1289
a(lp1290
Vthe
p1291
aVcrook
p1292
aVhas
p1293
aVthe
p1294
aVmachine
p1295
ag37
aVthe
p1296
aVmessages
p1297
aVare
p1298
aVn't
p1299
aVfor
p1300
aVhim
p1301
ag37
aVhe
p1302
aV's
p1303
aVthe
p1304
aVcrook
p1305
aVwhy
p1306
aVwould
p1307
aVhe
p1308
aVanswer
p1309
aVhow
p1310
aVdid
p1311
aVyou
p1312
aVget
p1313
aVin
p1314
aVhere
p1315
ag77
aaa(lp1316
Vgeorge
p1317
a(lp1318
g11
aVwalked
p1319
aVin
p1320
ag17
aVyour
p1321
aVlobby
p1322
aVdoor
p1323
aVis
p1324
aVbroken
p1325
aVagain
p1326
ag37
aaa(lp1327
Vjerry
p1328
a(lp1329
Vagain
p1330
ag37
aaa(lp1331
Vgeorge
p1332
a(lp1333
g11
aVdo
p1334
aVn't
p1335
aVknow
p1336
aVhow
p1337
aVyou
p1338
aVput
p1339
aVup
p1340
aVwith
p1341
aVthis
p1342
ag37
aaa(lp1343
Velaine
p1344
a(lp1345
Vyeah
p1346
ag17
aVtell
p1347
aV'm
p1348
aVgeorge
p1349
ag37
aaa(lp1350
Vjerry
p1351
a(lp1352
Vyou
p1353
aVwould
p1354
aVstill
p1355
aVwan
p1356
aVna
p1357
aVmove
p1358
aVin
p1359
aVhere
p1360
ag77
aaa(lp1361
Velaine
p1362
a(lp1363
Vyes
p1364
ag196
aVyou
p1365
aVdo
p1366
aVn't
p1367
aVunderstand
p1368
ag37
ag11
aV'm
p1369
aVliving
p1370
aVwith
p1371
aVethel
p1372
aVmerman
p1373
aVwithout
p1374
aVthe
p1375
aVtalent
p1376
ag37
aaa(lp1377
Vjerry
p1378
a(lp1379
Vis
p1380
aVthat
p1381
aVuh
p1382
ag17
aVother
p1383
aVapartment
p1384
aVstill
p1385
aVavailable
p1386
ag37
aaa(lp1387
Vjerry
p1388
a(lp1389
g11
aVgot
p1390
aVripped
p1391
aVoff
p1392
aVfor
p1393
aVabout
p1394
aVthe
p1395
aV18th
p1396
aVtime
p1397
ag77
aVand
p1398
aVnow
p1399
ag17
aVthe
p1400
aVfirst
p1401
aVcouple
p1402
ag61
aVtimes
p1403
aVyou
p1404
aVgo
p1405
aVthrough
p1406
aVit
p1407
ag17
aVit
p1408
aV's
p1409
aVvery
p1410
aVupsetting
p1411
aVand
p1412
aVyour
p1413
aVfirst
p1414
aVreaction
p1415
aVor
p1416
aVone
p1417
aVof
p1418
aVyour
p1419
aVfriends
p1420
aVwill
p1421
aaa(lp1422
Vsay
p1423
a(lp1424
Vcall
p1425
aVthe
p1426
aVpolice
p1427
ag37
aVyou
p1428
aVreally
p1429
aVshould
p1430
aVcall
p1431
aVthe
p1432
aVpolice
p1433
ag37
aVso
p1434
aVyeah
p1435
ag17
ag11
aV'm
p1436
aVcalling
p1437
aVthe
p1438
aVpolice
p1439
ag37
aVstakeouts
p1440
ag17
aVmanhunts
p1441
ag11
aV'm
p1442
aVgon
p1443
aVna
p1444
aVsee
p1445
aVsome
p1446
aVreal
p1447
aVaction
p1448
ag37
aVright
p1449
ag17
aVyou
p1450
aVthink
p1451
aVthat
p1452
ag37
aVso
p1453
ag17
aVthe
p1454
aVpolice
p1455
aVgive
p1456
aVyou
p1457
aVyour
p1458
aVcopy
p1459
ag37
aVnow
p1460
aVunless
p1461
aVthey
p1462
aVgive
p1463
aVthe
p1464
aVcrook
p1465
aVhis
p1466
aVcopy
p1467
ag17
ag11
aVdo
p1468
aVn't
p1469
aVreally
p1470
aVthink
p1471
aVwe
p1472
aV're
p1473
aVgon
p1474
aVna
p1475
aVcrack
p1476
aVthis
p1477
aVcase
p1478
ag17
aVdo
p1479
aVyou
p1480
ag77
aVit
p1481
aV's
p1482
aVnot
p1483
aVlike
p1484
aVbatman
p1485
ag17
aVwhere
p1486
aVthere
p1487
aV's
p1488
aVthree
p1489
aVcrooks
p1490
aVin
p1491
aVthe
p1492
aVcity
p1493
aVand
p1494
aVeverybody
p1495
aVpretty
p1496
aVmuch
p1497
aVknows
p1498
ag17
aVwho
p1499
aVthey
p1500
aVare
p1501
ag37
aVvery
p1502
aVfew
p1503
aVcrooks
p1504
aVeven
p1505
aVgo
p1506
aVto
p1507
aVthe
p1508
aVtrouble
p1509
aVto
p1510
aVcome
p1511
aVup
p1512
aVwith
p1513
ag61
aVtheme
p1514
aVfor
p1515
aVtheir
p1516
aVcareers
p1517
aVanymore
p1518
ag37
aVit
p1519
aVmakes
p1520
aVthem
p1521
ag61
aVlot
p1522
aVtougher
p1523
aVto
p1524
aVspot
p1525
ag37
aVdid
p1526
aVyou
p1527
aVlose
p1528
ag61
aVsony
p1529
ag77
aVit
p1530
aVcould
p1531
aVbe
p1532
aVthe
p1533
aVpenguin
p1534
ag11
aVthink
p1535
aVwe
p1536
aVcan
p1537
aVround
p1538
aVhim
p1539
aVup
p1540
ag17
aVhe
p1541
aV's
p1542
aVdressed
p1543
aVlike
p1544
ag61
aVpenguin
p1545
ag196
aVwe
p1546
aVcan
p1547
aVfind
p1548
aVhim
p1549
ag17
aVhe
p1550
aV's
p1551
ag61
aVpenguin
p1552
ag196
aaa(lp1553
Velaine
p1554
a(lp1555
Voh
p1556
ag17
aVwell
p1557
ag17
aVcome
p1558
aVon
p1559
aVthis
p1560
aVis
p1561
aVan
p1562
aVapartment
p1563
ag17
aVthis
p1564
aVis
p1565
ag61
aVhome
p1566
ag196
aVthis
p1567
aVis
p1568
ag61
aVplace
p1569
aVto
p1570
aVlive
p1571
aVoohhh
p1572
ag17
ag61
aVfireplace
p1573
ag17
aVare
p1574
aVyou
p1575
aVkidding
p1576
aVme
p1577
ag196
aVdoes
p1578
aVthis
p1579
aVwork
p1580
ag77
aaa(lp1581
Vgeorge
p1582
a(lp1583
g11
aVdid
p1584
aVn't
p1585
aVknow
p1586
aVthere
p1587
aVwas
p1588
ag61
aVfireplace
p1589
ag37
ag61
aVfireplace
p1590
ag17
aVthis
p1591
aVis
p1592
aVincredible
p1593
ag37
aaa(lp1594
Vjerry
p1595
a(lp1596
Vhow
p1597
aVdo
p1598
aVyou
p1599
aVget
p1600
aVall
p1601
aVthat
p1602
aVwood
p1603
aVin
p1604
aVhere
p1605
ag77
aaa(lp1606
Velaine
p1607
a(lp1608
Vthey
p1609
aVdeliver
p1610
aVit
p1611
ag37
aaa(lp1612
Vjerry
p1613
a(lp1614
Vthey
p1615
aVdeliver
p1616
aVwood
p1617
ag77
aaa(lp1618
Velaine
p1619
a(lp1620
Vyeah
p1621
ag37
aaa(lp1622
Vjerry
p1623
a(lp1624
Vwhatta
p1625
aVya
p1626
aVtip
p1627
ag61
aVwood
p1628
aVguy
p1629
ag77
aaa(lp1630
Vgeorge
p1631
a(lp1632
g11
aVdid
p1633
aVn't
p1634
aVknow
p1635
aVthere
p1636
aVwas
p1637
ag61
aVfireplace
p1638
ag77
aaa(lp1639
Velaine
p1640
a(lp1641
Vlook
p1642
ag196
aVlook
p1643
aVat
p1644
aVlook
p1645
aVat
p1646
aVthis
p1647
ag196
aVthere
p1648
aV's
p1649
ag61
aVgarden
p1650
ag37
aaa(lp1651
Vgeorge
p1652
a(lp1653
g61
aVgarden
p1654
ag196
ag11
aVca
p1655
aVn't
p1656
aVbelieve
p1657
aVthere
p1658
aV's
p1659
ag61
aVgarden
p1660
ag196
aaa(lp1661
Vjerry
p1662
a(lp1663
Vwould
p1664
ag11
aVhave
p1665
aVto
p1666
aVget
p1667
ag61
aVgardener
p1668
ag77
aaa(lp1669
Velaine
p1670
a(lp1671
Vyeah
p1672
ag17
aVyou
p1673
aVcan
p1674
aVget
p1675
ag61
aVgardener
p1676
ag37
aaa(lp1677
Vjerry
p1678
a(lp1679
Vyou
p1680
aVtip
p1681
aVhim
p1682
ag77
aaa(lp1683
Velaine
p1684
a(lp1685
Vyou
p1686
aVcan
p1687
ag37
aaa(lp1688
Vgeorge
p1689
a(lp1690
Vyou
p1691
aVdo
p1692
aVn't
p1693
aVtip
p1694
ag61
aVgardener
p1695
ag196
aaa(lp1696
Velaine
p1697
a(lp1698
Vyou
p1699
aVcan
p1700
aVtip
p1701
ag61
aVgardener
p1702
ag37
aaa(lp1703
Vgeorge
p1704
a(lp1705
Vyou
p1706
aVdo
p1707
aVn't
p1708
aVneed
p1709
ag61
aVgardener
p1710
ag37
aaa(lp1711
Velaine
p1712
a(lp1713
Vjerry
p1714
ag17
aVyou
p1715
aVcan
p1716
aVbarbecue
p1717
aVback
p1718
aVhere
p1719
ag37
aaa(lp1720
Vjerry
p1721
a(lp1722
Vthey
p1723
aVdeliver
p1724
aVthe
p1725
aVcoal
p1726
ag77
aaa(lp1727
Velaine
p1728
a(lp1729
Vsure
p1730
ag17
aVit
p1731
aV's
p1732
aVprobably
p1733
aVthe
p1734
aVsame
p1735
aVguy
p1736
ag17
aVwho
p1737
aVdelivers
p1738
aVthe
p1739
aVwood
p1740
ag37
aaa(lp1741
Vjerry
p1742
a(lp1743
Voh
p1744
ag17
aVthan
p1745
ag11
aVgot
p1746
aVta
p1747
aVtip
p1748
aVhim
p1749
ag37
aaa(lp1750
Velaine
p1751
a(lp1752
Voh
p1753
aVdamn
p1754
ag17
aVthis
p1755
aVplace
p1756
aVis
p1757
aVincredible
p1758
ag17
aVlook
p1759
aVat
p1760
aVall
p1761
aVthis
p1762
aVgreat
p1763
aVlight
p1764
ag196
aaa(lp1765
Vjerry
p1766
a(lp1767
g11
aVdo
p1768
aVn't
p1769
aVhave
p1770
aVany
p1771
aVplants
p1772
ag37
aaa(lp1773
Vgeorge
p1774
a(lp1775
g11
aVhave
p1776
aVplants
p1777
ag37
aaa(lp1778
Velaine
p1779
a(lp1780
Vjerry
p1781
ag17
aVlook
p1782
aVat
p1783
aVthis
p1784
aVcloset
p1785
ag196
aVlook
p1786
aVat
p1787
aVthis
p1788
ag196
ag11
aV'm
p1789
aVwalking
p1790
aVin
p1791
aVit
p1792
ag196
aVit
p1793
aV's
p1794
ag61
aVwalk-in
p1795
ag37
aVcan
p1796
aVyou
p1797
aVbelieve
p1798
aVit
p1799
ag77
ag11
aV'm
p1800
aVnuts
p1801
aVabout
p1802
aVthis
p1803
ag17
aVwhat
p1804
aVdo
p1805
aVyou
p1806
aVthink
p1807
ag77
ag196
aaa(lp1808
Vjerry
p1809
a(lp1810
g11
aVlike
p1811
aVthat
p1812
ag37
aVwhat
p1813
aVdo
p1814
aVya
p1815
aVthink
p1816
ag17
aVgeorge
p1817
ag77
aaa(lp1818
Vgeorge
p1819
a(lp1820
Vit
p1821
aV's
p1822
aVyour
p1823
aVdecision
p1824
ag37
aaa(lp1825
Vjerry
p1826
a(lp1827
g11
aV'm
p1828
aVtakin
p1829
ag754
aVit
p1830
ag17
ag11
aV'm
p1831
aVtakin
p1832
ag754
aVthe
p1833
aVplace
p1834
ag17
ag11
aV'm
p1835
aVgon
p1836
aVna
p1837
aVtake
p1838
aVit
p1839
ag17
aVthis
p1840
aVis
p1841
aVgon
p1842
aVna
p1843
aVbe
p1844
aVmy
p1845
aVnew
p1846
aVplace
p1847
ag17
ag11
aV'm
p1848
aVlivin
p1849
ag754
aVhere
p1850
ag11
aV'm
p1851
aVmovin
p1852
ag754
ag37
aaa(lp1853
Velaine
p1854
a(lp1855
Vyour
p1856
aVmovin
p1857
ag754
ag77
aVthat
p1858
aVmeans
p1859
ag11
aV'm
p1860
aVmovin
p1861
ag754
ag37
aVgheeeeee
p1862
aVis
p1863
aVn't
p1864
aVthat
p1865
aVincredible
p1866
ag196
aaa(lp1867
Vgeorge
p1868
a(lp1869
Vcongratulations
p1870
ag37
aaa(lp1871
Velaine
p1872
a(lp1873
Vwhat
p1874
aVabout
p1875
aVthe
p1876
aVcouch
p1877
ag77
aaa(lp1878
Vjerry
p1879
a(lp1880
Vyou
p1881
aVlike
p1882
aVthe
p1883
aVcouch
p1884
ag77
ag11
aV'll
p1885
aVtell
p1886
aVya
p1887
aVwhat
p1888
ag11
aV'm
p1889
aVgon
p1890
aVna
p1891
aVdo
p1892
ag37
aaa(lp1893
Velaine
p1894
a(lp1895
Vwhat
p1896
ag77
aaa(lp1897
Vjerry
p1898
a(lp1899
Vyou
p1900
aV're
p1901
aVmovin
p1902
ag754
aVin
p1903
ag17
aVyou
p1904
aV're
p1905
ag61
aVgood
p1906
aVfriend
p1907
ag17
ag11
aVwan
p1908
aVna
p1909
aVstart
p1910
aVyou
p1911
aVoff
p1912
aVon
p1913
aVthe
p1914
aVright
p1915
aVfoot
p1916
ag37
aVgive
p1917
aVme
p1918
aV$
p1919
aV150
p1920
aVdollars
p1921
ag37
aVget
p1922
aVit
p1923
aVout
p1924
ag61
aVhere
p1925
aVright
p1926
aVnow
p1927
ag17
aVtake
p1928
aVit
p1929
aVout
p1930
aVthe
p1931
aVdoor
p1932
ag17
ag11
aVdo
p1933
aVn't
p1934
aVeven
p1935
aVwan
p1936
aVna
p1937
aVsee
p1938
aVit
p1939
ag17
aVgo
p1940
ag17
aVget
p1941
aVit
p1942
aVout
p1943
ag37
aaa(lp1944
Velaine
p1945
a(lp1946
g61
ag1919
aV150
p1947
aVdollars
p1948
ag77
ag61
ag1919
aV150
p1949
aVdollars
p1950
aVfor
p1951
aVwhat
p1952
ag77
aVfor
p1953
aVthis
p1954
aVcouch
p1955
ag77
aaa(lp1956
Vjerry
p1957
a(lp1958
Vyeah
p1959
ag196
aaa(lp1960
Velaine
p1961
a(lp1962
Vfor
p1963
aVthis
p1964
aVcouch
p1965
ag77
ag196
aaa(lp1966
Vjerry
p1967
a(lp1968
Vok
p1969
ag17
aVyou
p1970
aVtell
p1971
aVme
p1972
ag17
aVwhat
p1973
aVis
p1974
aVit
p1975
aVworth
p1976
ag77
aaa(lp1977
Velaine
p1978
a(lp1979
Vok
p1980
ag17
aVuuhh
p1981
ag11
aV'll
p1982
aVtell
p1983
aVyou
p1984
aVwhat
p1985
ag11
aVcould
p1986
aVgo
p1987
aVas
p1988
aVhigh
p1989
aVas
p1990
aVuh
p1991
ag11
aVdo
p1992
aVn't
p1993
aVknow
p1994
ag17
aVmaybe
p1995
ag1919
aV20
p1996
aVdollars
p1997
ag77
aaa(lp1998
Vjerry
p1999
a(lp2000
Vyeah
p2001
ag77
aaa(lp2002
Vgeorge
p2003
a(lp2004
Vyeah
p2005
ag17
aVit
p2006
aV's
p2007
aVgeorge
p2008
ag37
aaa(lp2009
Vjerry
p2010
a(lp2011
Vcome
p2012
aVon
p2013
aVup
p2014
ag37
aVoh
p2015
ag17
aVall
p2016
aVright
p2017
ag17
aVforget
p2018
aVit
p2019
ag17
ag11
aV'm
p2020
aVgon
p2021
aVna
p2022
aVtake
p2023
aVit
p2024
aVwith
p2025
aVme
p2026
aVnow
p2027
ag11
aV'm
p2028
aVjust
p2029
aVgon
p2030
aVna
p2031
aVpack
p2032
aVup
p2033
aVthe
p2034
aVcushions
p2035
aVright
p2036
aVnow
p2037
aaa(lp2038
Velaine
p2039
a(lp2040
Vok
p2041
aVok
p2042
aVok
p2043
aVok
p2044
ag17
aVyou
p2045
aVwin
p2046
ag1919
aV40
p2047
aVdollars
p2048
ag37
aaa(lp2049
Vjerry
p2050
a(lp2051
Vyou
p2052
aVwan
p2053
aVna
p2054
aVget
p2055
aVthe
p2056
aVother
p2057
aVend
p2058
ag17
aV'cause
p2059
ag11
aVwan
p2060
aVna
p2061
aVget
p2062
aVit
p2063
aVin
p2064
aVthe
p2065
aVhall
p2066
ag37
aaa(lp2067
Velaine
p2068
a(lp2069
g1919
aV50
p2070
aVdollars
p2071
ag17
aVok
p2072
ag77
ag1919
aV50
p2073
aVdollars
p2074
ag17
aVis
p2075
aVthat
p2076
aVall
p2077
aVright
p2078
ag77
aaa(lp2079
Vjerry
p2080
a(lp2081
g1919
aV50
p2082
aVdollars
p2083
ag77
aaa(lp2084
Velaine
p2085
a(lp2086
Vuh-huh
p2087
ag37
aaa(lp2088
Vjerry
p2089
a(lp2090
Vthank
p2091
aVyou
p2092
aVvery
p2093
aVmuch
p2094
ag37
aaa(lp2095
Velaine
p2096
a(lp2097
Vthank
p2098
aVyou
p2099
aVvery
p2100
aVmuch
p2101
ag37
aaa(lp2102
Vgeorge
p2103
a(lp2104
Vhey
p2105
ag17
aVwhat
p2106
aV's
p2107
aVgoin
p2108
ag754
aVon
p2109
ag77
aaa(lp2110
Velaine
p2111
a(lp2112
g11
aVjust
p2113
aVbought
p2114
aVjerry
p2115
aV's
p2116
aVcouch
p2117
aVfor
p2118
ag1919
aV50
p2119
aVdollars
p2120
ag37
aaa(lp2121
Vjerry
p2122
a(lp2123
Vso
p2124
aVdid
p2125
aVyou
p2126
aVbring
p2127
aVthe
p2128
aVlease
p2129
ag77
aVall
p2130
aVright
p2131
ag17
aVghee
p2132
ag17
aVthree
p2133
aVyears
p2134
ag17
aVthat
p2135
aVkinda
p2136
aVseems
p2137
aVlike
p2138
ag61
aVlong
p2139
aVtime
p2140
ag37
aaa(lp2141
Vgeorge
p2142
a(lp2143
Voh
p2144
ag17
aVjerry
p2145
aVjerry
p2146
aVjerry
p2147
aVjerry
p2148
aVjerry
p2149
ag17
aVlisten
p2150
ag17
aVif
p2151
ag17
aVif
p2152
aVyou
p2153
aVare
p2154
aVfeeling
p2155
aVuncomfortable
p2156
aVabout
p2157
aVthis
p2158
aVat
p2159
aVall
p2160
ag17
aVat
p2161
aVall
p2162
aVdo
p2163
aVnot
p2164
aVfeel
p2165
aVlike
p2166
aVyou
p2167
aVhave
p2168
aVto
p2169
aVtake
p2170
aVit
p2171
ag37
aaa(lp2172
Vjerry
p2173
a(lp2174
Vwhy
p2175
ag77
aaa(lp2176
Vgeorge
p2177
a(lp2178
Vif
p2179
aVyou
p2180
aV're
p2181
aVhaving
p2182
aVsecond
p2183
aVthoughts
p2184
ag17
aVif
p2185
aVyou
p2186
aVdid
p2187
aVn't
p2188
aVwant
p2189
aVit
p2190
ag17
aVdo
p2191
aVn't
p2192
aVworry
p2193
aVabout
p2194
aVit
p2195
aVbecause
p2196
aVuh
p2197
ag17
aVya
p2198
aVknow
p2199
ag17
ag11
ag17
ag11
ag11
aVcould
p2200
aVtake
p2201
aVit
p2202
ag17
aVya
p2203
aVknow
p2204
ag37
aaa(lp2205
Vjerry
p2206
a(lp2207
Vyou
p2208
aVcould
p2209
aVtake
p2210
aVit
p2211
ag77
aVyou
p2212
aVwant
p2213
aVit
p2214
ag77
aaa(lp2215
Vgeorge
p2216
a(lp2217
Vno
p2218
ag17
ag11
aVdo
p2219
aVn't
p2220
aVwant
p2221
aVit
p2222
ag37
ag11
aVwant
p2223
aVit
p2224
ag17
aVif
p2225
aVyou
p2226
aVdo
p2227
aVn't
p2228
aVwant
p2229
aVit
p2230
ag37
aaa(lp2231
Vjerry
p2232
a(lp2233
Vso
p2234
aVyou
p2235
aVdo
p2236
aVwant
p2237
aVit
p2238
ag37
aaa(lp2239
Vgeorge
p2240
a(lp2241
Vno
p2242
ag11
ag17
ag11
aVwant
p2243
aVit
p2244
aVif
p2245
aVyou
p2246
aVdo
p2247
aVn't
p2248
aVwant
p2249
aVit
p2250
ag196
aaa(lp2251
Vjerry
p2252
a(lp2253
Vyou
p2254
aVjust
p2255
aVsaid
p2256
ag17
aVyou
p2257
aVwanted
p2258
aVit
p2259
ag196
aaa(lp2260
Vgeorge
p2261
a(lp2262
Vno
p2263
ag17
ag11
aV'm
p2264
aVsaying
p2265
ag17
aVif
p2266
ag61
aVsituation
p2267
aVarose
p2268
aVin
p2269
aVwhich
p2270
aVyou
p2271
aVdid
p2272
aVn't
p2273
aVwant
p2274
aVit
p2275
ag17
ag11
aVmight
p2276
aVtake
p2277
aVit
p2278
ag37
aaa(lp2279
Vjerry
p2280
a(lp2281
Vso
p2282
aVtake
p2283
aVit
p2284
ag37
aaa(lp2285
Vgeorge
p2286
a(lp2287
Vhow
p2288
aVcan
p2289
ag11
aVtake
p2290
aVit
p2291
ag77
ag196
aaa(lp2292
Vjerry
p2293
a(lp2294
Vhow
p2295
aVcan
p2296
ag11
aVtake
p2297
aVit
p2298
ag77
aaa(lp2299
Vgeorge
p2300
a(lp2301
Vit
p2302
aV's
p2303
aVyour
p2304
aVapartment
p2305
ag196
aaa(lp2306
Vjerry
p2307
a(lp2308
Vhow
p2309
aVcan
p2310
ag11
aVwant
p2311
aVit
p2312
aVnow
p2313
ag17
aVif
p2314
aVyou
p2315
aVwant
p2316
aVit
p2317
ag77
aaa(lp2318
Velaine
p2319
a(lp2320
Vexcuse
p2321
aVme
p2322
ag17
aVuuhh
p2323
ag17
ag11
aVdo
p2324
aVn't
p2325
aVmean
p2326
aVto
p2327
aVcause
p2328
aVany
p2329
aVtrouble
p2330
aVhere
p2331
ag17
aVbut
p2332
aVgeorge
p2333
ag17
aVif
p2334
aVyou
p2335
aVtake
p2336
aVit
p2337
ag17
aVcan
p2338
ag11
aVtake
p2339
aVyour
p2340
aVplace
p2341
ag77
aaa(lp2342
Vgeorge
p2343
a(lp2344
Vyes
p2345
ag17
aVbut
p2346
ag11
aVam
p2347
aVnot
p2348
aVtaking
p2349
aVit
p2350
ag37
aaa(lp2351
Vjerry
p2352
a(lp2353
g11
aVam
p2354
aVnot
p2355
aVtaking
p2356
aVit
p2357
ag37
aaa(lp2358
Velaine
p2359
a(lp2360
Vwell
p2361
ag17
aVone
p2362
aVof
p2363
aVyou
p2364
aVbetter
p2365
aVdamn
p2366
aVwell
p2367
aVtake
p2368
aVit
p2369
ag196
aaa(lp2370
Vjerry
p2371
a(lp2372
Vwell
p2373
ag17
aVwhatta
p2374
aVyou
p2375
aVwan
p2376
aVna
p2377
aVdo
p2378
aVhere
p2379
ag77
aaa(lp2380
Vgeorge
p2381
a(lp2382
g11
ag17
ag11
aVdo
p2383
aVn't
p2384
aVknow
p2385
ag37
aaa(lp2386
Vjerry
p2387
a(lp2388
Vdo
p2389
aVyou
p2390
aVwan
p2391
aVna
p2392
aVflip
p2393
ag61
aVcoin
p2394
ag77
aaa(lp2395
Vgeorge
p2396
a(lp2397
Vwho
p2398
aVflips
p2399
ag77
aVyou
p2400
aV'll
p2401
aVflip
p2402
ag17
ag11
aV'll
p2403
aVcall
p2404
ag37
aaa(lp2405
Vjerry
p2406
a(lp2407
Vok
p2408
ag17
aVfine
p2409
aVthis
p2410
aVis
p2411
aVthe
p2412
aVofficial
p2413
aVflip
p2414
ag196
aVno
p2415
aVcrying
p2416
ag17
aVno
p2417
aVguilt
p2418
ag17
aVwinner
p2419
aVtakes
p2420
aVall
p2421
aVand
p2422
aVthat
p2423
aV's
p2424
aVit
p2425
ag17
aVagreed
p2426
ag77
aaa(lp2427
Vgeorge
p2428
a(lp2429
g11
aV'm
p2430
aVgood
p2431
ag37
aaa(lp2432
Velaine
p2433
a(lp2434
g11
aVdo
p2435
aVn't
p2436
aVknow
p2437
ag17
aVwho
p2438
aVto
p2439
aVrune
p2440
aVfor
p2441
ag17
aVgeorge
p2442
aV's
p2443
aVplace
p2444
aVhas
p2445
aVcarpeting
p2446
ag37
aaa(lp2447
Vjerry
p2448
a(lp2449
Vall
p2450
aVright
p2451
ag17
aVnow
p2452
aVyou
p2453
aVcall
p2454
aVit
p2455
aVin
p2456
aVthe
p2457
aVair
p2458
ag37
aaa(lp2459
Vgeorge
p2460
a(lp2461
Vno
p2462
aVcatchin
p2463
ag754
ag37
aaa(lp2464
Vjerry
p2465
a(lp2466
Vno
p2467
aVno
p2468
ag37
aaa(lp2469
Vgeorge
p2470
a(lp2471
Vflip
p2472
aVit
p2473
ag37
aVheads
p2474
ag196
aaa(lp2475
Vjerry
p2476
a(lp2477
Vtails
p2478
ag196
aaa(lp2479
Vgeorge
p2480
a(lp2481
Vno
p2482
ag17
aVit
p2483
aVhit
p2484
aVthe
p2485
aVtable
p2486
ag17
aVit
p2487
aVhit
p2488
aVthe
p2489
aVtable
p2490
ag37
aaa(lp2491
Vjerry
p2492
a(lp2493
Vso
p2494
aVwhat
p2495
ag77
aaa(lp2496
Vgeorge
p2497
a(lp2498
Vinterference
p2499
ag196
aVyou
p2500
aVca
p2501
aVn't
p2502
aVcount
p2503
aVthat
p2504
ag37
aVcome
p2505
aVon
p2506
ag17
aVare
p2507
aVyou
p2508
aVcrazy
p2509
ag77
ag196
ag196
aVthe
p2510
aVcoin
p2511
aVcan
p2512
aVnot
p2513
aVtouch
p2514
aVanything
p2515
ag17
aVit
p2516
aVaffects
p2517
aVit
p2518
ag37
aaa(lp2519
Vjerry
p2520
a(lp2521
Vyou
p2522
aVdid
p2523
aVn't
p2524
aVcall
p2525
aVno
p2526
aVinterference
p2527
ag196
aaa(lp2528
Vgeorge
p2529
a(lp2530
Vyou
p2531
aVdo
p2532
aVn't
p2533
aVhave
p2534
aVto
p2535
aVcall
p2536
aVthat
p2537
ag37
aVthat
p2538
aV's
p2539
ag61
aVrule
p2540
ag196
ag196
aaa(lp2541
Vjerry
p2542
a(lp2543
g11
aVdo
p2544
aVn't
p2545
aVbelieve
p2546
aVthis
p2547
ag37
aaa(lp2548
Vgeorge
p2549
a(lp2550
Voh
p2551
aVoh
p2552
aVoh
p2553
ag17
aVall
p2554
aVright
p2555
ag17
aVfine
p2556
ag17
aVjerry
p2557
ag17
aVyou
p2558
aVwin
p2559
ag37
aVtake
p2560
aVit
p2561
ag17
aVjust
p2562
aVtake
p2563
aVit
p2564
ag196
aaa(lp2565
Vjerry
p2566
a(lp2567
g11
aVdo
p2568
aVn't
p2569
aVwan
p2570
aVna
p2571
aVwin
p2572
aVit
p2573
aVlike
p2574
aVthis
p2575
ag196
aVelaine
p2576
ag17
aVwhat
p2577
aVdo
p2578
aVya
p2579
aVthink
p2580
ag77
aaa(lp2581
Velaine
p2582
a(lp2583
g11
aV'd
p2584
aVbetter
p2585
aVnot
p2586
aaa(lp2587
Vjerry
p2588
a(lp2589
Vwell
p2590
ag17
ag11
aV'll
p2591
aVtell
p2592
aVya
p2593
aVwhat
p2594
ag11
aV'll
p2595
aVchoose
p2596
aVyou
p2597
aVfor
p2598
aVit
p2599
ag37
aVstraight
p2600
aVchoose
p2601
ag17
aVthree
p2602
aVtakes
p2603
aVit
p2604
ag17
aVno
p2605
aVdisputes
p2606
aVthat
p2607
aV's
p2608
aVit
p2609
ag17
aVyou
p2610
aVgot
p2611
aVta
p2612
aVwin
p2613
aVthree
p2614
ag37
aaa(lp2615
Vgeorge
p2616
a(lp2617
Vok
p2618
aVok.
p2619
ag11
aV'll
p2620
aVchoose
p2621
aVyou
p2622
aVwhatta
p2623
aVya
p2624
aVwant
p2625
ag77
aaa(lp2626
Vjerry
p2627
a(lp2628
Vodds
p2629
aaa(lp2630
Vgeorge
p2631
a(lp2632
g11
aVwant
p2633
aVevens
p2634
ag37
aaa(lp2635
Vjerry
p2636
a(lp2637
Vgood
p2638
ag37
aaa(lp2639
Vgeorge
p2640
a(lp2641
Vyou
p2642
aVgot
p2643
aVodds
p2644
ag37
aVjerry
p2645
aVyou
p2646
aVgot
p2647
aVevens
p2648
ag37
aaa(lp2649
Vgeorge
p2650
a(lp2651
Vright
p2652
ag17
aVready
p2653
ag37
aaa(lp2654
Vjerry
p2655
a(lp2656
Vfor
p2657
aVthe
p2658
aVapartment
p2659
ag37
aaa(lp2660
Vboth
p2661
a(lp2662
Vonce
p2663
ag17
aVtwice
p2664
ag17
aVthree
p2665
ag17
aVshoot
p2666
ag196
aaa(lp2667
Vjerry
p2668
a(lp2669
Vmine
p2670
ag196
aaa(lp2671
Vboth
p2672
a(lp2673
Vonce
p2674
ag17
aVtwice
p2675
ag17
aVthree
p2676
ag17
aVshoot
p2677
ag196
aaa(lp2678
Vjerry
p2679
a(lp2680
Vmine
p2681
ag196
aaa(lp2682
Vboth
p2683
a(lp2684
Vonce
p2685
ag17
aVtwice
p2686
ag17
aVthree
p2687
ag17
aVshoot
p2688
ag196
aaa(lp2689
Vgeorge
p2690
a(lp2691
Vmine
p2692
ag196
aaa(lp2693
Vboth
p2694
a(lp2695
Vonce
p2696
ag17
aVtwice
p2697
ag17
aVthree
p2698
ag17
aVshoot
p2699
ag196
aaa(lp2700
Vgeorge
p2701
a(lp2702
Vcongratulations
p2703
aVcongratulations
p2704
ag37
aaa(lp2705
Vjerry
p2706
a(lp2707
Vthanks
p2708
ag37
aaa(lp2709
Vgeorge
p2710
a(lp2711
Vwhat
p2712
aVdid
p2713
ag11
aVput
p2714
aVup
p2715
aVto
p2716
ag77
aVwhat
p2717
aVdid
p2718
ag11
aVput
p2719
aVup
p2720
aVto
p2721
ag77
aaa(lp2722
Vkramer
p2723
a(lp2724
Vjerry
p2725
ag17
ag11
aVthink
p2726
ag11
aV'm
p2727
aVon
p2728
aVto
p2729
aVsomething
p2730
ag37
ag11
aVthink
p2731
ag11
aVfound
p2732
aVyour
p2733
aVstuff
p2734
ag37
aVyou
p2735
aVknow
p2736
aVthe
p2737
aVenglishman
p2738
ag17
aVwho
p2739
aVlives
p2740
aVdown
p2741
aVthe
p2742
aVhall
p2743
ag77
aaa(lp2744
Vjerry
p2745
a(lp2746
Vyeah
p2747
ag37
aaa(lp2748
Vkramer
p2749
a(lp2750
Vthe
p2751
aVlast
p2752
aVcouple
p2753
ag61
aVdays
p2754
aVhe
p2755
aV's
p2756
aVbeen
p2757
aVacting
p2758
aVvery
p2759
aVstrange
p2760
ag11
aVthink
p2761
aVhe
p2762
aV's
p2763
aVavoiding
p2764
aVme
p2765
ag37
aaa(lp2766
Vjerry
p2767
a(lp2768
Vhard
p2769
aVto
p2770
aVimagine
p2771
ag37
aaa(lp2772
Vkramer
p2773
a(lp2774
Vyeah
p2775
ag196
aVand
p2776
aVget
p2777
aVthis
p2778
ag11
aVjust
p2779
aVgot
p2780
aVof
p2781
aVthe
p2782
aVelevator
p2783
aVwith
p2784
aVhim
p2785
aVand
p2786
ag11
aVtested
p2787
aVhim
p2788
ag17
ag11
aVtested
p2789
aVhim
p2790
ag17
aVlike
p2791
ag11
aVthis
p2792
aVis
p2793
aVwhat
p2794
ag11
aVsaid
p2795
aVto
p2796
aVhim
p2797
ag17
aVlike
p2798
ag11
ag17
ag11
aVwas
p2799
aVlike
p2800
aVthis
p2801
aV(
p2802
aVshows
p2803
aVhow
p2804
aVhe
p2805
aVwas
p2806
aVacting
p2807
aVstuff
p2808
ag37
aaa(lp2809
Vjerry
p2810
a(lp2811
Vright
p2812
ag37
aaa(lp2813
Vkramer
p2814
a(lp2815
Vya
p2816
aVknow
p2817
ag17
aVvery
p2818
aVcasually
p2819
ag17
aVso
p2820
aVthat
p2821
aVhe
p2822
aVwas
p2823
aVgon
p2824
aVna
p2825
aVtake
p2826
aVme
p2827
aVin
p2828
aVto
p2829
aVhis
p2830
aVconfidence
p2831
ag37
aaa(lp2832
Velaine
p2833
a(lp2834
Vso
p2835
aVwhat
p2836
aVdid
p2837
aVhe
p2838
aVsay
p2839
ag77
aaa(lp2840
Vkramer
p2841
a(lp2842
Vwhat
p2843
aVstuff
p2844
ag77
ag37
aaa(lp2845
Vjerry
p2846
a(lp2847
Vooh
p2848
ag17
aVcase
p2849
aVclosed
p2850
ag196
aaa(lp2851
Vkramer
p2852
a(lp2853
Vno
p2854
ag17
aVyou
p2855
aVdo
p2856
aVn't
p2857
aVunderstand
p2858
ag17
aVyou
p2859
aVsee
p2860
ag17
aVhe
p2861
aVswallowed
p2862
aVsee
p2863
ag17
aVthe
p2864
aVguy
p2865
ag17
aVhe
p2866
aVswallowed
p2867
ag37
aVoh
p2868
ag17
aVhe
p2869
aVwas
p2870
aVnervous
p2871
aVabout
p2872
aVsomething
p2873
ag196
aVnow
p2874
ag17
ag11
aV'm
p2875
aVgon
p2876
aVna
p2877
aVgo
p2878
aVover
p2879
aVthere
p2880
ag17
ag11
aV'm
p2881
aVgon
p2882
aVna
p2883
aVborrow
p2884
aVsome
p2885
aVtee
p2886
aVif
p2887
aaa(lp2888
Vi
p2889
a(lp2890
Vdo
p2891
aVn't
p2892
aVget
p2893
aVback
p2894
aVin
p2895
aVfive
p2896
aVminutes
p2897
ag17
aVmaybe
p2898
aVyou
p2899
aV'd
p2900
aVbetter
p2901
aVcall
p2902
aVthe
p2903
aVpolice
p2904
ag37
aaa(lp2905
Vjerry
p2906
a(lp2907
Vok
p2908
ag17
aVstarting
p2909
aVnow
p2910
ag196
aaa(lp2911
Vkramer
p2912
a(lp2913
Vyeah
p2914
ag196
aaa(lp2915
Vjerry
p2916
a(lp2917
Vone
p2918
aVof
p2919
aVthe
p2920
aVproblems
p2921
aVin
p2922
aVlife
p2923
aVis
p2924
aVthat
p2925
aVwhen
p2926
aVyou
p2927
aV're
p2928
ag61
aVkid
p2929
ag17
aVyou
p2930
aVhave
p2931
ag61
aVcertain
p2932
aVway
p2933
aVof
p2934
aVworking
p2935
aVout
p2936
aVdisagreements
p2937
aVand
p2938
aVthose
p2939
aVlaws
p2940
aVdo
p2941
aVnot
p2942
aVwork
p2943
aVin
p2944
aVthe
p2945
aVadult
p2946
aVworld
p2947
ag37
aVone
p2948
aVof
p2949
aVthe
p2950
aVmain
p2951
aVway
p2952
aVthat
p2953
aVkids
p2954
aVresolve
p2955
aVany
p2956
aVdispute
p2957
aVis
p2958
aVby
p2959
aVcalling
p2960
aVit
p2961
ag37
aVone
p2962
aVof
p2963
aVthem
p2964
aaa(lp2965
Vsay
p2966
a(lp2967
g11
aVgot
p2968
aVthe
p2969
aVfront
p2970
aVseat
p2971
ag11
aVwanted
p2972
aVthe
p2973
aVfront
p2974
aVseat
p2975
ag196
ag11
aVcalled
p2976
aVit
p2977
ag37
aVand
p2978
aVthe
p2979
aVother
p2980
aVcalled
p2981
aVit
p2982
ag17
aVwhat
p2983
aVcan
p2984
ag11
aVdo
p2985
ag77
ag37
aVif
p2986
aVthere
p2987
aVwas
p2988
ag61
aVkid-court
p2989
aVof
p2990
aVlaw
p2991
aVit
p2992
aVholds
p2993
aVup
p2994
aVyour
p2995
aVhonour
p2996
ag17
aVmy
p2997
aVclient
p2998
aVdid
p2999
aVask
p3000
aVit
p3001
ag77
aVwell
p3002
aVno
p3003
ag17
aVhe
p3004
aVdid
p3005
aVn't
p3006
aVcall
p3007
aVbang
p3008
ag196
aVhe
p3009
aVhas
p3010
aVto
p3011
aVcall
p3012
aVit
p3013
ag17
aVcase
p3014
aVclosed
p3015
aVobjection
p3016
aVoverruled
p3017
ag37
aaa(lp3018
Vgeorge
p3019
a(lp3020
g11
aVlove
p3021
aVthe
p3022
aVmirror
p3023
aVin
p3024
aVthat
p3025
aVin
p3026
aVthat
p3027
aVmirror
p3028
ag37
ag11
aVdo
p3029
aVn't
p3030
aVknow
p3031
aVif
p3032
aVit
p3033
aV's
p3034
aVthe
p3035
aVtile
p3036
aVor
p3037
aVthe
p3038
aVlighting
p3039
ag11
aVfeel
p3040
aVlike
p3041
aVrobert
p3042
aVwagner
p3043
ag37
aaa(lp3044
Vjerry
p3045
a(lp3046
Vit
p3047
aV's
p3048
ag61
aVgood
p3049
aVmirror
p3050
aVso
p3051
ag17
aVwhat
p3052
aVare
p3053
aVya
p3054
aVgettin
p3055
ag754
ag77
aaa(lp3056
Vgeorge
p3057
a(lp3058
g11
aVdo
p3059
aVn't
p3060
aVknow
p3061
ag17
ag11
aVca
p3062
aVn't
p3063
aVeat
p3064
ag17
aVya
p3065
ag17
aVya
p3066
aVca
p3067
aVn't
p3068
aVhave
p3069
aVanything
p3070
aVfrench
p3071
aVfries
p3072
aVout
p3073
ag17
aVblt
p3074
aVout
p3075
ag196
ag11
aVgo
p3076
aVto
p3077
aVvisit
p3078
aVmy
p3079
aVgrandparents
p3080
aVthree
p3081
aVbig
p3082
aVbrisket
p3083
aVsandwiches
p3084
ag17
ag11
aV'm
p3085
aVsittin
p3086
ag754
aVhere
p3087
aVwith
p3088
ag61
aVcarrot
p3089
ag196
aVyou
p3090
aVeat
p3091
aVthat
p3092
aVstuff
p3093
ag77
ag196
ag11
aV'm
p3094
aVso
p3095
aVsick
p3096
aVabout
p3097
aVlosin
p3098
ag754
aVthat
p3099
aVchoose
p3100
ag17
aVyou
p3101
aVdo
p3102
aVn't
p3103
aVknow
p3104
ag37
aaa(lp3105
Vjerry
p3106
a(lp3107
Voh
p3108
ag17
aVright
p3109
ag17
aVforget
p3110
aVit
p3111
ag17
aVforget
p3112
aVit
p3113
ag17
ag11
aV'm
p3114
aVnot
p3115
aVtaking
p3116
aVthe
p3117
aVplace
p3118
ag196
aaa(lp3119
Vgeorge
p3120
a(lp3121
Vwhat
p3122
ag77
ag196
aaa(lp3123
Vjerry
p3124
a(lp3125
Vhow
p3126
aVcan
p3127
ag11
aVlive
p3128
aVthere
p3129
ag77
aaa(lp3130
Vgeorge
p3131
a(lp3132
Vwhy
p3133
aVnot
p3134
ag77
ag196
aaa(lp3135
Vjerry
p3136
a(lp3137
Vlook
p3138
aVat
p3139
aVyou
p3140
ag17
aVyou
p3141
aV're
p3142
aVstill
p3143
aVthinking
p3144
aVabout
p3145
aVit
p3146
ag17
ag11
aV'll
p3147
aVnever
p3148
aVfeel
p3149
aVcomfortable
p3150
ag37
aaa(lp3151
Vgeorge
p3152
a(lp3153
Voh
p3154
ag17
aVget
p3155
aVout
p3156
ag61
aVhere
p3157
ag37
aaa(lp3158
Vjerry
p3159
a(lp3160
Vhow
p3161
aVcan
p3162
ag11
aVever
p3163
aVhave
p3164
aVyou
p3165
aVover
p3166
ag77
aVyou
p3167
aV'll
p3168
aVsit
p3169
aVthere
p3170
aVmoping
p3171
ag37
aaa(lp3172
Vgeorge
p3173
a(lp3174
Vmope
p3175
ag77
aaa(lp3176
Vjerry
p3177
a(lp3178
Vyou
p3179
aV're
p3180
aValready
p3181
aVmoping
p3182
ag196
aVwould
p3183
aVyou
p3184
aVtake
p3185
aVthe
p3186
aVplace
p3187
ag77
aaa(lp3188
Vgeorge
p3189
a(lp3190
Vno
p3191
ag17
aVimpossible
p3192
ag196
aVit
p3193
aV's
p3194
aVyour
p3195
aVapartment
p3196
ag37
aaa(lp3197
Vjerry
p3198
a(lp3199
Vyou
p3200
aVfound
p3201
aVthe
p3202
aVplace
p3203
ag37
aaa(lp3204
Vgeorge
p3205
a(lp3206
Vyou
p3207
aVwon
p3208
aVthe
p3209
aVchoose
p3210
ag37
aaa(lp3211
Vjerry
p3212
a(lp3213
Vall
p3214
aVright
p3215
ag17
aVforget
p3216
aVit
p3217
ag17
aVit
p3218
aV's
p3219
aVover
p3220
ag17
ag11
aV'm
p3221
aVnot
p3222
aVmoving
p3223
ag37
aaa(lp3224
Vgeorge
p3225
a(lp3226
Vwell
p3227
ag17
aVme
p3228
aVneither
p3229
ag37
aaa(lp3230
Vjerry
p3231
a(lp3232
Vdefinitely
p3233
ag77
aaa(lp3234
Vgeorge
p3235
a(lp3236
Vdefinitely
p3237
ag37
aaa(lp3238
Vjerry
p3239
a(lp3240
Voh
p3241
ag17
aVthan
p3242
aVjust
p3243
aVget
p3244
aVrid
p3245
aVof
p3246
aVit
p3247
ag37
aVyou
p3248
aVwo
p3249
aVn't
p3250
aVhave
p3251
aVany
p3252
aVproblem
p3253
ag37
aaa(lp3254
Vgeorge
p3255
a(lp3256
Vno
p3257
ag17
aVit
p3258
aV's
p3259
aVnot
p3260
ag61
aVproblem
p3261
ag17
ag11
aVcan
p3262
aVget
p3263
aVrid
p3264
aVof
p3265
aVthe
p3266
aVapartment
p3267
aVthis
p3268
aVafternoon
p3269
ag37
aaa(lp3270
Vwaitress
p3271
a(lp3272
Vwhat
p3273
aVapartment
p3274
ag77
aaa(lp3275
Vgeorge
p3276
a(lp3277
Voh
p3278
ag17
aVit
p3279
aV's
p3280
ag61
aVgreat
p3281
aVplace
p3282
ag17
aVit
p3283
aV's
p3284
aVuh
p3285
aVtwo-bedroom
p3286
aVuh
p3287
ag17
aVwest
p3288
aV83rd
p3289
aV'bout
p3290
aVhalf
p3291
aVblock
p3292
aVfrom
p3293
aVthe
p3294
aVpark
p3295
ag37
aaa(lp3296
Vwaitress
p3297
a(lp3298
Vwhat
p3299
aV's
p3300
aVthe
p3301
aVrent
p3302
ag77
aaa(lp3303
Vgeorge
p3304
a(lp3305
g11
aVdo
p3306
aVn't
p3307
aVknow
p3308
ag17
aVwhat
p3309
aVwe
p3310
aV're
p3311
aVdoin
p3312
ag754
aVhere
p3313
ag17
aVthis
p3314
aVis
p3315
aVridiculous
p3316
ag37
aaa(lp3317
Vjerry
p3318
a(lp3319
Vshe
p3320
aVwanted
p3321
aVto
p3322
aVthank
p3323
aVus
p3324
aVfor
p3325
aVthe
p3326
aVapartment
p3327
ag37
aaa(lp3328
Velaine
p3329
a(lp3330
g11
aVca
p3331
aVn't
p3332
aVbelieve
p3333
ag11
aVlost
p3334
aVthe
p3335
aVdeposit
p3336
aVon
p3337
aVthat
p3338
aVu-hall.and
p3339
ag11
aVthrew
p3340
aVout
p3341
aVmy
p3342
aVcouch
p3343
ag37
aaa(lp3344
Vjerry
p3345
a(lp3346
Vif
p3347
aVonly
p3348
aVthe
p3349
aVcoin
p3350
aVhad
p3351
aVn't
p3352
aVhit
p3353
aVthe
p3354
aVtable
p3355
ag37
aaa(lp3356
Vgeorge
p3357
a(lp3358
Vthe
p3359
aVtable
p3360
aVis
p3361
aVinterference
p3362
ag17
aVyou
p3363
aVknow
p3364
aVit
p3365
ag196
aaa(lp3366
Vjerry
p3367
a(lp3368
Vit
p3369
aVis
p3370
aVnot
p3371
ag196
aaa(lp3372
Vgeorge
p3373
a(lp3374
Vit
p3375
aVis
p3376
aVtoo
p3377
ag196
aaa(lp3378
Velaine
p3379
a(lp3380
Vmy
p3381
aVroommate
p3382
aVstarts
p3383
aVrehearsal
p3384
aVtonight
p3385
aVon
p3386
aVcarrousel
p3387
ag37
aaa(lp3388
Vwaitress
p3389
a(lp3390
Vhi
p3391
ag37
aaa(lp3392
Vgeorge
p3393
a(lp3394
Vhi
p3395
ag17
aVcarol
p3396
ag37
aaa(lp3397
Vcarol
p3398
a(lp3399
g11
aVjust
p3400
aVwanted
p3401
aVto
p3402
aVintroduce
p3403
aVyou
p3404
aVto
p3405
aVmy
p3406
aVhusband
p3407
ag17
aVthis
p3408
aVis
p3409
aVlarry
p3410
ag37
aVthis
p3411
aVis
p3412
aVgeorge
p3413
ag17
aVelaine
p3414
aVand
p3415
aVjerry
p3416
aVthese
p3417
aVare
p3418
aVthe
p3419
aVguys
p3420
aVwho
p3421
aVgot
p3422
aVus
p3423
aVthe
p3424
aVapartment
p3425
ag37
aaa(lp3426
Vlarry
p3427
a(lp3428
Voh
p3429
ag17
aVyou
p3430
aVdo
p3431
aVn't
p3432
aVknow
p3433
aVhow
p3434
aVgrateful
p3435
ag11
aVam
p3436
ag17
aVif
p3437
aVthere
p3438
aV's
p3439
aVanything
p3440
ag11
aVcan
p3441
aVever
p3442
aVdo
p3443
aVto
p3444
aVrepay
p3445
aVyou
p3446
ag17
ag11
ag17
ag11
aVmean
p3447
ag17
aVwe
p3448
aV're
p3449
aVjust
p3450
aVso
p3451
aVthrilled
p3452
aVwith
p3453
aVthis
p3454
aVplace
p3455
ag37
aaa(lp3456
Vcarol
p3457
a(lp3458
Vit
p3459
aV's
p3460
ag61
aVdream
p3461
ag37
aaa(lp3462
Vlarry
p3463
a(lp3464
g11
aV'm
p3465
aVrunning
p3466
aVin
p3467
aVthe
p3468
aVpark
p3469
aVnow
p3470
ag17
ag11
aV've
p3471
aVlost
p3472
aVweight
p3473
ag17
aVwe
p3474
aV're
p3475
aVbarbecuing
p3476
aVevery
p3477
aVnight
p3478
aVand
p3479
aVthe
p3480
aVrent
p3481
aVis
p3482
aVunbelievable
p3483
ag37
aaa(lp3484
Vgeorge
p3485
a(lp3486
Vwe
p3487
aV're
p3488
aVreally
p3489
aVglad
p3490
aVfor
p3491
aVya
p3492
ag37
aaa(lp3493
Velaine
p3494
a(lp3495
Vcould
p3496
aVn't
p3497
aVbe
p3498
aVhappier
p3499
ag37
aaa(lp3500
Vjerry
p3501
a(lp3502
Vit
p3503
aV's
p3504
aVwonderful
p3505
ag37
aaa(lp3506
Vcarol
p3507
a(lp3508
Vdiane
p3509
ag17
aVdiane
p3510
ag17
aVcome
p3511
aVhere
p3512
ag37
aVthis
p3513
aVis
p3514
aVmy
p3515
aVnew
p3516
aVnext
p3517
aVdoor
p3518
aVneighbour
p3519
ag17
aVdiane
p3520
ag37
aVthese
p3521
aVare
p3522
aVthe
p3523
aVguys
p3524
ag17
aVwho
p3525
aVturned
p3526
aVthis
p3527
aVplace
p3528
aVdown
p3529
ag17
aVcan
p3530
aVyou
p3531
aVbelieve
p3532
aVit
p3533
ag77
aVdiane
p3534
aVgave
p3535
aVme
p3536
aVthe
p3537
aVgreatest
p3538
aVbackrub
p3539
aVtoday
p3540
ag17
aVshe
p3541
aV's
p3542
ag61
aVmasseuse
p3543
ag196
aaa(lp3544
Vdiane
p3545
a(lp3546
Vhow
p3547
ag17
aVhow
p3548
aVcould
p3549
aVyou
p3550
aVguys
p3551
aVhave
p3552
aVturned
p3553
aVthis
p3554
aVplace
p3555
aVdown
p3556
ag17
aVit
p3557
aV's
p3558
aVsuch
p3559
ag61
aVgreat
p3560
aVlocation
p3561
aVand
p3562
aVit
p3563
aV's
p3564
aVso
p3565
aVclose
p3566
aVto
p3567
aVthe
p3568
aVpark
p3569
ag37
aaa(lp3570
Vgeorge
p3571
a(lp3572
Vwe
p3573
aV're
p3574
aVaware
p3575
aVof
p3576
aVthe
p3577
aVproximity
p3578
aVto
p3579
aVthe
p3580
aVpark
p3581
ag17
aVyes
p3582
ag37
aaa(lp3583
Vdiane
p3584
a(lp3585
Vwell
p3586
ag17
aVit
p3587
aVwas
p3588
aVnice
p3589
aVto
p3590
aVmeet
p3591
aVyou
p3592
ag37
aaa(lp3593
Vgeorge
p3594
a(lp3595
Vnice
p3596
aVmeeting
p3597
aVyou
p3598
ag37
aaa(lp3599
Vjerry
p3600
a(lp3601
Vhow
p3602
aVlate
p3603
aVare
p3604
aVthe
p3605
aVstores
p3606
aVopen
p3607
ag77
ag11
aV'm
p3608
aVthinking
p3609
aVof
p3610
aVmaybe
p3611
aVuh
p3612
ag17
aVbuying
p3613
ag61
aVnew
p3614
aVtv
p3615
aVand
p3616
aVsmash
p3617
aVit
p3618
aVover
p3619
aVmy
p3620
aVhead
p3621
ag37
aVright
p3622
aVman
p3623
ag11
aVget
p3624
ag61
aVcall
p3625
aVfrom
p3626
aVgilmore
p3627
aVthis
p3628
aVmorning
p3629
aVand
p3630
aVget
p3631
aaa.