(lp0
(lp1
Vjerry
p2
a(lp3
Vmale
p4
aVunbonding
p5
aVwritten
p6
aVby
p7
aVlarry
p8
aVdavid
p9
aV&
p10
aVjerry
p11
aVseinfeld
p12
aVmost
p13
aVmen
p14
aVlike
p15
aVworking
p16
aVon
p17
aVthings
p18
aV,
p19
aVtools
p20
ag19
aVobjects
p21
ag19
aVfixing
p22
aVthings
p23
aV.
p24
aVthis
p25
aVis
p26
aVwhat
p27
aVmen
p28
aVenjoy
p29
aVdoing
p30
ag24
aVhave
p31
aVyou
p32
aVever
p33
aVnoticed
p34
aVa
p35
aVguy
p36
aV's
p37
aVout
p38
aVin
p39
aVhis
p40
aVdriveway
p41
aVworking
p42
aVon
p43
aVsomething
p44
aVwith
p45
aVtools
p46
ag19
aVhow
p47
aVall
p48
aVthe
p49
aVother
p50
aVmen
p51
aVin
p52
aVthe
p53
aVneighborhood
p54
aVare
p55
aVmagnetically
p56
aVdrawn
p57
aVto
p58
aVthis
p59
aVactivity
p60
ag24
aVthey
p61
aVjust
p62
aVcome
p63
aVwandering
p64
aVout
p65
aVof
p66
aVthe
p67
aVhouse
p68
aVlike
p69
aVzombies
p70
ag24
aVmen
p71
ag19
aVit
p72
aV's
p73
aVtrue
p74
ag19
aVmen
p75
aVhear
p76
ag35
aVdrill
p77
ag19
aVit
p78
aV's
p79
aVlike
p80
ag35
aVdog
p81
aVwhistle
p82
ag24
aVjust
p83
aVyou
p84
aVknow
p85
ag19
aVthey
p86
aVgo
p87
aVrunning
p88
aVup
p89
aVto
p90
aVthat
p91
aVliving
p92
aVroom
p93
aVcurtain
p94
ag19
aVhoney
p95
ag19
aVi
p96
aVthink
p97
aVjim
p98
aV's
p99
aVworking
p100
aVon
p101
aVsomething
p102
aVover
p103
aVthere
p104
ag24
aVso
p105
aVthey
p106
aVrun
p107
aVover
p108
aVto
p109
aVthe
p110
aVguy
p111
ag24
aVnow
p112
aVthey
p113
aVdo
p114
aVn't
p115
aVactually
p116
aVhelp
p117
aVthe
p118
aVguy
p119
ag24
aVno
p120
ag19
aVthey
p121
aVjust
p122
aVwant
p123
aVto
p124
aVhang
p125
aVaround
p126
aVthe
p127
aVarea
p128
aVwhere
p129
aVwork
p130
aVis
p131
aVbeing
p132
aVdone
p133
ag24
aVthat
p134
aV's
p135
aVwhat
p136
aVmen
p137
aVwant
p138
aVto
p139
aVdo
p140
ag24
aVwe
p141
aVwant
p142
aVto
p143
aVwatch
p144
aVthe
p145
aVguy
p146
ag19
aVwe
p147
aVwant
p148
aVto
p149
aVtalk
p150
aVto
p151
aVhim
p152
ag19
aVwe
p153
aVwant
p154
aVto
p155
aVask
p156
aVhim
p157
aVdumb
p158
aVquestions
p159
ag24
aVyou
p160
aVknow
p161
ag19
aVwhat
p162
aVare
p163
aVyou
p164
aVusing
p165
ag19
aVthe
p166
aVphilips
p167
aVhead
p168
aV?
p169
aVyou
p170
aVknow
p171
ag19
aVwe
p172
aVfeel
p173
aVinvolved
p174
ag24
aVthat
p175
aV's
p176
aVwhy
p177
aVwhen
p178
aVthey
p179
aVhave
p180
aVconstruction
p181
aVsites
p182
ag19
aVthey
p183
aVhave
p184
aVto
p185
aVhave
p186
aVthose
p187
aVwood
p188
aVpanel
p189
aVfences
p190
aVaround
p191
aVit
p192
ag19
aVthat
p193
aV's
p194
aVjust
p195
aVto
p196
aVkeep
p197
aVthe
p198
aVmen
p199
aVout
p200
ag24
aVthey
p201
aVcut
p202
aVthose
p203
aVlittle
p204
aVholes
p205
aVfor
p206
aVus
p207
aVso
p208
aVwe
p209
aVcan
p210
aVsee
p211
aVwhat
p212
aVthe
p213
aVhell
p214
aVis
p215
aVgoing
p216
aVon
p217
ag24
aVbut
p218
aVif
p219
aVthey
p220
aVdo
p221
aVn't
p222
aVcut
p223
aVthose
p224
aVholes
p225
aV-
p226
aVwe
p227
aVare
p228
aVclimbing
p229
aVthose
p230
aVfences
p231
ag24
aVright
p232
aVover
p233
aVthere
p234
ag24
aVwhat
p235
aVare
p236
aVyou
p237
aVusing
p238
aVthe
p239
aVsteel
p240
aVgirders
p241
aVdown
p242
aVthere
p243
ag169
aVyeah
p244
ag19
aVthat
p245
aV'll
p246
aVhold
p247
ag24
aaa(lp248
Vgeorge
p249
a(lp250
g96
aVhad
p251
aVto
p252
aVsay
p253
aVsomething
p254
ag24
ag96
aVhad
p255
aVto
p256
aVsay
p257
aVsomething
p258
ag24
aVeverything
p259
aVwas
p260
aVgoing
p261
aVso
p262
aVwell
p263
ag96
aVhad
p264
aVto
p265
aVsay
p266
aVsomething
p267
ag24
aaa(lp268
Vjerry
p269
a(lp270
g96
aVdo
p271
aVn't
p272
aVthink
p273
aVyou
p274
aVdid
p275
aVanything
p276
aVwrong
p277
ag24
aaa(lp278
Vgeorge
p279
a(lp280
g96
aVtold
p281
aVher
p282
ag96
aVliked
p283
aVher
p284
ag24
aVwhy
p285
ag169
aVwhy
p286
aVdid
p287
ag96
aVtell
p288
aVher
p289
ag96
aVlike
p290
aVher
p291
ag169
ag96
aVhave
p292
aVthis
p293
aVsick
p294
aVcompulsion
p295
aVto
p296
aVtell
p297
aVwomen
p298
aVhow
p299
ag96
aVfeel
p300
ag24
ag96
aVlike
p301
aVyou
p302
ag96
aVdo
p303
aVn't
p304
aVtell
p305
aVyou
p306
ag24
aaa(lp307
Vjerry
p308
a(lp309
Vwe
p310
aVcan
p311
aVonly
p312
aVthank
p313
aVgod
p314
aVfor
p315
aVthat
p316
ag24
aaa(lp317
Vgeorge
p318
a(lp319
g96
aV'm
p320
aVoutta
p321
aVthe
p322
aVpicture
p323
ag24
ag96
aVam
p324
aVoutta
p325
aVthe
p326
aVpicture
p327
ag24
aVit
p328
aV's
p329
aVonly
p330
ag35
aVmatter
p331
aVof
p332
aVtime
p333
aVnow
p334
ag24
aaa(lp335
Vjerry
p336
a(lp337
Vyou
p338
aV're
p339
aVimagining
p340
aVthis
p341
ag24
aVreally
p342
ag24
aaa(lp343
Vgeorge
p344
a(lp345
Voh
p346
aVno
p347
ag24
aVno
p348
ag19
aVno
p349
ag19
aVno
p350
ag19
aVno
p351
ag24
aaa(lp352
Vgeorge
p353
a(lp354
g96
aV'll
p355
aVtell
p356
aVyou
p357
aVwhen
p358
aVit
p359
aVhappened
p360
ag24
aVwhen
p361
aVthat
p362
aVfloss
p363
aVcame
p364
aVflying
p365
aVout
p366
aVof
p367
aVmy
p368
aVpocket
p369
ag24
aaa(lp370
Vjerry
p371
a(lp372
Vwhat
p373
aVfloss
p374
ag169
aVwhen
p375
ag169
aaa(lp376
Vgeorge
p377
a(lp378
Vwe
p379
aVwere
p380
aVin
p381
aVthe
p382
aVlobby
p383
aVduring
p384
aVthe
p385
aVintermission
p386
aVof
p387
aVthe
p388
aVplay
p389
ag24
ag96
aVwas
p390
aVbuying
p391
aVher
p392
aVone
p393
aVof
p394
aVthose
p395
aVcontainers
p396
aVof
p397
aVorange
p398
aVdrink
p399
ag19
aVfor
p400
aVfive
p401
aVdollars
p402
ag24
ag96
aVreached
p403
aVinto
p404
aVmy
p405
aVpocket
p406
aVto
p407
aVpay
p408
aVfor
p409
aVit
p410
ag19
ag96
aVlooked
p411
aVdown
p412
aVthere
p413
aV's
p414
aVthis
p415
aVpiece
p416
aVof
p417
aVgreen
p418
aVfloss
p419
aVhanging
p420
aVfrom
p421
aVmy
p422
aVfingers
p423
ag24
aaa(lp424
Vjerry
p425
a(lp426
Vah
p427
ag19
aVmint
p428
ag24
aaa(lp429
Vgeorge
p430
a(lp431
Vof
p432
aVcourse
p433
ag24
aVso
p434
ag19
ag96
aV'm
p435
aVlooking
p436
aVat
p437
aVit
p438
ag19
ag96
aVlook
p439
aVup
p440
ag19
ag96
aVsee
p441
aVshe
p442
aV's
p443
aVlooking
p444
aVat
p445
aVit
p446
ag24
aVour
p447
aVeyes
p448
aVlock
p449
ag24
aVit
p450
aVwas
p451
ag35
aVhorrible
p452
aVmoment
p453
ag24
ag96
aVjust
p454
aaa(lp455
Vjerry
p456
a(lp457
Vso
p458
aVlet
p459
aVme
p460
aVget
p461
aVthis
p462
aVstraight
p463
aVshe
p464
aVsaw
p465
aVthe
p466
aVfloss
p467
ag19
aVyou
p468
aVpanicked
p469
aVand
p470
aVyou
p471
aVtold
p472
aVher
p473
aVyou
p474
aVliked
p475
aVher
p476
ag24
aaa(lp477
Vgeorge
p478
a(lp479
Vif
p480
ag96
aVdid
p481
aVn't
p482
aVput
p483
aVthat
p484
aVfloss
p485
aVin
p486
aVmy
p487
aVpocket
p488
ag19
ag96
aV'd
p489
aVbe
p490
aVcrawling
p491
aVaround
p492
aVher
p493
aVbedroom
p494
aVright
p495
aVnow
p496
aVlooking
p497
aVfor
p498
aVmy
p499
aVglasses
p500
ag24
aaa(lp501
Vjerry
p502
a(lp503
Vand
p504
aVyou
p505
aV're
p506
aVsure
p507
aVthe
p508
aVfloss
p509
aVwas
p510
aVthe
p511
aVcatalyst
p512
ag169
aaa(lp513
Vgeorge
p514
a(lp515
Vyes
p516
ag19
ag96
aVam
p517
ag24
aaa(lp518
Vjerry
p519
a(lp520
Vyou
p521
aVdo
p522
aVn't
p523
aVthink
p524
aVit
p525
aVmight
p526
aV've
p527
aVhad
p528
aVanything
p529
aVto
p530
aVdo
p531
aVwith
p532
aVthat
p533
ag169
aaa(lp534
Vgeorge
p535
a(lp536
Vwhat
p537
ag169
aVyou
p538
aVdo
p539
aVn't
p540
aVlike
p541
aVthis
p542
ag169
aaa(lp543
Vjerry
p544
a(lp545
Vit
p546
aVlooks
p547
aVlike
p548
aVyour
p549
aVbelt
p550
aVis
p551
aVdigesting
p552
ag35
aVsmall
p553
aVanimal
p554
ag24
aaa(lp555
Vkramer
p556
a(lp557
Voh
p558
ag19
aVthey
p559
aV've
p560
aVgot
p561
ag35
aVcure
p562
aVfor
p563
aVcancer
p564
ag24
aVsee
p565
ag19
aVit
p566
aV's
p567
aVall
p568
aVbig
p569
aVbusiness
p570
aVoh
p571
aVhey
p572
ag19
aVjerry
p573
aVjust
p574
aVwalked
p575
aVin
p576
ag24
aVhi
p577
ag19
aVgeorge
p578
ag24
aVyeah
p579
ag19
aVyeah
p580
aVyeah
p581
ag19
aVyeah
p582
ag19
aVtake
p583
aVmy
p584
aVnumber
p585
ag226
aV555-8643.
p586
aVokay
p587
ag19
aVhere
p588
aVhe
p589
aVis
p590
ag24
aaa(lp591
Vjerry
p592
a(lp593
Vwho
p594
aVis
p595
aVit
p596
ag169
aaa(lp597
Vkramer
p598
a(lp599
Vtake
p600
aVit
p601
ag24
aaa(lp602
Vjerry
p603
a(lp604
Vwho
p605
aVis
p606
aVit
p607
ag169
aaa(lp608
Vkramer
p609
a(lp610
Vit
p611
aV's
p612
aVfor
p613
aVyou
p614
ag24
aaa(lp615
Vjerry
p616
a(lp617
Vhello
p618
ag169
aVoh
p619
ag19
aVhi
p620
aVjoel
p621
ag24
aVno
p622
ag24
ag96
aVwas
p623
aVout
p624
aVof
p625
aVtown
p626
ag24
ag96
aVjust
p627
aVgot
p628
aVback
p629
aVkramer
p630
aVdoes
p631
aVn't
p632
aVknow
p633
aVanything
p634
aVhe
p635
aV's
p636
aVjust
p637
aVmy
p638
aVnext-door
p639
aVneighbor
p640
ag24
aVuh
p641
aVnothing
p642
aVmuch
p643
aVtuesday
p644
ag169
aVuh
p645
ag19
aVtuesday
p646
ag19
aVno
p647
ag24
ag96
aV'm
p648
aVmeeting
p649
aVsomebody
p650
aVuh
p651
ag19
aVwednesday
p652
ag169
aVwednesday
p653
aV's
p654
aVokay
p655
aValright
p656
ag24
aVuh
p657
ag19
ag96
aV'm
p658
ag35
aVlittle
p659
aVbusy
p660
aVright
p661
aVnow
p662
ag24
aVcan
p663
aVwe
p664
aVtalk
p665
aVwednesday
p666
aVmorning
p667
ag169
aVokay
p668
aVyeah
p669
aVright
p670
aVthanks
p671
aVbye
p672
ag24
aVwhy
p673
aVdid
p674
aVyou
p675
aVput
p676
aVme
p677
aVon
p678
aVthe
p679
aVphone
p680
aVwith
p681
aVhim
p682
ag169
ag96
aVhate
p683
aVjust
p684
aVbeing
p685
aVhanded
p686
ag35
aVphone
p687
ag24
aaa(lp688
Vkramer
p689
a(lp690
Vwell
p691
ag19
aVit
p692
aV's
p693
aVyour
p694
aVphone
p695
ag24
aVhe
p696
aVwanted
p697
aVto
p698
aVtalk
p699
aVto
p700
aVyou
p701
aaa(lp702
Vjerry
p703
a(lp704
Vmaybe
p705
ag96
aVdid
p706
aVn't
p707
aVwant
p708
aVto
p709
aVtalk
p710
aVto
p711
aVhim
p712
ag24
aaa(lp713
Vkramer
p714
a(lp715
Vwell
p716
ag19
aVwhy
p717
aVnot
p718
ag169
aaa(lp719
Vjerry
p720
a(lp721
Vhe
p722
aVbothers
p723
aVme
p724
ag24
ag96
aVdo
p725
aVn't
p726
aVeven
p727
aVanswer
p728
aVthe
p729
aVphone
p730
aVanymore
p731
aVbecause
p732
aVof
p733
aVhim
p734
ag24
aVhe
p735
aV's
p736
aVturned
p737
aVme
p738
aVinto
p739
ag35
aVscreener
p740
ag24
aVnow
p741
ag96
aVgot
p742
aVta
p743
aVgo
p744
aVsee
p745
aVhim
p746
aVon
p747
aVwednesday
p748
ag24
aaa(lp749
Vgeorge
p750
a(lp751
Vwhat
p752
aVdo
p753
aVyou
p754
aVmean
p755
aVwednesday
p756
ag169
ag96
aVthough
p757
aVwe
p758
aVhad
p759
aVtickets
p760
aVto
p761
aVthe
p762
aVknick
p763
aVgame
p764
aVwednesday
p765
ag24
aVwe
p766
aVgot
p767
aVseats
p768
aVbehind
p769
aVthe
p770
aVbench
p771
aV!
p772
aVwhat
p773
aVhappened
p774
ag169
aVwe
p775
aV're
p776
aVnot
p777
aVgoing
p778
ag169
aaa(lp779
Vjerry
p780
a(lp781
Vwe
p782
aV're
p783
aVgoing
p784
ag24
aVthat
p785
aV's
p786
aVnext
p787
aVwednesday
p788
ag24
aaa(lp789
Vgeorge
p790
a(lp791
Voh
p792
ag24
aVwho
p793
aVis
p794
aVthis
p795
aVguy
p796
ag169
aaa(lp797
Vjerry
p798
a(lp799
Vhis
p800
aVname
p801
aVis
p802
aVjoel
p803
aVhorneck
p804
ag24
aVhe
p805
aVlived
p806
aVlike
p807
aVthree
p808
aVhouses
p809
aVdown
p810
aVfrom
p811
aVme
p812
aVwhen
p813
ag96
aVgrew
p814
aVup
p815
ag24
aVhe
p816
aVhad
p817
ag35
aVping
p818
aVpong
p819
aVtable
p820
ag24
aVwe
p821
aVwere
p822
aVfriends
p823
ag24
aVshould
p824
ag96
aVsuffer
p825
aVthe
p826
aVrest
p827
aVof
p828
aVmy
p829
aVlife
p830
aVbecause
p831
ag96
aVlike
p832
aVto
p833
aVplay
p834
aVping
p835
aVpong
p836
ag169
ag96
aVwas
p837
aVten
p838
ag24
ag96
aVwould
p839
aV've
p840
aVbeen
p841
aVfriends
p842
aVwith
p843
aVstalin
p844
aVif
p845
aVhe
p846
aVhad
p847
ag35
aVping
p848
aVpong
p849
aVtable
p850
aVhe
p851
aV's
p852
aVso
p853
aVself-involved
p854
ag24
aaa(lp855
Vkramer
p856
a(lp857
Vthat
p858
aV's
p859
aVfor
p860
aVme
p861
ag24
aVkramerica
p862
aVindustries
p863
aVoh
p864
ag19
aVhi
p865
ag19
aVmark
p866
aVno
p867
ag19
aVno
p868
ag19
aVno
p869
ag24
aVforget
p870
aVthat
p871
ag24
ag96
aVgot
p872
ag35
aVbetter
p873
aVidea
p874
ag24
ag35
aVpizza
p875
aVplace
p876
aVwhere
p877
aVyou
p878
aVmake
p879
aVyour
p880
aVown
p881
aVpie
p882
ag24
aaa(lp883
Vjerry
p884
a(lp885
Vcan
p886
aVyou
p887
aVconduct
p888
aVyour
p889
aVbusiness
p890
aVelsewhere
p891
ag169
aaa(lp892
Vkramer
p893
a(lp894
Vno
p895
ag19
aVno
p896
ag19
aVno
p897
ag24
ag96
aV'm
p898
aVtalking
p899
aVabout
p900
ag35
aVwhole
p901
aVchain
p902
aVof
p903
aV'em
p904
ag24
aVyeah
p905
ag24
aaa(lp906
Vgeorge
p907
a(lp908
g96
aVdo
p909
aVn't
p910
aVknow
p911
aVwhy
p912
aVyou
p913
aVeven
p914
aVbother
p915
aVwith
p916
aVthis
p917
aVping
p918
aVpong
p919
aVguy
p920
ag19
ag96
aV'll
p921
aVtell
p922
aVyou
p923
aVthat
p924
ag24
aaa(lp925
Vjerry
p926
a(lp927
g96
aVdo
p928
aVn't
p929
aVbother
p930
aVwith
p931
aVhim
p932
ag24
aVhe
p933
aV's
p934
aVbeen
p935
aVcalling
p936
aVme
p937
aVfor
p938
aVseven
p939
aVyears
p940
ag24
ag96
aV've
p941
aVnever
p942
aVcalled
p943
aVhim
p944
aVonce
p945
ag772
aVhe
p946
aV's
p947
aVgot
p948
aVthe
p949
aVattention
p950
aVspan
p951
aVof
p952
ag35
aVfive-year-old
p953
ag24
aVsometimes
p954
ag96
aVsit
p955
aVthere
p956
aVand
p957
ag96
aVmake
p958
aVup
p959
aVthings
p960
aVjust
p961
aVto
p962
aVsee
p963
aVif
p964
aVhe
p965
aV's
p966
aVpaying
p967
aVattention
p968
ag24
aaa(lp969
Vgeorge
p970
a(lp971
g96
aVdo
p972
aVn't
p973
aVunderstand
p974
aVwhy
p975
aVyou
p976
aVspend
p977
aVtime
p978
aVwith
p979
aVthis
p980
aVguy
p981
ag24
aaa(lp982
Vjerry
p983
a(lp984
Vwhat
p985
aVcan
p986
ag96
aVdo
p987
ag169
aVbreak
p988
aVup
p989
aVwith
p990
aVhim
p991
ag169
aVtell
p992
aVhim
p993
ag96
aVdo
p994
aVn't
p995
aVthink
p996
aVwe
p997
aV're
p998
aVright
p999
aVfor
p1000
aVeach
p1001
aVother
p1002
aVhe
p1003
aV's
p1004
ag35
aVguy
p1005
ag24
aVat
p1006
aVleast
p1007
aVwith
p1008
ag35
aVwoman
p1009
ag19
aVthere
p1010
aV's
p1011
ag35
aVprecendent
p1012
ag24
aVyou
p1013
aVknow
p1014
ag19
aVthe
p1015
aVrelationship
p1016
aVgoes
p1017
aVsour
p1018
ag19
aVyou
p1019
aVend
p1020
aVit
p1021
ag24
aaa(lp1022
Vgeorge
p1023
a(lp1024
Vno
p1025
ag19
aVno
p1026
ag19
aVno
p1027
ag19
aVno
p1028
aVyou
p1029
aVhave
p1030
aVto
p1031
aVapproach
p1032
aVthis
p1033
aVas
p1034
aVif
p1035
aVhe
p1036
aVwas
p1037
ag35
aVwoman
p1038
ag24
aaa(lp1039
Vjerry
p1040
a(lp1041
Vjust
p1042
aVbreak
p1043
aVup
p1044
aVwith
p1045
aVhim
p1046
ag169
aaa(lp1047
Vgeorge
p1048
a(lp1049
Vabsolutely
p1050
ag24
aVyou
p1051
aVjust
p1052
aVtell
p1053
aVhim
p1054
aVthe
p1055
aVtruth
p1056
ag24
aaa(lp1057
Vjerry
p1058
a(lp1059
Vas
p1060
ag35
aVguy
p1061
ag96
aVdo
p1062
aVn't
p1063
aVknow
p1064
aVhow
p1065
ag96
aVcan
p1066
aVbreak
p1067
aVup
p1068
aVwith
p1069
aVanother
p1070
aVguy
p1071
ag24
aVyou
p1072
aVknow
p1073
aVwhat
p1074
ag96
aVmean
p1075
ag169
ag96
aVdo
p1076
aVn't
p1077
aVknow
p1078
aVhow
p1079
aVto
p1080
aVsay
p1081
ag19
aVbill
p1082
ag19
ag96
aVfeel
p1083
ag96
aVneed
p1084
aVto
p1085
aVsee
p1086
aVother
p1087
aVmen
p1088
ag24
aVdo
p1089
aVyou
p1090
aVknow
p1091
aVwhat
p1092
ag96
aVmean
p1093
ag169
aVthere
p1094
aV's
p1095
aVnothing
p1096
ag96
aVcan
p1097
aVdo
p1098
ag24
ag96
aVhave
p1099
aVto
p1100
aVwait
p1101
aVfor
p1102
aVsomeone
p1103
aVto
p1104
aVdie
p1105
ag24
ag96
aVthink
p1106
aVthat
p1107
aV's
p1108
aVthe
p1109
aVonly
p1110
aVway
p1111
aVout
p1112
aVof
p1113
aVthis
p1114
aVrelationship
p1115
ag24
aVit
p1116
aVcould
p1117
aVbe
p1118
ag35
aVlong
p1119
aVtime
p1120
ag24
aVsee
p1121
ag19
aVthe
p1122
aVgreat
p1123
aVthing
p1124
aVabout
p1125
aVguys
p1126
aVis
p1127
aVthat
p1128
aVwe
p1129
aVcan
p1130
aVbecome
p1131
aVfriends
p1132
aVbased
p1133
aVon
p1134
aValmost
p1135
aVnothing
p1136
ag24
aVjust
p1137
aVtwo
p1138
aVguys
p1139
aVwill
p1140
aVjust
p1141
aVbecome
p1142
aVfriends
p1143
aVjust
p1144
aVbecause
p1145
aVthey
p1146
aV're
p1147
aVtwo
p1148
aVguys
p1149
ag24
aVthat
p1150
aV's
p1151
aValmost
p1152
aVall
p1153
aVwe
p1154
aVneed
p1155
aVto
p1156
aVhave
p1157
aVin
p1158
aVcommon
p1159
ag24
aV'cause
p1160
aVsports
p1161
ag226
aVsports
p1162
aVand
p1163
aVwomen
p1164
ag226
aVis
p1165
aVreally
p1166
aVall
p1167
aVwe
p1168
aVtalk
p1169
aVabout
p1170
ag24
aVif
p1171
aVthere
p1172
aVwas
p1173
aVno
p1174
aVsports
p1175
aVand
p1176
aVno
p1177
aVwomen
p1178
aVthe
p1179
aVonly
p1180
aVthing
p1181
aVguys
p1182
aVwould
p1183
aVever
p1184
aVsay
p1185
aVis
p1186
aVso
p1187
ag19
aVwhat
p1188
aV's
p1189
aVin
p1190
aVthe
p1191
aVrefrigerator
p1192
ag169
aaa(lp1193
Vjoel
p1194
a(lp1195
Vso
p1196
aVmy
p1197
aVshrink
p1198
aVwants
p1199
aVme
p1200
aVto
p1201
aVbring
p1202
aVmy
p1203
aVmother
p1204
aVin
p1205
aVfor
p1206
ag35
aVsession
p1207
ag24
aVthis
p1208
aVguy
p1209
aVis
p1210
ag35
aVbrilliant
p1211
aVman
p1212
ag24
aVlenny
p1213
aVbruce
p1214
aVused
p1215
aVto
p1216
aVgo
p1217
aVto
p1218
aVhim
p1219
aVand
p1220
ag96
aVthink
p1221
ag19
aVuh
p1222
ag19
aVgeraldo
p1223
ag24
aaa(lp1224
Vjerry
p1225
a(lp1226
Vyou
p1227
aVknow
p1228
ag19
ag96
aVread
p1229
aVthe
p1230
aVlenny
p1231
aVbruce
p1232
aVbiography
p1233
ag19
ag96
aVthought
p1234
aVit
p1235
aVwas
p1236
aVreally
p1237
ag226
aVinteresting
p1238
aVhe
p1239
aVwould-
p1240
aaa(lp1241
Vjoel
p1242
a(lp1243
Vhey
p1244
ag19
aVhey
p1245
ag19
aVhey
p1246
ag19
aVhey
p1247
aVwe
p1248
aV're
p1249
aVstarving
p1250
aVhere
p1251
ag772
aVwe
p1252
aV've
p1253
aVbeen
p1254
aVwaiting
p1255
aVhere
p1256
aVfor
p1257
aVten
p1258
aVminutes
p1259
aValready
p1260
ag772
aaa(lp1261
Vjerry
p1262
a(lp1263
Vso
p1264
ag19
ag96
aV'm
p1265
aVthinking
p1266
aVabout
p1267
aVgoing
p1268
aVto
p1269
aViran
p1270
aVthis
p1271
aVsummer
p1272
ag24
aaa(lp1273
Vjoel
p1274
a(lp1275
g96
aVhave
p1276
aVto
p1277
aVeat
p1278
ag772
ag96
aVmean
p1279
ag19
ag96
aV'm
p1280
aVhypoglycemic
p1281
ag24
aaa(lp1282
Vjerry
p1283
a(lp1284
Vanyway
p1285
ag19
aVthe
p1286
aVhizballah
p1287
aVhas
p1288
aVinvited
p1289
aVme
p1290
aVto
p1291
aVperform
p1292
ag24
aVyou
p1293
aVknow
p1294
ag19
aVit
p1295
aV's
p1296
aVtheir
p1297
aVannual
p1298
aVterrorist
p1299
aVluncheon
p1300
ag24
ag96
aV'm
p1301
aVgon
p1302
aVna
p1303
aVdo
p1304
aVit
p1305
aVis
p1306
aVfarsi
p1307
ag24
aaa(lp1308
Vjoel
p1309
a(lp1310
Vdo
p1311
aVyou
p1312
aVthink
p1313
ag96
aVneed
p1314
ag35
aVhaircut
p1315
ag169
aaa(lp1316
Vwaitress
p1317
a(lp1318
Vare
p1319
aVyou
p1320
aVready
p1321
ag169
aaa(lp1322
Vjerry
p1323
a(lp1324
Vyeah
p1325
ag19
ag96
aV'll
p1326
aVhave
p1327
aVthe
p1328
aVegg
p1329
aVsalad
p1330
aVon
p1331
aVwhole
p1332
aVwheat
p1333
ag24
aaa(lp1334
Vjoel
p1335
a(lp1336
Vlet
p1337
aVme
p1338
aVask
p1339
aVyou
p1340
ag35
aVquestion
p1341
ag24
aVthis
p1342
ag19
aVuh
p1343
ag19
aVthis
p1344
aVturkey
p1345
aVsandwich
p1346
aVhere
p1347
ag19
aVis
p1348
aVthat
p1349
aVreal
p1350
aVturkey
p1351
ag19
aVor
p1352
aVis
p1353
aVit
p1354
ag35
aVturkey
p1355
aVroll
p1356
ag169
ag96
aVdo
p1357
aVn't
p1358
aVwant
p1359
aVthat
p1360
aVprocessed
p1361
aVturkey
p1362
ag24
ag96
aVhate
p1363
aVit
p1364
ag24
aaa(lp1365
Vwaitress
p1366
a(lp1367
g96
aVthink
p1368
aVit
p1369
aV's
p1370
aVreal
p1371
aVturkey
p1372
ag24
aaa(lp1373
Vjoel
p1374
a(lp1375
Vis
p1376
aVthere
p1377
ag35
aVreal
p1378
aVbird
p1379
aVin
p1380
aVthe
p1381
aVback
p1382
ag169
aaa(lp1383
Vwaitress
p1384
a(lp1385
Vno
p1386
ag19
aVthere
p1387
aV's
p1388
aVnot
p1389
aVbird
p1390
aVbut-
p1391
aaa(lp1392
Vjoel
p1393
a(lp1394
Vwell
p1395
ag19
aVhow
p1396
aVdo
p1397
aVyou
p1398
aVknow
p1399
aVfor
p1400
aVsure
p1401
ag169
aVlook
p1402
ag19
aVwhy
p1403
aVdo
p1404
aVn't
p1405
aVyou
p1406
aVdo
p1407
aVme
p1408
ag35
aVfavor
p1409
ag24
aVwhy
p1410
aVdo
p1411
aVn't
p1412
aVyou
p1413
aVgo
p1414
aVin
p1415
aVthe
p1416
aVback
p1417
aVand
p1418
aVfind
p1419
aVout
p1420
ag19
aVokay
p1421
ag169
aaa(lp1422
Vjoel
p1423
a(lp1424
Vunbelievable
p1425
aaa(lp1426
Vjerry
p1427
a(lp1428
Vhow
p1429
aVcan
p1430
aVyou
p1431
aVtalk
p1432
aVto
p1433
aVsomeone
p1434
aVlike
p1435
aVthat
p1436
ag169
aaa(lp1437
Vjoel
p1438
a(lp1439
Vwhat
p1440
aVare
p1441
aVyou
p1442
aVsaying
p1443
ag169
aVwhat
p1444
ag19
aVyou
p1445
aVlike
p1446
aVturkey
p1447
aVroll
p1448
ag169
aaa(lp1449
Vjerry
p1450
a(lp1451
Vlisten
p1452
ag19
aVjoel
p1453
ag24
aVthere
p1454
aV's
p1455
aVsomething
p1456
ag96
aVhave
p1457
aVto
p1458
aVtell
p1459
aVyou
p1460
ag24
aaa(lp1461
Vjoel
p1462
a(lp1463
Vwait
p1464
ag19
aVyou
p1465
aV'll
p1466
aVnever
p1467
aVguess
p1468
aVwho
p1469
ag96
aVran
p1470
aVinto
p1471
ag24
aaa(lp1472
Vjoel
p1473
a(lp1474
Vhoward
p1475
aVmetro
p1476
ag24
aaa(lp1477
Vjerry
p1478
ag1474
aa(lp1479
Vjoel
p1480
a(lp1481
Vhe
p1482
aVasked
p1483
aVme
p1484
aVif
p1485
ag96
aVstill
p1486
aVsaw
p1487
aVyou
p1488
ag24
ag96
aVsaid
p1489
ag19
aVsure
p1490
ag19
ag96
aVsee
p1491
aVhim
p1492
aVall
p1493
aVthe
p1494
aVtime
p1495
ag24
aVwe
p1496
aV're
p1497
aVgreat
p1498
aVfriends
p1499
ag24
aVanyway
p1500
ag19
aVhoward
p1501
aVsays
p1502
aVhello
p1503
ag24
aaa(lp1504
Vjerry
p1505
a(lp1506
Vlisten
p1507
ag19
aVjoel
p1508
ag96
aVdo
p1509
aVn't
p1510
aVthink
p1511
aVwe
p1512
aVshould
p1513
aVsee
p1514
aVeach
p1515
aVother
p1516
aVanymore
p1517
ag24
aaa(lp1518
Vjoel
p1519
a(lp1520
Vwhat
p1521
ag169
aaa(lp1522
Vjerry
p1523
a(lp1524
Vthis
p1525
aVfriendship
p1526
aVit
p1527
aV's
p1528
aVnot
p1529
aVworking
p1530
ag24
aaa(lp1531
Vjoel
p1532
a(lp1533
Vnot
p1534
aVworking
p1535
ag169
aVwhat
p1536
aVare
p1537
aVyou
p1538
aVtalking
p1539
aVabout
p1540
ag169
aaa(lp1541
Vjerry
p1542
a(lp1543
Vwe
p1544
aV're
p1545
aVjust
p1546
aVnot
p1547
aVsuited
p1548
aVto
p1549
aVbe
p1550
aVfriends
p1551
ag24
aaa(lp1552
Vjoel
p1553
a(lp1554
Vhow
p1555
aVcan
p1556
aVyou
p1557
aVsay
p1558
aVthat
p1559
ag169
aaa(lp1560
Vjerry
p1561
a(lp1562
Vlook
p1563
ag19
aVyou
p1564
aV're
p1565
ag35
aVnice
p1566
aVguy
p1567
ag19
aVit
p1568
aV's
p1569
aVjust
p1570
aVthat
p1571
ag226
aVwe
p1572
aVdo
p1573
aVn't
p1574
aVhave
p1575
aVanything
p1576
aVin
p1577
aVcommon
p1578
ag24
aaa(lp1579
Vjoel
p1580
a(lp1581
Vwait
p1582
ag24
aVwat
p1583
aVdid
p1584
ag96
aVdo
p1585
ag169
aVtell
p1586
aVme
p1587
ag96
aVwant
p1588
aVto
p1589
aVknow
p1590
ag24
aaa(lp1591
Vjerry
p1592
a(lp1593
Vyou
p1594
aVdid
p1595
aVn't
p1596
aVdo
p1597
aVanything
p1598
ag24
aVit
p1599
aV's
p1600
aVnot
p1601
aVyou
p1602
ag19
aVit
p1603
aV's
p1604
aVme
p1605
ag24
aVit
p1606
aV's
p1607
aVthis
p1608
aVis
p1609
aVvery
p1610
aVdifficult
p1611
ag24
aaa(lp1612
Vjoel
p1613
a(lp1614
Vlook
p1615
ag19
ag96
aVknow
p1616
ag96
aVcall
p1617
aVyou
p1618
aVtoo
p1619
aVmuch
p1620
ag19
aVright
p1621
ag169
ag96
aVmean
p1622
ag19
ag96
aVknow
p1623
aVyou
p1624
aV're
p1625
ag35
aVvery
p1626
aVbusy
p1627
aVguy
p1628
ag24
aaa(lp1629
Vjerry
p1630
a(lp1631
Vno
p1632
ag19
aVit
p1633
aV's
p1634
aVnot
p1635
aVthat
p1636
ag24
aaa(lp1637
Vjoel
p1638
a(lp1639
Vyou
p1640
aV're
p1641
aVone
p1642
aVof
p1643
aVthe
p1644
aVfew
p1645
aVpeople
p1646
ag96
aVcan
p1647
aVtalk
p1648
aVto
p1649
ag24
aaa(lp1650
Vjerry
p1651
a(lp1652
Voh
p1653
ag19
aVcome
p1654
aVon
p1655
ag24
aVthat
p1656
aV's
p1657
aVnot
p1658
aVtrue
p1659
ag24
aaa(lp1660
Vjoel
p1661
a(lp1662
g96
aValways
p1663
aVtell
p1664
aVeverybody
p1665
aVabout
p1666
aVyou
p1667
aVtell
p1668
aVeverybody
p1669
aVto
p1670
aVgo
p1671
aVsee
p1672
aVyour
p1673
aVshow
p1674
ag24
ag96
aVmean
p1675
ag19
ag96
aV'm
p1676
aVyour
p1677
aVbiggest
p1678
aVfan
p1679
ag772
aaa(lp1680
Vjerry
p1681
a(lp1682
g96
aVknow
p1683
ag19
ag96
aVknow
p1684
ag24
aaa(lp1685
Vjoel
p1686
a(lp1687
g96
aVmean
p1688
ag19
aVyou
p1689
aV're
p1690
aVmy
p1691
aVbest
p1692
aVfriend
p1693
ag24
aaa(lp1694
Vjerry
p1695
a(lp1696
Vbest
p1697
aVfriend
p1698
ag169
ag96
aV've
p1699
aVnever
p1700
aVbeen
p1701
aVto
p1702
aVyour
p1703
aVapartment
p1704
ag24
aaa(lp1705
Vjoel
p1706
a(lp1707
g96
aVcan
p1708
aVnot
p1709
aVbelieve
p1710
aVthat
p1711
aVthis
p1712
aVis
p1713
aVhappening
p1714
ag24
ag96
aVca
p1715
aVn't
p1716
aVbelieve
p1717
aVit
p1718
ag24
aaa(lp1719
Vjerry
p1720
a(lp1721
Vokay
p1722
ag19
aVokay
p1723
ag24
aVforget
p1724
aVit
p1725
ag24
aVit
p1726
aV's
p1727
aVokay
p1728
ag24
aVid
p1729
aVdid
p1730
aVn't
p1731
aVmean
p1732
aVit
p1733
ag24
aaa(lp1734
Vjoel
p1735
a(lp1736
Vdid
p1737
aVn't
p1738
aVmean
p1739
aVwhat
p1740
ag169
aaa(lp1741
Vjerry
p1742
a(lp1743
Vwhat
p1744
ag96
aVsaid
p1745
ag24
ag96
aV've
p1746
aVbeen
p1747
aVunder
p1748
ag35
aVlot
p1749
aVof
p1750
aVstress
p1751
ag24
aaa(lp1752
Vjoel
p1753
a(lp1754
Voh
p1755
ag19
aVyou
p1756
aV've
p1757
aVbeen
p1758
aVunder
p1759
ag35
aVlot
p1760
aVof
p1761
aVstress
p1762
ag24
aaa(lp1763
Vjerry
p1764
a(lp1765
Vjust
p1766
ag19
aVcan
p1767
aVwe
p1768
aVjust
p1769
aVforget
p1770
aVthe
p1771
aVwhole
p1772
aVthing
p1773
aVever
p1774
aVhappend
p1775
ag169
ag96
aV'm
p1776
aVsorry
p1777
ag24
ag96
aVdi
p1778
aVn't
p1779
aVmean
p1780
aVit
p1781
ag24
ag96
aVtook
p1782
aVit
p1783
aVout
p1784
aVon
p1785
aVyou
p1786
ag24
aVwe
p1787
aV're
p1788
aVstill
p1789
aVfriends
p1790
ag24
aVwe
p1791
aV're
p1792
aVstill
p1793
aVfriends
p1794
ag24
aVstill
p1795
aVfriends
p1796
ag24
aVokay
p1797
ag169
aVlook
p1798
ag19
ag96
aV'll
p1799
aVtell
p1800
aVyou
p1801
aVwhat
p1802
ag24
ag96
aV've
p1803
aVgot
p1804
aVknick
p1805
aVtickets
p1806
aVthis
p1807
aVwednesday
p1808
ag24
aVgreat
p1809
aVseats
p1810
aVbehind
p1811
aVthe
p1812
aVbench
p1813
ag24
aVyou
p1814
aVwant
p1815
aVto
p1816
aVcome
p1817
aVwith
p1818
aVme
p1819
ag169
aVcome
p1820
aVon
p1821
ag24
aaa(lp1822
Vjoel
p1823
a(lp1824
Vtonight
p1825
ag169
aaa(lp1826
Vjerry
p1827
a(lp1828
Vno
p1829
ag19
aVnext
p1830
aVwednesday
p1831
ag24
aVif
p1832
aVit
p1833
aVwas
p1834
aVtonight
p1835
ag19
ag96
aVwould
p1836
aV've
p1837
aVsaid
p1838
aVtonight
p1839
ag24
aaa(lp1840
Vjoel
p1841
a(lp1842
Vdo
p1843
aVyou
p1844
aVreally
p1845
aVwant
p1846
aVme
p1847
aVto
p1848
aVgo
p1849
ag169
aaa(lp1850
Vjerry
p1851
a(lp1852
Vyes
p1853
ag24
aaa(lp1854
Vjoel
p1855
a(lp1856
Vokay
p1857
ag24
aVyeah
p1858
ag19
aVokay
p1859
ag24
aVgreat
p1860
ag772
aVthat
p1861
aVwould
p1862
aVbe
p1863
ag19
aVthat
p1864
aV'd
p1865
aVbe
p1866
aVgreat
p1867
aVso
p1868
ag19
aVnext
p1869
aVwednesday
p1870
ag24
aaa(lp1871
Vjerry
p1872
a(lp1873
Vnext
p1874
aVwednesday
p1875
ag24
aaa(lp1876
Vjoel
p1877
a(lp1878
Vwhere
p1879
aVis
p1880
aVthat
p1881
aVwaitress
p1882
ag169
ag772
aVhey
p1883
ag772
aaa(lp1884
Vgeorge
p1885
a(lp1886
Vshe
p1887
aVcalls
p1888
aVme
p1889
aVup
p1890
aVat
p1891
aVmy
p1892
aVoffice
p1893
ag19
aVshe
p1894
aVsays
p1895
ag19
aVwe
p1896
aVhave
p1897
aVto
p1898
aVtalk
p1899
ag24
aaa(lp1900
Vjerry
p1901
a(lp1902
Vuh
p1903
ag19
aVthe
p1904
aVfour
p1905
aVworst
p1906
aVwords
p1907
aVin
p1908
aVthe
p1909
aVenglish
p1910
aVlanguage
p1911
ag24
aaa(lp1912
Vgeorge
p1913
a(lp1914
Vthat
p1915
ag19
aVor
p1916
aVwho
p1917
aV's
p1918
aVbra
p1919
aVis
p1920
aVthis
p1921
ag169
aaa(lp1922
Vjerry
p1923
a(lp1924
Vthat
p1925
aVis
p1926
aVworse
p1927
ag24
aaa(lp1928
Vgeorge
p1929
a(lp1930
Vso
p1931
aVwe
p1932
aVorder
p1933
aVlunch
p1934
ag19
aVand
p1935
aVwe
p1936
aV're
p1937
aVtalking
p1938
ag24
aVfinally
p1939
ag19
aVshe
p1940
aVblurts
p1941
aVout
p1942
aVhow
p1943
aVit
p1944
aV's
p1945
aVnot
p1946
aVworking
p1947
ag24
aaa(lp1948
Vjerry
p1949
a(lp1950
Vreally
p1951
ag24
aaa(lp1952
Vgeorge
p1953
a(lp1954
Vso
p1955
ag19
ag96
aV'm
p1956
aVthinking
p1957
ag19
aVas
p1958
aVshe
p1959
aV's
p1960
aVsaying
p1961
aVthis
p1962
ag19
ag96
aV'm
p1963
aVthinking
p1964
aVgreat
p1965
ag19
aVthe
p1966
aVrelationship
p1967
aV's
p1968
aVover
p1969
ag24
aVbut
p1970
aVthe
p1971
aVegg
p1972
aVsalad
p1973
aV's
p1974
aVon
p1975
aVthe
p1976
aVway
p1977
ag24
aVso
p1978
aVnow
p1979
ag96
aVhave
p1980
ag35
aVdecision
p1981
ag226
aVdo
p1982
ag96
aVwalk
p1983
aVor
p1984
aVdo
p1985
ag96
aVeat
p1986
ag169
aaa(lp1987
Vjerry
p1988
a(lp1989
Vhm
p1990
ag169
aVyou
p1991
aVate
p1992
ag24
aaa(lp1993
Vgeorge
p1994
a(lp1995
Vwe
p1996
aVsat
p1997
aVthere
p1998
aVfor
p1999
aVtwenty
p2000
aVminutes
p2001
ag19
aVchewing
p2002
ag19
aVstaring
p2003
aVat
p2004
aVeach
p2005
aVother
p2006
aVin
p2007
ag35
aVdefunct
p2008
aVrelationship
p2009
ag24
aaa(lp2010
Vjerry
p2011
a(lp2012
Vsomeone
p2013
aVsays
p2014
ag19
aVget
p2015
aVout
p2016
aVof
p2017
aVmy
p2018
aVlife
p2019
ag772
aVand
p2020
aVthat
p2021
aVdoes
p2022
aVn't
p2023
aVaffect
p2024
aVyour
p2025
aVappetite
p2026
ag169
aaa(lp2027
Vgeorge
p2028
a(lp2029
Vhave
p2030
aVyou
p2031
aVever
p2032
aVhad
p2033
aVtheir
p2034
aVegg
p2035
aVsalad
p2036
ag169
aaa(lp2037
Vjerry
p2038
a(lp2039
Vit
p2040
aVis
p2041
aVunbelievable
p2042
ag24
aaa(lp2043
Vgeorge
p2044
a(lp2045
Vit
p2046
aV's
p2047
aVunbelievable
p2048
ag24
aVyou
p2049
aVknow
p2050
aVwhat
p2051
aVelse
p2052
aVis
p2053
aVunbelievable
p2054
ag169
ag96
aVpicked
p2055
aVup
p2056
aVthe
p2057
aVcheck
p2058
ag24
aVshe
p2059
aVdid
p2060
aVn't
p2061
aVeven
p2062
aVoffer
p2063
ag24
aVshe
p2064
aVended
p2065
aVit
p2066
ag24
aVthe
p2067
aVleast
p2068
aVshe
p2069
aVcould
p2070
aVdo
p2071
aVis
p2072
aVsend
p2073
aVme
p2074
aVoff
p2075
aVwith
p2076
ag35
aVsandwich
p2077
ag24
aaa(lp2078
Vjerry
p2079
a(lp2080
Vhow
p2081
aVmuch
p2082
aVcould
p2083
aVyou
p2084
aVpossibly
p2085
aVhave
p2086
aVin
p2087
aVthere
p2088
ag169
aVgeorge
p2089
aVit
p2090
aV's
p2091
aVmy
p2092
aVmoney
p2093
ag24
aVwhat
p2094
aVshould
p2095
ag96
aVdo
p2096
ag169
aVthrow
p2097
aVit
p2098
aVout
p2099
aVthe
p2100
aVwindow
p2101
ag169
ag96
aVknow
p2102
aVguy
p2103
aVwho
p2104
aVtook
p2105
aVhis
p2106
aVvacation
p2107
aVon
p2108
aVchange
p2109
ag24
aaa(lp2110
Vjerry
p2111
a(lp2112
Vyeah
p2113
ag169
aVwhere
p2114
aV'd
p2115
aVhe
p2116
aVgo
p2117
ag169
aVto
p2118
aVand
p2119
aVarcade
p2120
ag169
aaa(lp2121
Vgeorge
p2122
a(lp2123
Vthat
p2124
aV's
p2125
aVfunny
p2126
ag24
aVyou
p2127
aV're
p2128
ag35
aVfunny
p2129
aVguy
p2130
ag24
aaa(lp2131
Vjerry
p2132
a(lp2133
Vc'mon
p2134
ag19
aVmove
p2135
aVup
p2136
ag24
aaa(lp2137
Vcustomer
p2138
a(lp2139
Voh
p2140
aVgreat
p2141
ag19
aVewing
p2142
aV's
p2143
aVhurt
p2144
ag24
aaa(lp2145
Vgeorge
p2146
a(lp2147
Vewing
p2148
aV's
p2149
aVhurt
p2150
ag169
aVhow
p2151
aVlong
p2152
aVis
p2153
aVhe
p2154
aVgoing
p2155
aVto
p2156
aVbe
p2157
aVout
p2158
ag169
aaa(lp2159
Vcustomer
p2160
a(lp2161
g35
aVcouple
p2162
aVof
p2163
aVdays
p2164
aVat
p2165
aVthe
p2166
aVmost
p2167
aVbut
p2168
aaa(lp2169
Vgeorge
p2170
a(lp2171
Vgeez
p2172
ag24
aaa(lp2173
Vjerry
p2174
a(lp2175
Voh
p2176
ag19
aVgod
p2177
ag24
aaa(lp2178
Vgeorge
p2179
a(lp2180
g96
aVgot
p2181
aVscared
p2182
aVthere
p2183
aVfor
p2184
ag35
aVsecond
p2185
ag24
aVthe
p2186
aVknicks
p2187
aVwithout
p2188
aVewing
p2189
ag24
aaa(lp2190
Vjerry
p2191
a(lp2192
Vlisten
p2193
ag19
aVgeorge
p2194
ag19
aVlittle
p2195
aVproblem
p2196
aVwith
p2197
aVthe
p2198
aVgame
p2199
ag24
aaa(lp2200
Vgeorge
p2201
a(lp2202
Vwhat
p2203
aVabout
p2204
aVit
p2205
ag169
aaa(lp2206
Vjerry
p2207
a(lp2208
Vthe
p2209
aVthing
p2210
aVis
p2211
ag19
aVyesterday
p2212
ag19
ag96
aVkind
p2213
aVof
p2214
aVuh
p2215
aaa(lp2216
Vgeorge
p2217
a(lp2218
Vwhat
p2219
ag169
aaa(lp2220
Vjerry
p2221
a(lp2222
g96
aVgeve
p2223
aVyour
p2224
aVticket
p2225
aVto
p2226
aVhorneck
p2227
ag24
aaa(lp2228
Vgeorge
p2229
a(lp2230
Vyou
p2231
aVwhat
p2232
ag169
ag772
aaa(lp2233
Vjerry
p2234
a(lp2235
Vyeah
p2236
ag19
ag96
aV'm
p2237
aVsorry
p2238
ag24
ag96
aVhad
p2239
aVto
p2240
aVgive
p2241
aVit
p2242
aVto
p2243
aVhorneck
p2244
ag24
aaa(lp2245
Vgeorge
p2246
a(lp2247
Vno
p2248
ag772
aVmy
p2249
aVticket
p2250
ag169
ag772
aVyou
p2251
aVgave
p2252
aVmy
p2253
aVticket
p2254
aVto
p2255
aVhorneck
p2256
ag169
aaa(lp2257
Vjerry
p2258
a(lp2259
Vc'mon
p2260
ag19
aVc'mon
p2261
ag19
aVgo
p2262
aVahead
p2263
ag19
aVmove
p2264
aVup
p2265
ag24
aaa(lp2266
Vgeorge
p2267
a(lp2268
Vwhy
p2269
aVdid
p2270
aVyou
p2271
aVgive
p2272
aVhim
p2273
aVmy
p2274
aVticket
p2275
aVfor
p2276
ag169
aaa(lp2277
Vjerry
p2278
a(lp2279
Vyou
p2280
aVdid
p2281
aVn't
p2282
aVsee
p2283
aVhim
p2284
ag24
aVit
p2285
aVwas
p2286
aVhorrible
p2287
ag24
aaa(lp2288
Vgoerge
p2289
a(lp2290
Voh
p2291
ag19
aVc'mon
p2292
ag19
aVjerry
p2293
ag24
ag96
aVca
p2294
aVn't
p2295
aVbelieve
p2296
aVthis
p2297
ag24
aaa(lp2298
Vjerry
p2299
a(lp2300
g96
aVhad
p2301
aVto
p2302
aVdo
p2303
aVit
p2304
ag24
aaa(lp2305
Vgeorge
p2306
a(lp2307
Voh
p2308
ag19
aVplease
p2309
ag24
aVcan
p2310
aVyou
p2311
aVchange
p2312
aVthis
p2313
aVinto
p2314
aVbills
p2315
ag169
aaa(lp2316
Vteller
p2317
a(lp2318
g96
aV'm
p2319
aVsorry
p2320
ag19
aVsir
p2321
ag24
aVwe
p2322
aVca
p2323
aVn't
p2324
aVdo
p2325
aVthat
p2326
ag24
aaa(lp2327
Vjerry
p2328
a(lp2329
Vdo
p2330
aVyou
p2331
aVwant
p2332
aVto
p2333
aVgo
p2334
aVwith
p2335
aVhim
p2336
ag169
aVyou
p2337
aVgo
p2338
ag24
ag96
aVdo
p2339
aVn't
p2340
aVmind
p2341
ag24
aaa(lp2342
Vgeorge
p2343
a(lp2344
g96
aV'm
p2345
aVnot
p2346
aVgoing
p2347
aVwith
p2348
aVhim
p2349
ag24
ag96
aVdo
p2350
aVn't
p2351
aVeven
p2352
aVknow
p2353
aVthe
p2354
aVguy
p2355
ag24
aVlook
p2356
ag19
aVthey
p2357
aVdid
p2358
aVthis
p2359
aVfor
p2360
aVme
p2361
aVbefore
p2362
ag24
aaa(lp2363
Vteller
p2364
a(lp2365
Vlook
p2366
ag19
ag96
aVcan
p2367
aVgive
p2368
aVyou
p2369
aVthese
p2370
aVand
p2371
aVyou
p2372
aVcan
p2373
aVroll
p2374
aVthem
p2375
aVyourself
p2376
ag24
aaa(lp2377
Vgeorge
p2378
a(lp2379
Vyou
p2380
aVwant
p2381
aVme
p2382
aVto
p2383
aVroll
p2384
aVsix
p2385
aVthousand
p2386
aVof
p2387
aVthese
p2388
ag169
ag772
aVwhat
p2389
ag19
aVshould
p2390
ag96
aVquit
p2391
aVmy
p2392
aVjob
p2393
ag169
ag772
aaa(lp2394
Vjerry
p2395
a(lp2396
g96
aVdo
p2397
aVnot
p2398
aVlike
p2399
aVthe
p2400
aVbank
p2401
ag24
ag96
aV've
p2402
aVheard
p2403
aVthe
p2404
aVexpression
p2405
aVlaughing
p2406
aVall
p2407
aVthe
p2408
aVway
p2409
aVto
p2410
aVthe
p2411
aVbank
p2412
ag24
ag96
aVhave
p2413
aVnever
p2414
aVseen
p2415
aVanyone
p2416
aVactually
p2417
aVdoing
p2418
aVit
p2419
ag24
aVand
p2420
aVthose
p2421
aVbank
p2422
aVlines
p2423
ag24
ag96
aVhate
p2424
aVit
p2425
aVwhen
p2426
aVthere
p2427
aV's
p2428
aVnobody
p2429
aVon
p2430
aVthe
p2431
aVline
p2432
aVat
p2433
aVall
p2434
ag19
aVyou
p2435
aVknow
p2436
aVthat
p2437
aVpart
p2438
ag19
aVyou
p2439
aVgo
p2440
aVto
p2441
aVthe
p2442
aVbank
p2443
ag19
aVit
p2444
aV's
p2445
aVempty
p2446
aVand
p2447
aVyou
p2448
aVstill
p2449
aVhave
p2450
aVto
p2451
aVgo
p2452
aVthrough
p2453
aVthe
p2454
aVlittle
p2455
aVmaze
p2456
ag24
aVcan
p2457
aVyou
p2458
aVget
p2459
ag35
aVlittle
p2460
aVpiece
p2461
aVof
p2462
aVcheese
p2463
aVfor
p2464
aVme
p2465
ag169
ag96
aV'm
p2466
aValmost
p2467
aVat
p2468
aVthe
p2469
aVfront
p2470
ag24
ag96
aV'd
p2471
aVlike
p2472
ag35
aVreward
p2473
aVfor
p2474
aVthis
p2475
aVplease
p2476
ag24
aaa(lp2477
Vgeorge
p2478
a(lp2479
Vthirty-two
p2480
ag19
aVthirty-three-
p2481
aaa(lp2482
Vjerry
p2483
a(lp2484
Vgeorge
p2485
ag24
aaa(lp2486
Vgeorge
p2487
a(lp2488
Vnot
p2489
aVnow
p2490
ag24
aaa(lp2491
Vjerry
p2492
a(lp2493
Vcould
p2494
aVyou
p2495
aVstop
p2496
aVthe
p2497
aVcounting
p2498
ag169
aaa(lp2499
Vgeorge
p2500
a(lp2501
Vnnnnnnnninngaaa
p2502
ag772
aVwhat
p2503
ag169
ag772
aaa(lp2504
Vjerry
p2505
a(lp2506
Vcan
p2507
ag96
aVmake
p2508
aVit
p2509
aVup
p2510
aVto
p2511
aVyou
p2512
ag169
ag96
aV'll
p2513
aVgive
p2514
aVyou
p2515
aVfifty
p2516
aVbucks
p2517
aVfor
p2518
aVthe
p2519
aVjug
p2520
ag24
aaa(lp2521
Vgeorge
p2522
a(lp2523
Voh
p2524
ag19
aVyeah
p2525
ag19
aVsure
p2526
ag24
aVkeep
p2527
aVyour
p2528
aVmoney
p2529
ag24
aaa(lp2530
Vjerry
p2531
a(lp2532
Vwell
p2533
ag19
aVthen
p2534
ag96
aV'm
p2535
aVnot
p2536
aVgoing
p2537
aVto
p2538
aVthe
p2539
aVgame
p2540
aVeither
p2541
ag24
aVokay
p2542
ag169
ag96
aV'll
p2543
aVgive
p2544
aVhim
p2545
aVboth
p2546
aVtickets
p2547
ag24
aaa(lp2548
Vgeorge
p2549
a(lp2550
Voh
p2551
aVgeeeee
p2552
aVgo
p2553
ag19
aVgo
p2554
ag772
aaa(lp2555
Vjerry
p2556
a(lp2557
g96
aVno
p2558
ag19
ag96
aVdo
p2559
aVn't
p2560
aVwant
p2561
aVto
p2562
aVgo
p2563
ag24
aaa(lp2564
Vgeorge
p2565
a(lp2566
Vhe
p2567
aVwas
p2568
aVreally
p2569
aVcrying
p2570
ag169
aaa(lp2571
Vjerry
p2572
a(lp2573
g96
aVhad
p2574
aVto
p2575
aVgive
p2576
aVhim
p2577
ag35
aVtissue
p2578
ag24
aVin
p2579
aVfact
p2580
ag19
aVlet
p2581
aVme
p2582
aVcall
p2583
aVhis
p2584
aVmachine
p2585
aVnow
p2586
aVand
p2587
ag96
aV'll
p2588
aVjust
p2589
aVmake
p2590
aVup
p2591
aVsome
p2592
aVexcuse
p2593
aVwhy
p2594
ag96
aVca
p2595
aVn't
p2596
aVgo
p2597
aVto
p2598
aVthe
p2599
aVgame
p2600
aVeither
p2601
ag24
aaa(lp2602
Vgeorge
p2603
a(lp2604
Vwait
p2605
ag35
aVminute
p2606
ag24
aVwait
p2607
ag35
aVminute
p2608
ag24
aVas
p2609
aVlong
p2610
aVas
p2611
aVyou
p2612
aV're
p2613
aVgoing
p2614
aVto
p2615
aVlie
p2616
aVto
p2617
aVthe
p2618
aVguy
p2619
ag19
aVwhy
p2620
aVdo
p2621
aVn't
p2622
aVyou
p2623
aVtell
p2624
aVhim
p2625
aVthat
p2626
aVyou
p2627
aVlost
p2628
aVboth
p2629
aVof
p2630
aVthe
p2631
aVtickets
p2632
ag19
aVthen
p2633
aVwe
p2634
aVcould
p2635
aVgo
p2636
ag169
aaa(lp2637
Vjerry
p2638
a(lp2639
Vgeorge
p2640
ag19
aVthe
p2641
aVman
p2642
aVwept
p2643
ag24
aaa(lp2644
Vkramer
p2645
a(lp2646
Voh
p2647
ag19
aVhey
p2648
aVguys
p2649
ag24
aVman
p2650
ag19
ag96
aV'm
p2651
aVtelling
p2652
aVyou
p2653
ag24
aVthis
p2654
aVpizza
p2655
aVidea
p2656
ag19
aVis
p2657
aVreally
p2658
aVgoing
p2659
aVto
p2660
aVhappen
p2661
ag24
aaa(lp2662
Vgeorge
p2663
a(lp2664
Vthis
p2665
aVis
p2666
aVthe
p2667
aVthing
p2668
aVwhere
p2669
aVyou
p2670
aVgo
p2671
aVand
p2672
aVyou
p2673
aVhave
p2674
aVto
p2675
aVmake
p2676
aVyour
p2677
aVown
p2678
aVpizza
p2679
ag169
aaa(lp2680
Vkramer
p2681
a(lp2682
Vyeah
p2683
ag19
aVwe
p2684
aVgive
p2685
aVyou
p2686
aVthe
p2687
aVdough
p2688
ag19
aVyou
p2689
aVsmash
p2690
aVit
p2691
ag19
aVyou
p2692
aVpound
p2693
aVit
p2694
ag19
aVyou
p2695
aVfling
p2696
aVit
p2697
aVin
p2698
aVthe
p2699
aVair
p2700
aVand
p2701
aVthen
p2702
aVyou
p2703
aVget
p2704
aVto
p2705
aVput
p2706
aVyour
p2707
aVsauce
p2708
aVand
p2709
aVyou
p2710
aVget
p2711
aVto
p2712
aVsprinkle
p2713
aVyour
p2714
aVcheese
p2715
ag19
aVand
p2716
aVthey
p2717
ag226
aVyou
p2718
aVslide
p2719
aVit
p2720
aVinto
p2721
aVthe
p2722
aVoven
p2723
ag24
aaa(lp2724
Vgoerge
p2725
a(lp2726
Vyou
p2727
aVknow
p2728
ag19
aVyou
p2729
aVhave
p2730
aVto
p2731
aVknow
p2732
aVhow
p2733
aVto
p2734
aVdo
p2735
aVthat
p2736
ag24
aVyou
p2737
aVca
p2738
aVn't
p2739
aVhave
p2740
aVpeople
p2741
aVshoving
p2742
aVtheir
p2743
aVarms
p2744
aVinto
p2745
ag35
aVsix-hundred
p2746
aVdegree
p2747
aVoven
p2748
ag24
aaa(lp2749
Vkramer
p2750
a(lp2751
Vit
p2752
aV's
p2753
aVall
p2754
aVsupervised
p2755
ag24
aaa(lp2756
Vgeorge
p2757
a(lp2758
Voh
p2759
ag19
aVwell
p2760
ag24
aaa(lp2761
Vkramer
p2762
a(lp2763
Vall
p2764
aVof
p2765
aVit
p2766
ag24
aVyou
p2767
aVwant
p2768
aVto
p2769
aVinvest
p2770
ag169
aaa(lp2771
Vgeorge
p2772
a(lp2773
Vmy
p2774
aVmoney
p2775
aV's
p2776
aVall
p2777
aVtied
p2778
aVup
p2779
aVin
p2780
aVchange
p2781
aVright
p2782
aVnow
p2783
ag24
aaa(lp2784
Vkramer
p2785
a(lp2786
Vno
p2787
ag19
ag96
aV'm
p2788
aVtellin
p2789
aV'
p2790
aVya
p2791
ag19
aVpeople
p2792
ag19
aVthey
p2793
aVreally
p2794
aVwant
p2795
aVto
p2796
aVmake
p2797
aVtheir
p2798
aVown
p2799
aVpizza
p2800
aVpie
p2801
ag24
aaa(lp2802
Vjerry
p2803
a(lp2804
g96
aVhave
p2805
aVto
p2806
aVsay
p2807
aVsomething
p2808
ag24
aVwith
p2809
aVall
p2810
aVdue
p2811
aVrespect
p2812
ag19
ag96
aVjust
p2813
aVnever
p2814
ag96
aVca
p2815
aVn't
p2816
aVimagine
p2817
aVanyone
p2818
aVin
p2819
aVany
p2820
aVwalk
p2821
aVof
p2822
aVlife
p2823
ag19
aVunder
p2824
aVany
p2825
aVcircumstance
p2826
ag19
aVwanting
p2827
aVto
p2828
aVmake
p2829
aVtheir
p2830
aVown
p2831
aVpizza
p2832
aVpie
p2833
aVbut
p2834
aVthat
p2835
aV's
p2836
aVme
p2837
ag24
aaa(lp2838
Vkramer
p2839
a(lp2840
Vthat
p2841
aV's
p2842
aVyou
p2843
ag24
aaa(lp2844
Vjerry
p2845
a(lp2846
g96
aV'm
p2847
aVjust
p2848
aVsaying
p2849
aaa(lp2850
Vkramer
p2851
a(lp2852
Vokay
p2853
ag19
aVokay
p2854
ag24
ag96
aVjust
p2855
aVwanted
p2856
aVto
p2857
aVcheck
p2858
aVwith
p2859
aVyou
p2860
aVguys
p2861
ag24
aaa(lp2862
Vjerry
p2863
a(lp2864
Vokay
p2865
ag24
aaa(lp2866
Vkramer
p2867
a(lp2868
Vyou
p2869
aVknow
p2870
ag19
aVthis
p2871
aVbusiness
p2872
aVis
p2873
aVgoing
p2874
aVto
p2875
aVbe
p2876
aVbig
p2877
ag24
ag96
aVjust
p2878
aVwanted
p2879
aVokay
p2880
ag24
aVone
p2881
aVday
p2882
ag19
aVyou
p2883
aV'll
p2884
aVbeg
p2885
aVme
p2886
aVto
p2887
aVmake
p2888
aVyour
p2889
aVown
p2890
aVpie
p2891
ag24
aaa(lp2892
Vjerry
p2893
a(lp2894
Vhi
p2895
ag19
aVjoel
p2896
ag24
aVthis
p2897
aVis
p2898
aVjerry
p2899
ag24
ag96
aVhope
p2900
aVyou
p2901
aVget
p2902
aVthis
p2903
aVbefore
p2904
aVyou
p2905
ag226
aVoh
p2906
ag19
aVhi
p2907
ag24
aVjoel
p2908
aVoh
p2909
ag19
aVyou
p2910
aVjust
p2911
aVcame
p2912
aVin
p2913
aVlisten
p2914
ag19
ag96
aVca
p2915
aVn't
p2916
aVamke
p2917
aVit
p2918
aVto
p2919
aVthe
p2920
aVgame
p2921
aVtonight
p2922
ag24
ag96
ag19
aVuh
p2923
ag19
aVhave
p2924
aVto
p2925
aVtutor
p2926
aVmy
p2927
aVnephew
p2928
ag226
aVyeah
p2929
ag19
aVhe
p2930
aV's
p2931
aVgot
p2932
aVan
p2933
aVexam
p2934
aVtomarrow
p2935
aVgeometry
p2936
aVyou
p2937
aVknow
p2938
ag19
aVtrapezoids
p2939
ag19
aVrhombus
p2940
aVanyway
p2941
ag19
aVlisten
p2942
ag19
aVyou
p2943
aVtake
p2944
aVthe
p2945
aVtickets
p2946
ag24
aVthey
p2947
aV're
p2948
aVat
p2949
aVthe
p2950
aVwill-call
p2951
aVwindow
p2952
aVand
p2953
ag96
aV'm
p2954
aVreally
p2955
aVsorry
p2956
aVhave
p2957
ag35
aVgood
p2958
aVtime
p2959
ag24
aVwe
p2960
aV'll
p2961
aVtalk
p2962
aVnext
p2963
aVweek
p2964
ag24
aVokay
p2965
aVyeah
p2966
ag19
ag96
aVdo
p2967
aVn't
p2968
aVfine
p2969
aVfine
p2970
aVbye..
p2971
aaa(lp2972
Vgeorge
p2973
a(lp2974
Vtrapezoid
p2975
ag169
aaa(lp2976
Vjerry
p2977
a(lp2978
g96
aVknow
p2979
ag24
ag96
aV'm
p2980
aVreally
p2981
aVrunning
p2982
aVout
p2983
aVof
p2984
aVexcuses
p2985
aVwith
p2986
aVthis
p2987
aVguy
p2988
ag24
ag96
aVneed
p2989
aVsome
p2990
aVkind
p2991
aVof
p2992
aVexcuse
p2993
aVrolodex
p2994
ag24
aaa(lp2995
Velaine
p2996
a(lp2997
Vcome
p2998
aVon
p2999
ag19
aVlet
p3000
aV's
p3001
aVgo
p3002
aVdo
p3003
aVsomething
p3004
ag24
ag96
aVdo
p3005
aVn't
p3006
aVwant
p3007
aVto
p3008
aVjust
p3009
aVsit
p3010
aVaround
p3011
aVhere
p3012
ag24
aaa(lp3013
Vjerry
p3014
a(lp3015
Vokay
p3016
ag24
aaa(lp3017
Velaine
p3018
a(lp3019
Vwant
p3020
aVto
p3021
aVgo
p3022
aVget
p3023
aVsomething
p3024
aVto
p3025
aVeat
p3026
ag169
aaa(lp3027
Vjerry
p3028
a(lp3029
Vwhere
p3030
aVdo
p3031
aVyou
p3032
aVwant
p3033
aVto
p3034
aVgo
p3035
ag169
aaa(lp3036
Velaine
p3037
a(lp3038
g96
aVdo
p3039
aVn't
p3040
aVcare
p3041
ag19
ag96
aV'm
p3042
aVnot
p3043
aVhungry
p3044
ag24
aaa(lp3045
Vjerry
p3046
a(lp3047
Vwe
p3048
aVcould
p3049
aVgo
p3050
aVto
p3051
aVone
p3052
aVof
p3053
aVthose
p3054
aVcappuccino
p3055
aVplaces
p3056
ag24
aVthey
p3057
aVlet
p3058
aVyou
p3059
aVjust
p3060
aVsit
p3061
aVthere
p3062
ag24
aaa(lp3063
Velaine
p3064
a(lp3065
Vwhat
p3066
aVare
p3067
aVwe
p3068
aVgon
p3069
aVna
p3070
aVdo
p3071
aVthere
p3072
ag169
aVtalk
p3073
ag169
aaa(lp3074
Vjerry
p3075
a(lp3076
Vwe
p3077
aVcan
p3078
aVtalk
p3079
ag24
aaa(lp3080
Velaine
p3081
a(lp3082
g96
aV'll
p3083
aVgo
p3084
aVif
p3085
ag96
aVdo
p3086
aVn't
p3087
aVhave
p3088
aVto
p3089
aVtalk
p3090
ag24
aaa(lp3091
Vjerry
p3092
a(lp3093
Vwe
p3094
aV'll
p3095
aVjust
p3096
aVsit
p3097
aVthere
p3098
ag24
aaa(lp3099
Velaine
p3100
a(lp3101
Vokay
p3102
ag24
ag96
aV'm
p3103
aVgon
p3104
aVna
p3105
aVcheck
p3106
aVmy
p3107
aVmachine
p3108
aVfirst
p3109
ag24
aaa(lp3110
Velaine
p3111
a(lp3112
Vpicking
p3113
aVsomeone
p3114
aVup
p3115
aVat
p3116
aVthe
p3117
aVairport
p3118
ag24
aVjury
p3119
aVduty
p3120
ag24
aVwaiting
p3121
aVfor
p3122
aVcable
p3123
aVguy
p3124
ag24
aaa(lp3125
Vjerry
p3126
a(lp3127
Vokay
p3128
ag19
aVjust
p3129
aVahnd
p3130
aVthat
p3131
aVover
p3132
ag19
aVplease
p3133
ag24
aaa(lp3134
Velaine
p3135
a(lp3136
Voh
p3137
ag19
aVwhat
p3138
aVis
p3139
aVthis
p3140
ag169
aaa(lp3141
Vjerry
p3142
a(lp3143
Vit
p3144
aV's
p3145
ag35
aVlist
p3146
aVof
p3147
aVexcuses
p3148
ag19
aVit
p3149
aV's
p3150
aVfor
p3151
aVthat
p3152
aVguy
p3153
ag19
aVhorneck
p3154
ag19
aVwho
p3155
aV's
p3156
aVat
p3157
aVthe
p3158
aVgame
p3159
aVtonight
p3160
aVwith
p3161
aVmy
p3162
aVtickets
p3163
ag24
ag96
aVhave
p3164
aVthat
p3165
aVlist
p3166
aVnow
p3167
aVso
p3168
aVin
p3169
aVcase
p3170
aVhe
p3171
aVcalls
p3172
ag19
ag96
aVjust
p3173
aVconsult
p3174
aVit
p3175
aVand
p3176
ag96
aVdo
p3177
aVn't
p3178
aVhave
p3179
aVto
p3180
aVsee
p3181
aVhim
p3182
ag24
ag96
aVneed
p3183
aVit
p3184
ag24
aVwhat
p3185
aVare
p3186
aVyou
p3187
aVdoing
p3188
ag169
aaa(lp3189
Velaine
p3190
a(lp3191
g96
aVgot
p3192
aVsome
p3193
aVfor
p3194
aVyou
p3195
ag24
aaa(lp3196
Vjerry
p3197
a(lp3198
g96
aVdo
p3199
aVn't
p3200
aVneed
p3201
aVanymore
p3202
ag24
aaa(lp3203
Velaine
p3204
a(lp3205
Vno
p3206
ag19
aVno
p3207
ag19
aVno
p3208
ag19
aVno
p3209
ag19
aVno
p3210
ag19
aVthese
p3211
aVare
p3212
aVgood
p3213
ag24
aVlisten
p3214
ag19
aVlisten
p3215
aVyou
p3216
aVran
p3217
aVout
p3218
aVof
p3219
aVunderwear
p3220
ag19
aVyou
p3221
aVca
p3222
aVn't
p3223
aVleave
p3224
aVthe
p3225
aVhouse
p3226
ag24
aaa(lp3227
Vjerry
p3228
a(lp3229
Vvery
p3230
aVfunny
p3231
ag24
aaa(lp3232
Velaine
p3233
a(lp3234
Vhow
p3235
aVabout
p3236
aVyou
p3237
aV've
p3238
aVbeen
p3239
aVdiagnosed
p3240
aVas
p3241
ag35
aVmultiple
p3242
aVpersonality
p3243
ag19
aVyou
p3244
aV're
p3245
aVnot
p3246
aVeven
p3247
aVyou
p3248
ag19
aVyou
p3249
aV're
p3250
aVdan
p3251
ag24
aaa(lp3252
Vjerry
p3253
a(lp3254
g96
aV'm
p3255
aVdan
p3256
ag24
aVcan
p3257
ag96
aVhave
p3258
aVmy
p3259
aVlist
p3260
aVback
p3261
ag19
aVplease
p3262
ag169
aaa(lp3263
Velaine
p3264
a(lp3265
Vhere
p3266
ag19
aVhere
p3267
ag24
aVjerry
p3268
aVseinfeld
p3269
ag19
ag96
aVcan
p3270
aVnot
p3271
aVbelieve
p3272
aVyou
p3273
aV're
p3274
aVdoing
p3275
aVthis
p3276
ag24
aVthis
p3277
aVis
p3278
aVabsolutely
p3279
aVinfantile
p3280
ag24
aaa(lp3281
Vjerry
p3282
a(lp3283
Vwhat
p3284
aVcan
p3285
ag96
aVdo
p3286
ag169
aaa(lp3287
Velaine
p3288
a(lp3289
Vdeal
p3290
aVwith
p3291
aVit
p3292
ag24
aVbe
p3293
ag35
aVman
p3294
ag772
aaa(lp3295
Vjerry
p3296
a(lp3297
Voh
p3298
aVno
p3299
ag24
aVthat
p3300
aV's
p3301
aVimpossible
p3302
ag24
ag96
aV'd
p3303
aVrather
p3304
aVlie
p3305
aVto
p3306
aVhim
p3307
aVfor
p3308
aVthe
p3309
aVrest
p3310
aVof
p3311
aVmy
p3312
aVlife
p3313
aVthat
p3314
aVgo
p3315
aVthrough
p3316
aVthat
p3317
aVagain
p3318
ag24
aVhe
p3319
aVwas
p3320
aVcrying
p3321
ag19
aVtears
p3322
aVaccompanied
p3323
aVby
p3324
aVmucus
p3325
ag24
aaa(lp3326
Velaine
p3327
a(lp3328
Vyou
p3329
aVmade
p3330
ag35
aVman
p3331
aVcry
p3332
ag169
ag96
aV've
p3333
aVnever
p3334
aVmade
p3335
ag35
aVman
p3336
aVcry
p3337
ag24
ag96
aVeven
p3338
aVkicked
p3339
ag35
aVguy
p3340
aVin
p3341
aVthe
p3342
aVgroin
p3343
aVonce
p3344
aVand
p3345
aVhe
p3346
aVdid
p3347
aVn't
p3348
aVcry
p3349
ag96
aVgot
p3350
aVthe
p3351
aVcab
p3352
ag24
aaa(lp3353
Vjerry
p3354
a(lp3355
g35
aVcouple
p3356
aVof
p3357
aVtouch
p3358
aVmonkeys
p3359
ag24
aaa(lp3360
Vkramer
p3361
a(lp3362
Voh
p3363
ag19
aVhi
p3364
aVelaine
p3365
ag19
aVhey
p3366
ag24
aVhey
p3367
ag19
aVyou
p3368
aVmissed
p3369
ag35
aVgreat
p3370
aVgame
p3371
aVtonight
p3372
ag19
aVbuddy
p3373
ag772
aaa(lp3374
Vjerry
p3375
a(lp3376
Vgame
p3377
ag169
aaa(lp3378
Vkramer
p3379
a(lp3380
Vknock
p3381
aVgame
p3382
ag24
aVhorneck
p3383
aVtook
p3384
aVme
p3385
ag24
aVwe
p3386
aVwere
p3387
aVsitting
p3388
aVtwo
p3389
aVrows
p3390
aVbehind
p3391
aVthe
p3392
aVbench
p3393
ag24
aVwe
p3394
aVwere
p3395
aVgetting
p3396
aVhit
p3397
aVby
p3398
aVsweat
p3399
ag772
aaa(lp3400
Vjerry
p3401
a(lp3402
Vwait
p3403
ag24
aVhow
p3404
aVdoes
p3405
aVhorneck
p3406
aVknow
p3407
aVyou
p3408
ag169
aaa(lp3409
Vkramer
p3410
a(lp3411
Vlast
p3412
aVweek
p3413
ag24
aVwhen
p3414
ag96
ag19
aVyou
p3415
aVknow
p3416
ag19
aVgame
p3417
aVyou
p3418
aVthe
p3419
aVphone
p3420
ag24
aVhe
p3421
aV's
p3422
aVreally
p3423
aVinto
p3424
aVmy
p3425
aVpizza
p3426
aVplace
p3427
aVidea
p3428
ag772
aaa(lp3429
Vjerry
p3430
a(lp3431
Vthis
p3432
aVis
p3433
aVtoo
p3434
aVmuch
p3435
ag24
aaa(lp3436
Velaine
p3437
a(lp3438
Vwait
p3439
ag19
aVwhat
p3440
aVpizza
p3441
aVplace
p3442
aVidea
p3443
ag169
aaa(lp3444
Vjerry
p3445
a(lp3446
Voh
p3447
ag19
aVno
p3448
ag24
aaa(lp3449
Vkramer
p3450
a(lp3451
Vyou
p3452
aVmake
p3453
aVyour
p3454
aVown
p3455
aVpie
p3456
ag772
aaa(lp3457
Velaine
p3458
a(lp3459
Voh
p3460
ag19
aVthat
p3461
aVsounds
p3462
aVlike
p3463
ag35
aVgreat
p3464
aVidea
p3465
ag24
aVit
p3466
aVwould
p3467
aVbe
p3468
aVfun
p3469
ag24
aaa(lp3470
Vjoel
p3471
a(lp3472
Vkramer
p3473
aaa(lp3474
Vkramer
p3475
a(lp3476
Vyeah
p3477
ag24
aaa(lp3478
Vjerry
p3479
a(lp3480
Vperfect
p3481
ag24
aaa(lp3482
Vjoel
p3483
a(lp3484
Vhey
p3485
aaa(lp3486
Vkramer
p3487
a(lp3488
Vokay
p3489
ag19
aVwho
p3490
aVwants
p3491
aVmeatloaf
p3492
ag169
aaa(lp3493
Velaine
p3494
a(lp3495
Vno
p3496
aVthanks
p3497
ag24
aaa(lp3498
Vjerry
p3499
ag3495
aa(lp3500
Vkramer
p3501
a(lp3502
Vit
p3503
aV's
p3504
aVgon
p3505
aVna
p3506
aVbe
p3507
aVhot
p3508
aVin
p3509
ag35
aVminute
p3510
ag24
aaa(lp3511
Vjoel
p3512
a(lp3513
Vso
p3514
ag19
ag96
aVthough
p3515
aVyou
p3516
aVwere
p3517
aVtutoring
p3518
aVyour
p3519
aVnephew
p3520
ag169
aaa(lp3521
Vjerry
p3522
a(lp3523
Voh
p3524
ag19
aVwe
p3525
aVfinished
p3526
aVearly
p3527
ag24
aaa(lp3528
Vjoel
p3529
a(lp3530
Vuhm
p3531
ag19
ag96
aV'll
p3532
aVbet
p3533
ag24
aVso
p3534
ag19
aVare
p3535
aVyou
p3536
aVgoing
p3537
aVto
p3538
aVintroduce
p3539
aVme
p3540
aVto
p3541
aVyour
p3542
ag226
aVnephew
p3543
ag169
aaa(lp3544
Vjerry
p3545
a(lp3546
Velaine
p3547
aVbenes
p3548
ag19
aVthis
p3549
aVis
p3550
aVjoel
p3551
aVhorneck
p3552
ag24
aaa(lp3553
Velaine
p3554
a(lp3555
Vhi
p3556
ag24
aaa(lp3557
Vjoel
p3558
a(lp3559
Vwhoa
p3560
ag19
aVnelson
p3561
ag772
aVthis
p3562
aVis
p3563
aVelaine
p3564
ag169
ag96
aVthough
p3565
aVyou
p3566
aVguys
p3567
aVsplit
p3568
ag169
aaa(lp3569
Vjerry
p3570
a(lp3571
Vwe
p3572
aV're
p3573
aVstill
p3574
aVfriends
p3575
ag24
aaa(lp3576
Vjoel
p3577
a(lp3578
Vso
p3579
ag19
aVthanks
p3580
aVagain
p3581
aVfor
p3582
aVthose
p3583
aVtickets
p3584
ag24
aVbut
p3585
aVnext
p3586
aVweek
p3587
ag19
ag96
aV'm
p3588
aVgoing
p3589
aVto
p3590
aVtake
p3591
aVyou
p3592
ag24
aVyou
p3593
aVabout
p3594
aVnext
p3595
aVtuesday
p3596
aVnight
p3597
ag169
aVand
p3598
aVwhy
p3599
aVdo
p3600
aVn't
p3601
aVyou
p3602
aVcome
p3603
aValong
p3604
ag169
aaa(lp3605
Velaine
p3606
a(lp3607
Voh
p3608
ag19
aVno
p3609
ag19
aVno
p3610
ag24
aVtuesday
p3611
aV's
p3612
aVno
p3613
aVgood
p3614
aVbecasue
p3615
aVwe
p3616
aV've
p3617
aVgot
p3618
aVchoir
p3619
aVpractice
p3620
ag24
aaa(lp3621
Vjerry
p3622
a(lp3623
Vright
p3624
ag24
ag96
aVforgot
p3625
aVabout
p3626
aVchoir
p3627
ag24
aaa(lp3628
Velaine
p3629
a(lp3630
Vwe
p3631
aV're
p3632
aVdoing
p3633
aVthat
p3634
aVevening
p3635
aVof
p3636
aVeastern
p3637
aVeuropean
p3638
aVnational
p3639
aVanthems
p3640
ag24
aaa(lp3641
Vjerry
p3642
a(lp3643
Vright
p3644
ag24
aVyou
p3645
aVknow
p3646
ag19
aVthe
p3647
aVwall
p3648
aVbeing
p3649
aVdown
p3650
aVand
p3651
aVeverything
p3652
ag24
aaa(lp3653
Vjoel
p3654
a(lp3655
Vwhat
p3656
aVabout
p3657
aVthursday
p3658
aVnight
p3659
ag169
ag96
aVmean
p3660
aVthey
p3661
aV're
p3662
aVplaying
p3663
aVthe
p3664
aVsonics
p3665
ag24
aaa(lp3666
Velaine
p3667
a(lp3668
Vhuh
p3669
aVthursday
p3670
aVis
p3671
aVnot
p3672
aVgood
p3673
aVbecause
p3674
aVwe
p3675
aV've
p3676
aVgot
p3677
aVto
p3678
aVget
p3679
aVto
p3680
aVthe
p3681
aVhospital
p3682
aVto
p3683
aVsee
p3684
aVif
p3685
aVwe
p3686
aVqualify
p3687
aVas
p3688
aVthose
p3689
aVorgan
p3690
aVdonors
p3691
ag24
aaa(lp3692
Vjoel
p3693
a(lp3694
Vyou
p3695
aVknow
p3696
ag19
ag96
aVshould
p3697
aVreally
p3698
aVtry
p3699
aVsomething
p3700
aVlike
p3701
aVthat
p3702
ag24
aaa(lp3703
Vjerry
p3704
a(lp3705
Vyou
p3706
aVreally
p3707
aVshould
p3708
aV.
p3709
aaa(lp3710
Vjoel
p3711
a(lp3712
Vwell
p3713
aV,
p3714
aVlet
p3715
aV's
p3716
aVjust
p3717
aVtake
p3718
aVa
p3719
aVlook
p3720
aVhere
p3721
ag3709
aVforty-one
p3722
aVhome
p3723
aVgames
p3724
ag3709
aVsaturday
p3725
aVnight
p3726
aVwe
p3727
aV've
p3728
aVgot
p3729
aVthe
p3730
aVmavericks
p3731
ag3709
aVif
p3732
aVyou
p3733
aVdo
p3734
aVn't
p3735
aVlike
p3736
aVthe
p3737
aVmavericks
p3738
ag3714
aVnext
p3739
aVtuesday
p3740
aV-
p3741
aVlakers
p3742
ag3709
aVi
p3743
aVmean
p3744
ag3714
aVyou
p3745
aVgot
p3746
aVta
p3747
aVlike
p3748
aVmagic
p3749
ag3714
aVright
p3750
aV?
p3751
aVlet
p3752
aV's
p3753
aVsee
p3754
ag3714
aVon
p3755
aVthe
p3756
aVroad
p3757
ag3714
aVon
p3758
aVthe
p3759
aVroad
p3760
ag3714
aVon
p3761
aVthe
p3762
aVroad
p3763
ag3714
aVon
p3764
aVthe
p3765
aVroad
p3766
ag3714
aVback
p3767
aVon
p3768
aVthe
p3769
aVfourteenth
p3770
ag3709
aVthey
p3771
aVplay
p3772
aVthe
p3773
aVbulls
p3774
ag3709
aVyou
p3775
aVca
p3776
aVn't
p3777
aVmiss
p3778
aVair
p3779
aVjordan
p3780
aaa.