(lp0
(lp1
Vjerry
p2
a(lp3
Vthe
p4
aVstock
p5
aVtip
p6
aVwritten
p7
aVby
p8
aVlarry
p9
aVdavid
p10
aV&
p11
aVjerry
p12
aVseinfeld
p13
aVwent
p14
aVout
p15
aVto
p16
aVdinner
p17
aVthe
p18
aVother
p19
aVnight
p20
aV.
p21
aVcheck
p22
aVcame
p23
aVat
p24
aVthe
p25
aVend
p26
aVof
p27
aVthe
p28
aVmeal
p29
aV,
p30
aVas
p31
aVit
p32
aValways
p33
aVdoes
p34
ag21
aVnever
p35
aVliked
p36
aVthe
p37
aVcheck
p38
aVat
p39
aVthe
p40
aVend
p41
aVof
p42
aVthe
p43
aVmeal
p44
aVsystem
p45
ag30
aVbecause
p46
aVmoney
p47
aV's
p48
aVa
p49
aVvery
p50
aVdifferent
p51
aVthing
p52
aVbefore
p53
aVand
p54
aVafter
p55
aVyou
p56
aVeat
p57
ag21
aVbefore
p58
aVyou
p59
aVeat
p60
aVmoney
p61
aVhas
p62
aVno
p63
aVvalue
p64
ag21
aVand
p65
aVyou
p66
aVdo
p67
aVn't
p68
aVcare
p69
aVabout
p70
aVmoney
p71
aVwhen
p72
aVyou
p73
aV're
p74
aVhungry
p75
ag30
aVyou
p76
aVsit
p77
aVdown
p78
aVat
p79
ag49
aVrestaurant
p80
ag21
aVyou
p81
aV're
p82
aVlike
p83
aVthe
p84
aVruler
p85
aVof
p86
aVan
p87
aVempire
p88
ag21
aVmore
p89
aVdrinks
p90
ag30
aVappetizers
p91
ag30
aVquickly
p92
ag30
aVquickly
p93
aV!
p94
aVit
p95
aVwill
p96
aVbe
p97
aVthe
p98
aVgreatest
p99
aVmeal
p100
aVof
p101
aVour
p102
aVlives
p103
ag21
aVthen
p104
aVafter
p105
aVthe
p106
aVmeal
p107
ag30
aVyou
p108
aVknow
p109
ag30
aVyou
p110
aV've
p111
aVgot
p112
aVthe
p113
aVpants
p114
aVopen
p115
ag30
aVyou
p116
aV've
p117
aVgot
p118
aVthe
p119
aVnapkins
p120
aVdestroyed
p121
ag30
aVcigarette
p122
aVbutt
p123
aVin
p124
aVthe
p125
aVmashed
p126
aVpotatoes
p127
aV-
p128
aVthen
p129
aVthe
p130
aVcheck
p131
aVcomes
p132
aVat
p133
aVthat
p134
aVmoment
p135
ag21
aVpeople
p136
aVare
p137
aValways
p138
aVupset
p139
ag30
aVyou
p140
aVknow
p141
ag21
aVthey
p142
aV're
p143
aVmystified
p144
aVby
p145
aVthe
p146
aVcheck
p147
ag21
aVwhat
p148
aVis
p149
aVthis
p150
aV?
p151
aVhow
p152
aVcould
p153
aVthis
p154
aVbe
p155
ag151
aVthey
p156
aVstart
p157
aVpassing
p158
aVit
p159
aVaround
p160
aVthe
p161
aVtable
p162
ag30
aVdoes
p163
aVthis
p164
aVlook
p165
aVright
p166
aVto
p167
aVyou
p168
ag151
aVwe
p169
aV're
p170
aVnot
p171
aVhungry
p172
aVnow
p173
ag21
aVwhy
p174
aVare
p175
aVwe
p176
aVbuying
p177
aVall
p178
aVthis
p179
aVfood
p180
ag151
ag94
aVi
p181
aVthink
p182
aVsuperman
p183
aVprobably
p184
aVhas
p185
ag49
aVvery
p186
aVgood
p187
aVsense
p188
aVof
p189
aVhumor
p190
ag21
aaa(lp191
Vgeorge
p192
a(lp193
g181
aVnever
p194
aVheard
p195
aVhim
p196
aVsay
p197
aVanything
p198
aVreally
p199
aVfunny
p200
ag21
aaa(lp201
Vjerry
p202
a(lp203
Vbut
p204
aVit
p205
aV's
p206
aVcommon
p207
aVsense
p208
ag21
aVhe
p209
aV's
p210
aVgot
p211
aVsuper
p212
aVstrength
p213
ag30
aVsuper
p214
aVspeed
p215
ag181
aV'm
p216
aVsure
p217
aVhe
p218
aV's
p219
aVgot
p220
aVsuper
p221
aVhumor
p222
ag21
aaa(lp223
Vgeorge
p224
a(lp225
Vyou
p226
aVwould
p227
aVthink
p228
aVthat
p229
ag30
aVbut
p230
aVeither
p231
aVyou
p232
aV're
p233
aVborn
p234
aVwith
p235
ag49
aVsense
p236
aVof
p237
aVhumor
p238
ag30
aVor
p239
aVyou
p240
aV're
p241
aVnot
p242
ag21
aVit
p243
aV's
p244
aVnot
p245
aVgoing
p246
aVto
p247
aVchange
p248
aVeven
p249
aVif
p250
aVyou
p251
aVgo
p252
aVfrom
p253
aVthe
p254
aVred
p255
aVsun
p256
aVof
p257
aVkrypton
p258
aVall
p259
aVthe
p260
aVway
p261
aVto
p262
aVthe
p263
aVyellow
p264
aVsun
p265
aVof
p266
aVthe
p267
aVearth
p268
ag21
aaa(lp269
Vjerry
p270
a(lp271
Vwhy
p272
ag151
aVwhy
p273
aVwould
p274
aVthat
p275
aVone
p276
aVarea
p277
aVof
p278
aVhis
p279
aVmind
p280
aVnot
p281
aVbe
p282
aVaffected
p283
aVby
p284
aVthe
p285
aVyellow
p286
aVsun
p287
aVof
p288
aVearth
p289
ag151
aaa(lp290
Vgeorge
p291
a(lp292
g181
aVdo
p293
aVn't
p294
aVknow
p295
aVbut
p296
aVhe
p297
aVai
p298
aVn't
p299
aVfunny
p300
ag21
aaa(lp301
Velaine
p302
a(lp303
g181
aVknow
p304
ag30
ag181
aVknow
p305
ag21
ag181
aV'm
p306
aVsorry
p307
ag181
aV'm
p308
aVlate
p309
ag21
aaa(lp310
Vjerry
p311
a(lp312
Vno
p313
aVproblem
p314
ag21
aaa(lp315
Velaine
p316
a(lp317
g181
aVdropped
p318
ag49
aVgrape
p319
ag21
aaa(lp320
Vgeorge
p321
a(lp322
Vpardon
p323
ag151
aaa(lp324
Velaine
p325
a(lp326
g181
aVdropped
p327
ag49
aVgrape
p328
aVin
p329
aVthe
p330
aVkitchen
p331
aVand
p332
aVit
p333
aVdisappeared
p334
ag21
ag181
aVcould
p335
aVn't
p336
aVfind
p337
aVit
p338
ag21
ag181
aVwas
p339
ag181
aVwas
p340
aVliterally
p341
aVon
p342
aVmy
p343
aVknees
p344
aVfor
p345
aVten
p346
aVminutes
p347
aVlooking
p348
aVfor
p349
aVthis
p350
aVstupid
p351
aVgrape
p352
ag21
ag181
aVhave
p353
aVno
p354
aVidea
p355
aVwhere
p356
aVit
p357
aVwent
p358
ag21
aaa(lp359
Vjerry
p360
a(lp361
Vwere
p362
aVyou
p363
aVcrying
p364
ag151
ag181
aVmean
p365
ag30
aVit
p366
aV's
p367
aVjust
p368
ag49
aVgrape
p369
ag21
aVyou
p370
aV'll
p371
aVfind
p372
aVit
p373
ag21
aaa(lp374
Velaine
p375
a(lp376
Vno
p377
ag30
ag181
aV'm
p378
aVjust
p379
aVgetting
p380
aVover
p381
aVan
p382
aVallergy
p383
aVattack
p384
ag21
aVthis
p385
aVguy
p386
ag181
aV'm
p387
aVgoing
p388
aVout
p389
aVwith
p390
ag128
aaa(lp391
Vjerry
p392
a(lp393
Vrobert
p394
ag21
aaa(lp395
Velaine
p396
a(lp397
Vrobert
p398
ag21
aVyes
p399
aVthank
p400
aVyou
p401
ag21
aVhe
p402
aVhas
p403
aVtwo
p404
aVcats
p405
aVand
p406
ag181
aV'm
p407
aVallergic
p408
aVto
p409
aVthem
p410
ag21
aVyou
p411
aVknow
p412
ag30
ag181
aVfinally
p413
aVmeet
p414
ag49
aVnormal
p415
aVman
p416
ag30
aVand
p417
ag181
aVca
p418
aVn't
p419
aVeven
p420
aVgo
p421
aVinto
p422
aVhis
p423
aVapartment
p424
ag30
aVyou
p425
aVknow
p426
ag21
aVand
p427
ag30
aVof
p428
aVcourse
p429
ag30
aVmy
p430
aVapartment
p431
aVis
p432
aVthe
p433
aVactor
p434
aV's
p435
aVstudio
p436
aVso
p437
aVwe
p438
aVca
p439
aVn't
p440
aVgo
p441
aVthere
p442
ag21
aVit
p443
aV's
p444
aVreally
p445
aVcausing
p446
ag49
aVlot
p447
aVof
p448
aVproblems
p449
ag30
aVyou
p450
aVknow
p451
ag21
aVhe
p452
aVwo
p453
aVn't
p454
aVeven
p455
aVgo
p456
aVaway
p457
aVfro
p458
aVthe
p459
aVweekend
p460
aVbecause
p461
aVof
p462
aVthese
p463
aVcats
p464
ag21
aaa(lp465
Vgeorge
p466
a(lp467
Vguys
p468
aVwith
p469
aVcats
p470
ag181
aVdo
p471
aVn't
p472
aVknow
p473
ag21
aaa(lp474
Vjerry
p475
a(lp476
g181
aV've
p477
aVbeen
p478
aVthinking
p479
aVabout
p480
aVasking
p481
aVthis
p482
aVgirl
p483
ag181
aV'm
p484
ag30
aVuh
p485
ag30
aVseeing
p486
ag128
aaa(lp487
Velaine
p488
a(lp489
Vvanessa
p490
ag21
aaa(lp491
Vjerry
p492
a(lp493
Vvanessa
p494
ag30
aVthank
p495
aVyou
p496
ag181
aV've
p497
aVbeen
p498
aVthinking
p499
aVabout
p500
aVasking
p501
aVher
p502
aVto
p503
aVgo
p504
aVaway
p505
aVfor
p506
ag49
aVcouple
p507
aVof
p508
aVdays
p509
ag21
aaa(lp510
Vgeorge
p511
a(lp512
Voh
p513
aVno
p514
ag21
aVno
p515
ag30
aVno
p516
ag30
aVno
p517
ag30
aVno
p518
ag30
aVno
p519
ag21
ag181
aV'd
p520
aVhave
p521
aVto
p522
aVadvise
p523
aVagainst
p524
aVthat
p525
ag21
aVwhat
p526
aVdo
p527
aVyou
p528
aVknow
p529
aVthis
p530
aVwoman
p531
ag30
ag49
aVmonth
p532
ag151
aVlet
p533
aV's
p534
aVsee
p535
ag30
aVyou
p536
aV're
p537
aVgoing
p538
aVto
p539
aVbe
p540
aVwith
p541
aVher
p542
aVseventy-two
p543
aVhours
p544
ag21
aVthat
p545
aV's
p546
ag49
aVdating
p547
aVdecathlon
p548
ag21
aaa(lp549
Velaine
p550
a(lp551
Vhey
p552
ag30
aVwhy
p553
aVdo
p554
aVn't
p555
aVyou
p556
aVtake
p557
aVher
p558
aVto
p559
aVthat
p560
aVplace
p561
aVin
p562
aVvermont
p563
ag181
aVwas
p564
aVtelling
p565
aVyou
p566
aVabout
p567
ag151
aVyou
p568
aVknow
p569
ag30
aVthat
p570
aVreally
p571
aVcharming
p572
aVplace
p573
aVwith
p574
aVthe
p575
aVseparate
p576
aVfaucets
p577
aVfor
p578
aVthe
p579
aVhot
p580
aVand
p581
aVcold
p582
ag21
aVshe
p583
aV'll
p584
aVlove
p585
aVit
p586
ag21
aaa(lp587
Vgeorge
p588
a(lp589
Vthat
p590
aV's
p591
aVexquisite
p592
ag21
aVlisten
p593
ag30
aVuh
p594
ag30
aVif
p595
aVit
p596
aV's
p597
aVnot
p598
aVtoo
p599
aVmuch
p600
aVtrouble
p601
ag30
aVcould
p602
aVyou
p603
aVpass
p604
aVme
p605
aVthat
p606
aVpaper
p607
aVover
p608
aVthere
p609
ag151
aaa(lp610
Vjerry
p611
a(lp612
Vyou
p613
aVbetter
p614
aVfind
p615
aVthat
p616
aVgrape
p617
aVbefore
p618
aVit
p619
aVmutates
p620
aVinto
p621
aVanother
p622
aVlife
p623
aVform
p624
ag21
aVthere
p625
aVwas
p626
aVonce
p627
ag49
aVmutant
p628
aVgrape
p629
aVthat
p630
aVterrorized
p631
aVan
p632
aVentire
p633
aVtown
p634
aVin
p635
aVthe
p636
aVtexas
p637
aVpanhandle
p638
ag21
aVthey
p639
aVbrought
p640
aVin
p641
aVthe
p642
aVarmy
p643
ag30
aVnobody
p644
aVcould
p645
aVstop
p646
aVit
p647
ag21
aVapparently
p648
aVit
p649
aVhad
p650
ag49
aVpit
p651
aVof
p652
aVsteel
p653
ag21
aaa(lp654
Vgeorge
p655
a(lp656
Vup
p657
aVagain
p658
ag151
ag94
aVthis
p659
aVis
p660
aVincredible
p661
ag21
ag181
aV'm
p662
ag181
aV'm
p663
aVgetting
p664
aVit
p665
ag21
aaa(lp666
Velaine
p667
a(lp668
Vyou
p669
aV're
p670
aVgetting
p671
aVwhat
p672
ag151
aaa(lp673
Vgeorge
p674
a(lp675
g49
aVstock
p676
ag21
aaa(lp677
Vjerry
p678
a(lp679
Vwhat
p680
aVstock
p681
ag151
aaa(lp682
Vgeorge
p683
a(lp684
Vdid
p685
aVyou
p686
aVever
p687
aVmeet
p688
aVmy
p689
aVfriend
p690
ag30
aVsimons
p691
ag151
aaa(lp692
Vjerry
p693
a(lp694
Vmaybe
p695
ag21
aaa(lp696
Vgoerge
p697
a(lp698
Vhe
p699
aVknows
p700
aVthis
p701
aVguy
p702
ag30
aVwilkinson
p703
ag21
aVhe
p704
aVmade
p705
ag49
aVfortune
p706
aVin
p707
aVthe
p708
aVstock
p709
aVmarket
p710
ag21
aVnow
p711
aVhe
p712
aV's
p713
aVgot
p714
aVsome
p715
aVnew
p716
aVthing
p717
ag128
aVyou
p718
aVknow
p719
ag30
aVthere
p720
aV's
p721
aVsupposed
p722
aVto
p723
aVbe
p724
ag49
aVbig
p725
aVmerger
p726
ag21
aVhe
p727
aVwas
p728
aVn't
p729
aVeven
p730
aVsupposed
p731
aVto
p732
aVsay
p733
aVanything
p734
ag21
aVyou
p735
aVguys
p736
aVshould
p737
aVthink
p738
aVabout
p739
aVdoing
p740
aVthis
p741
aVtoo
p742
ag21
aaa(lp743
Vjerry
p744
a(lp745
Vhow
p746
aVhigh
p747
aV's
p748
aVit
p749
aVsuppose
p750
aVto
p751
aVgo
p752
ag151
aaa(lp753
Vgeorge
p754
a(lp755
g181
aVdo
p756
aVn't
p757
aVknow
p758
ag21
aVbut
p759
aVsimons
p760
aVsaid
p761
aVthat
p762
aVif
p763
ag181
aVwanted
p764
aVto
p765
aVget
p766
aVinvolved
p767
ag30
aVthat
p768
aVwilkinson
p769
aVwould
p770
aVtell
p771
aVme
p772
aVthe
p773
aVexact
p774
aVright
p775
aVminute
p776
aVto
p777
aVsell
p778
ag21
aVyou
p779
aVwan
p780
aVna
p781
aVdo
p782
aVit
p783
ag151
aaa(lp784
Vjerry
p785
a(lp786
Vboy
p787
ag181
aVdo
p788
aVn't
p789
aVknow
p790
ag21
aaa(lp791
Velaine
p792
a(lp793
g181
aV'd
p794
aVdo
p795
aVit
p796
aVbut
p797
ag181
aVdo
p798
aVn't
p799
aVhave
p800
aVany
p801
aVmoney
p802
ag21
aaa(lp803
Vjerry
p804
a(lp805
Vwhat
p806
aVkind
p807
aVof
p808
aVcompany
p809
aVis
p810
aVit
p811
ag151
aaa(lp812
Vgeorge
p813
a(lp814
Vit
p815
aV's
p816
aVsendrax
p817
ag21
aVthey
p818
aV've
p819
aVgot
p820
aVsome
p821
aVnew
p822
aVkind
p823
aVof
p824
aVtechnique
p825
aVfor
p826
aVtelevising
p827
aVopera
p828
ag21
aaa(lp829
Velaine
p830
a(lp831
Vtelevising
p832
aVopera
p833
ag151
aaa(lp834
Vgeorge
p835
a(lp836
Vsome
p837
aVsort
p838
aVof
p839
aVelectronic
p840
aVthingy
p841
ag21
aaa(lp842
Vjerry
p843
a(lp844
Vwell
p845
ag30
aVhow
p846
aVmuch
p847
aVare
p848
aVyou
p849
aVgoing
p850
aVto
p851
aVinvest
p852
ag151
aaa(lp853
Vgeorge
p854
a(lp855
Vfive
p856
aVthousand
p857
aVten
p858
ag21
aVten
p859
aVthousand
p860
aVfive
p861
aVthousand
p862
ag21
aaa(lp863
Vjerry
p864
a(lp865
Vboy
p866
aaa(lp867
Vgeorge
p868
a(lp869
Vc'mon
p870
ag21
aVwilkinson
p871
aV's
p872
aVgot
p873
aVmillions
p874
aVinvested
p875
aVin
p876
aVthis
p877
aVstock
p878
ag21
aVit
p879
aV's
p880
aVgone
p881
aVup
p882
aVthree
p883
aVpoints
p884
aVsince
p885
ag181
aV've
p886
aVbeen
p887
aVwatching
p888
aVit
p889
ag21
aaa(lp890
Vjerry
p891
a(lp892
Vwhat
p893
aVif
p894
ag181
aVlose
p895
aVit
p896
ag151
aaa(lp897
Vgeorge
p898
a(lp899
Vc'mon
p900
ag30
aVgo
p901
aVfor
p902
aVtwenty-five
p903
aVhundred
p904
ag21
aVwe
p905
aV'll
p906
aVdo
p907
aVit
p908
aVtogether
p909
ag21
aVcome
p910
aVon
p911
ag30
aVcome
p912
aVon
p913
ag21
aVwe
p914
aV're
p915
aVin
p916
aVit
p917
aVtogether
p918
ag21
aaa(lp919
Vjerry
p920
a(lp921
Vall
p922
aVright
p923
aV--
p924
aVtwenty-five
p925
aVhundred
p926
ag21
aaa(lp927
Vgeorge
p928
a(lp929
Vthat
p930
aV's
p931
aVit
p932
ag21
aaa(lp933
Vwaitress
p934
a(lp935
Vyeah
p936
ag30
aVcan
p937
ag181
aVtake
p938
aVyour
p939
aVorder
p940
ag151
aaa(lp941
Vgeorge
p942
a(lp943
Vcheck
p944
aVthe
p945
aVraiser
p946
ag21
aaa(lp947
Vjerry
p948
a(lp949
Vmy
p950
aVbet
p951
ag151
aVall
p952
aVright
p953
ag181
aV'll
p954
aVopen
p955
aVwith
p956
ag49
aVtuna
p957
aVsandwich
p958
ag21
aaa(lp959
Velaine
p960
a(lp961
Vtuna
p962
ag151
aaa(lp963
Vjerry
p964
a(lp965
Voh
p966
ag30
aVthe
p967
aVdolphin
p968
aVthing
p969
ag151
aaa(lp970
Velaine
p971
a(lp972
Vthey
p973
aV're
p974
aVdying
p975
aVin
p976
aVthe
p977
aVnets
p978
ag21
aaa(lp979
Vjerry
p980
a(lp981
Vooohhh
p982
aVyou
p983
aVknow
p984
ag30
aVthe
p985
aVwhole
p986
aVconcept
p987
aVof
p988
aVlunch
p989
aVis
p990
aVbased
p991
aVon
p992
aVtuna
p993
ag21
aaa(lp994
Velaine
p995
a(lp996
Vjerry
p997
ag30
aVca
p998
aVn't
p999
aVyou
p1000
aVincorporate
p1001
aVone
p1002
aVunselfish
p1003
aVact
p1004
aVin
p1005
aVyour
p1006
aVdaily
p1007
aVroutine
p1008
ag151
aaa(lp1009
Vjerry
p1010
a(lp1011
Vhey
p1012
ag30
aVwhen
p1013
ag181
aV'm
p1014
aVdriving
p1015
ag30
ag181
aVlet
p1016
aVpeople
p1017
aVin
p1018
aVahead
p1019
aVof
p1020
aVme
p1021
aVall
p1022
aVthe
p1023
aVtime
p1024
ag21
ag181
aV'm
p1025
aValways
p1026
aVwaving
p1027
aVeverybody
p1028
aVin
p1029
ag21
aVgo
p1030
aVahead
p1031
ag30
aVgo
p1032
aVahead
p1033
ag30
aVgo
p1034
aVahead
p1035
ag21
aValright
p1036
aValright
p1037
ag21
ag181
aV'll
p1038
aVhave
p1039
ag49
aVchicken
p1040
aVsalad
p1041
ag21
aaa(lp1042
Velaine
p1043
a(lp1044
Vand
p1045
ag181
aV'm
p1046
aVgoing
p1047
aVto
p1048
aVhave
p1049
aVan
p1050
aVenglish
p1051
aVmuffin
p1052
aVwith
p1053
aVmargarine
p1054
aVon
p1055
aVthe
p1056
aVside
p1057
aVand
p1058
ag49
aVcup
p1059
aVof
p1060
aVcoffee
p1061
ag21
aaa(lp1062
Vwaitress
p1063
a(lp1064
Vokay
p1065
ag21
aVwhat
p1066
aVabout
p1067
aVyou
p1068
ag151
aaa(lp1069
Vgeorge
p1070
a(lp1071
g181
aV'll
p1072
aVhave
p1073
aVthe
p1074
aVtuna
p1075
ag21
aaa(lp1076
Vjerry
p1077
a(lp1078
g181
aVhave
p1079
aVto
p1080
aVsay
p1081
ag21
aVthose
p1082
aVpeople
p1083
aVtalking
p1084
aVbehind
p1085
aVus
p1086
aVreally
p1087
aVruined
p1088
aVthat
p1089
aVmovie
p1090
aVfor
p1091
aVme
p1092
ag21
aaa(lp1093
Vvanessa
p1094
a(lp1095
Vwhy
p1096
aVdid
p1097
aVn't
p1098
aVyou
p1099
aVdo
p1100
aVsomething
p1101
ag151
aaa(lp1102
Vjerry
p1103
a(lp1104
Vwhat
p1105
aVdo
p1106
aVyou
p1107
aVwant
p1108
aVme
p1109
aVto
p1110
aVdo
p1111
ag151
ag181
aVhave
p1112
aVthe
p1113
aVguy
p1114
aVthe
p1115
aVhalf-turn
p1116
ag21
aVthen
p1117
ag181
aVhave
p1118
aVhim
p1119
aVthe
p1120
aVfull-turn
p1121
aVwith
p1122
aVthe
p1123
aVeye
p1124
aVroll
p1125
ag94
ag181
aVmean
p1126
ag30
aVbeyond
p1127
aVthat
p1128
ag30
ag181
aV'm
p1129
aVrisking
p1130
ag49
aVpunch
p1131
aVin
p1132
aVthe
p1133
aVmouth
p1134
aVexcuse
p1135
aVme
p1136
ag30
aVdo
p1137
aVyou
p1138
aVhave
p1139
aVthese
p1140
aVin
p1141
aVthe
p1142
aVpuffs
p1143
ag151
aVstock
p1144
aVboy
p1145
aVno
p1146
aVpuffs
p1147
ag21
aVjust
p1148
aVflakes
p1149
ag21
aaa(lp1150
Vjerry
p1151
a(lp1152
Vhave
p1153
aVyou
p1154
aVthought
p1155
aVany
p1156
aVmore
p1157
aVabout
p1158
aVthat
p1159
aVtrip
p1160
ag151
aaa(lp1161
Vvanessa
p1162
a(lp1163
Vyeah
p1164
ag30
ag181
aV've
p1165
aVbeen
p1166
aVthinking
p1167
aVabout
p1168
aVit
p1169
ag21
aaa(lp1170
Vjerry
p1171
a(lp1172
Vyou
p1173
aVknow
p1174
ag30
aVmy
p1175
aVfriend
p1176
aVtold
p1177
aVme
p1178
aVabout
p1179
aVthis
p1180
aVgreat
p1181
aVplace
p1182
aVin
p1183
aVvermont
p1184
ag21
aaa(lp1185
Vvanessa
p1186
a(lp1187
g181
aVdo
p1188
aVn't
p1189
aVknow
p1190
ag21
ag181
aVjust
p1191
aVworry
p1192
aVabout
p1193
aVtrips
p1194
aVlike
p1195
aVthis
p1196
aVit
p1197
aV's
p1198
ag49
aVlot
p1199
aVof
p1200
aVpressure
p1201
ag21
aaa(lp1202
Vjerry
p1203
a(lp1204
Vit
p1205
aV's
p1206
aVgreat
p1207
ag94
aVit
p1208
aVspeeds
p1209
aVup
p1210
aVthe
p1211
aVintimacy
p1212
aVlevel
p1213
ag21
aVit
p1214
aV's
p1215
aVlike
p1216
aVputting
p1217
aVthe
p1218
aVrelationship
p1219
aVin
p1220
ag49
aVtime
p1221
aVcompressor
p1222
ag21
aVwhere
p1223
aVwe
p1224
aVwould
p1225
aVbe
p1226
aVsix
p1227
aVmonths
p1228
aVfrom
p1229
aVnow
p1230
aVwe
p1231
aVaccomplish
p1232
aVthree
p1233
aVdays
p1234
ag21
aaa(lp1235
Vvanessa
p1236
a(lp1237
Voh
p1238
ag30
aVso
p1239
aVyou
p1240
aVwant
p1241
aVto
p1242
aVmove
p1243
aVour
p1244
aVrelationship
p1245
aVinto
p1246
aVphase
p1247
aVtwo
p1248
ag151
aaa(lp1249
Vjerry
p1250
a(lp1251
Vexactly
p1252
ag21
ag181
aVlove
p1253
aVphase
p1254
aVtwo
p1255
ag21
aVextra
p1256
aVtoothbrushes
p1257
ag30
aVincreased
p1258
aVcall
p1259
aVfrequency
p1260
ag30
aVwalking
p1261
aVaround
p1262
aVnaked
p1263
aVyou
p1264
aVknow
p1265
ag30
aVthe
p1266
aVpresents
p1267
aVget
p1268
ag49
aVlot
p1269
aVbetter
p1270
aVin
p1271
aVphase
p1272
aVtwo
p1273
ag21
aaa(lp1274
Vvanessa
p1275
a(lp1276
Vreally
p1277
ag151
aVcould
p1278
aVwe
p1279
aVgo
p1280
aVfishing
p1281
aVup
p1282
aVthere
p1283
ag151
aaa(lp1284
Vjerry
p1285
a(lp1286
Vyeah
p1287
ag21
aVwe
p1288
aVcan
p1289
aVfish
p1290
ag21
aVwhat
p1291
ag151
aVblues
p1292
ag30
aVcarp
p1293
ag30
aVmarlin
p1294
ag151
aaa(lp1295
Vvanessa
p1296
a(lp1297
Vthey
p1298
aVhave
p1299
aVmarlin
p1300
aVin
p1301
aVvermont
p1302
ag151
aaa(lp1303
Vjerry
p1304
a(lp1305
Voh
p1306
ag30
aVbig
p1307
aVfighting
p1308
aVmarlin
p1309
ag21
aaa(lp1310
Vvanessa
p1311
a(lp1312
Vjerry
p1313
ag30
aVthe
p1314
aVstock
p1315
aVis
p1316
aVthe
p1317
aVsame
p1318
aVas
p1319
aVwhen
p1320
aVyou
p1321
aVchecked
p1322
aVit
p1323
aVearlier
p1324
ag21
aVthere
p1325
aVare
p1326
aVno
p1327
aVchanges
p1328
aVafter
p1329
aVthe
p1330
aVmarket
p1331
aVcloses
p1332
ag21
aVthe
p1333
aVstock
p1334
aVis
p1335
aVstill
p1336
aVdown
p1337
ag21
aaa(lp1338
Vjerry
p1339
a(lp1340
g181
aVknow
p1341
ag21
aVbut
p1342
aVthis
p1343
aVis
p1344
ag49
aVdifferent
p1345
aVpaper
p1346
ag21
ag181
aVthought
p1347
aVmaybe
p1348
aVthey
p1349
aVhave
p1350
ag30
aVuh
p1351
ag30
aVdifferent
p1352
aVsources
p1353
ag21
aaa(lp1354
Vjerry
p1355
a(lp1356
Vis
p1357
aVthat
p1358
aVmy
p1359
aVpaper
p1360
ag151
aaa(lp1361
Vkramer
p1362
a(lp1363
Vbad
p1364
aVnews
p1365
ag30
aVmy
p1366
aVfriend
p1367
ag21
aaa(lp1368
Vjerry
p1369
a(lp1370
Vwhat
p1371
ag151
aVwhat
p1372
aVnews
p1373
ag151
aaa(lp1374
Vkramer
p1375
a(lp1376
Vsendrax
p1377
ag21
aaa(lp1378
Vjerry
p1379
a(lp1380
Voh
p1381
ag30
aVc'mon
p1382
ag94
aVit
p1383
aV's
p1384
aVdown
p1385
aVagain
p1386
ag151
ag94
aaa(lp1387
Vkramer
p1388
a(lp1389
Vtwo
p1390
aVand
p1391
ag49
aVhalf
p1392
aVpoints
p1393
ag21
aaa(lp1394
Vjerry
p1395
a(lp1396
Voh
p1397
ag30
ag181
aVca
p1398
aVn't
p1399
aVbelieve
p1400
aVit
p1401
ag21
aVlet
p1402
aVme
p1403
aVsee
p1404
aVthat
p1405
ag21
aVthat
p1406
aV's
p1407
aVfour
p1408
aVand
p1409
ag49
aVhalf
p1410
aVpoints
p1411
aVin
p1412
aVthree
p1413
aVdays
p1414
ag94
aVthat
p1415
aV's
p1416
aValmost
p1417
aVhalf
p1418
aVmy
p1419
aVmoney
p1420
ag94
aaa(lp1421
Vkramer
p1422
a(lp1423
Vhey
p1424
ag30
ag181
aVtold
p1425
aVya
p1426
ag21
aaa(lp1427
Vjerry
p1428
a(lp1429
Vyeah
p1430
ag30
aVyou
p1431
aVtold
p1432
aVme
p1433
ag21
aaa(lp1434
Vkramer
p1435
a(lp1436
Vit
p1437
aV's
p1438
aVall
p1439
aVmanipulated
p1440
aVwith
p1441
aVjunk
p1442
aVbonds
p1443
ag21
aVyou
p1444
aVca
p1445
aVn't
p1446
aVwin
p1447
ag21
aaa(lp1448
Vjerry
p1449
a(lp1450
Vthere
p1451
aV's
p1452
aVone
p1453
aVthing
p1454
ag181
aVdo
p1455
aVn't
p1456
aVunderstand
p1457
ag21
aVwhy
p1458
aVdoes
p1459
aVit
p1460
aVplease
p1461
aVyou
p1462
ag151
aVgeorge
p1463
aVcostanza
p1464
ag30
aVplease
p1465
ag21
aaa(lp1466
Vkramer
p1467
a(lp1468
Vhey
p1469
ag30
ag181
aVdo
p1470
aVn't
p1471
aVcare
p1472
ag21
ag181
aV'm
p1473
aVjust
p1474
aVtelling
p1475
aVyou
p1476
aVto
p1477
aVget
p1478
aVrid
p1479
aVof
p1480
aVthat
p1481
aVstock
p1482
ag30
aVnow
p1483
ag94
aaa(lp1484
Vjerry
p1485
a(lp1486
Vgeorge
p1487
ag30
aVwhat
p1488
aV's
p1489
aVgoing
p1490
aVon
p1491
ag151
ag94
aaa(lp1492
Vkramer
p1493
a(lp1494
Vsell
p1495
aVit
p1496
ag30
aVjust
p1497
aVsay
p1498
ag181
aV'm
p1499
aVselling
p1500
ag94
aaa(lp1501
Vjerry
p1502
a(lp1503
Vwell
p1504
ag30
aVwhere
p1505
aVis
p1506
aVthe
p1507
aVguy
p1508
ag151
ag94
aVnothing
p1509
ag151
aValmost
p1510
aVhalf
p1511
aVmy
p1512
aVmoney
p1513
aV's
p1514
aVgone
p1515
aVwell
p1516
ag30
aVcall
p1517
aVme
p1518
aVright
p1519
aVback
p1520
ag21
aVnobody
p1521
aVcan
p1522
aVreach
p1523
aVwilkinson
p1524
ag21
aVhe
p1525
aVhas
p1526
aVn't
p1527
aVbeen
p1528
aVhome
p1529
aVor
p1530
aVin
p1531
aVhis
p1532
aVoffice
p1533
aVin
p1534
aVthe
p1535
aVpast
p1536
aVthree
p1537
aVdays
p1538
ag94
aaa(lp1539
Vkramer
p1540
a(lp1541
Vyou
p1542
aVknow
p1543
ag30
ag181
aVca
p1544
aVn't
p1545
aVbelieve
p1546
aVyou
p1547
aVput
p1548
aVyour
p1549
aVmoney
p1550
aVin
p1551
aVthat
p1552
aVsendrax
p1553
ag21
aVand
p1554
aVyou
p1555
aVcould
p1556
aV've
p1557
aVinvested
p1558
aVin
p1559
aVmy
p1560
aVroll-out
p1561
aVtie
p1562
aVdispenser
p1563
ag21
aaa(lp1564
Vjerry
p1565
a(lp1566
Vroll-out
p1567
aVtie
p1568
aVdispenser
p1569
ag151
aVwhat
p1570
aVwas
p1571
aVthat
p1572
aVone
p1573
ag151
aaa(lp1574
Vkramer
p1575
a(lp1576
Vokay
p1577
ag30
aVyou
p1578
aV're
p1579
aVin
p1580
ag49
aVrestaurant
p1581
ag21
aVyou
p1582
aV've
p1583
aVgot
p1584
ag49
aVvery
p1585
aVbig
p1586
aVmeeting
p1587
aVcoming
p1588
aVup
p1589
ag21
aaa(lp1590
Vjerry
p1591
a(lp1592
Vokay
p1593
ag21
aaa(lp1594
Vkramer
p1595
a(lp1596
Vyou
p1597
aVjust
p1598
aVtear
p1599
aVit
p1600
aVoff
p1601
ag30
aVand
p1602
aVyou
p1603
aVgot
p1604
ag49
aVnew
p1605
aVone
p1606
aVright
p1607
aVhere
p1608
ag21
aVthen
p1609
aVyou
p1610
aV're
p1611
aVgone
p1612
ag21
aaa(lp1613
Vjerry
p1614
a(lp1615
Vyou
p1616
aV're
p1617
aVgone
p1618
aValright
p1619
ag21
aaa(lp1620
Vkramer
p1621
a(lp1622
Vhey
p1623
ag30
aVwhere
p1624
aVwhere
p1625
aVare
p1626
aVyou
p1627
aVgoing
p1628
ag151
aVyou
p1629
aVgon
p1630
aVna
p1631
aVtake
p1632
ag49
aVtrip
p1633
ag151
aVthe
p1634
aVmap
p1635
aVwhat
p1636
aaa(lp1637
Vjerry
p1638
a(lp1639
Vyeah
p1640
ag30
ag181
aV'm
p1641
aVgoing
p1642
aVto
p1643
aVvermont
p1644
aVwith
p1645
aVvanessa
p1646
aVfor
p1647
ag49
aVfew
p1648
aVdays
p1649
ag21
aaa(lp1650
Vkramer
p1651
a(lp1652
Vhey
p1653
ag30
aVcan
p1654
ag181
aVuse
p1655
aVyour
p1656
aVplace
p1657
ag151
ag181
aVgot
p1658
ag49
aVbunch
p1659
aVof
p1660
aVfriends
p1661
aVcoming
p1662
aVover
p1663
aVthis
p1664
aVweekend
p1665
ag21
aaa(lp1666
Vjerry
p1667
a(lp1668
Vwhat
p1669
aVfriends
p1670
ag151
aaa(lp1671
Vkramer
p1672
a(lp1673
Vwell
p1674
ag30
aVit
p1675
aV's
p1676
aVjust
p1677
aVsome
p1678
aVpeople
p1679
ag181
aVmet
p1680
aVat
p1681
ag49
aVrock
p1682
aVconcert
p1683
ag21
aaa(lp1684
Vkramer
p1685
a(lp1686
Vdo
p1687
aVyou
p1688
aVmind
p1689
aVif
p1690
aVthey
p1691
aVuse
p1692
aVyour
p1693
aVbed
p1694
ag151
aV'cause
p1695
aVthey
p1696
aV're
p1697
aVreally
p1698
aVgood
p1699
aVpeople
p1700
ag30
aVjerry
p1701
ag21
ag181
aV'm
p1702
aVtelling
p1703
aVyou
p1704
ag21
aVyou
p1705
aVknow
p1706
ag30
aVthey
p1707
aV're
p1708
aVanarchists
p1709
ag21
aVthey
p1710
aV're
p1711
aVthey
p1712
aV're
p1713
aVthey
p1714
aV're
p1715
aVhuge
p1716
ag21
aaa(lp1717
Vjerry
p1718
a(lp1719
Vgeorge
p1720
aVwhat
p1721
ag151
ag94
aVyou
p1722
aV're
p1723
aVkidding
p1724
aVwell
p1725
ag30
aVwhat
p1726
aV's
p1727
aVwrong
p1728
ag151
aVso
p1729
ag30
aVwhat
p1730
aVare
p1731
aVwe
p1732
aVgon
p1733
aVna
p1734
aVdo
p1735
ag151
aVgreat
p1736
ag94
aValright
p1737
ag30
ag181
aV'll
p1738
aVspeak
p1739
aVto
p1740
aVyou
p1741
aVlater
p1742
ag21
aVwilkinson
p1743
ag30
aVthe
p1744
aVguy
p1745
aVwho
p1746
aV's
p1747
aVsupposed
p1748
aVto
p1749
aVtell
p1750
aVus
p1751
aVwhen
p1752
aVto
p1753
aVsell
p1754
aVthe
p1755
aVstock
p1756
ag30
aVhe
p1757
aV's
p1758
aVin
p1759
aVthe
p1760
aVhospital
p1761
ag21
aaa(lp1762
Vjerry
p1763
a(lp1764
Vso
p1765
aVyou
p1766
aVdo
p1767
aVn't
p1768
aVknow
p1769
aVwhat
p1770
aV's
p1771
aVwrong
p1772
aVwith
p1773
aVhim
p1774
ag151
aaa(lp1775
Vgeorge
p1776
a(lp1777
Vall
p1778
aVsimons
p1779
aVwas
p1780
aVable
p1781
aVto
p1782
aVfind
p1783
aVout
p1784
aVis
p1785
aVthat
p1786
aVhe
p1787
aV's
p1788
aVin
p1789
aVthe
p1790
aVhospital
p1791
ag21
aaa(lp1792
Vjerry
p1793
a(lp1794
Vokay
p1795
ag30
aVfine
p1796
ag21
aVhas
p1797
aVsimons
p1798
aVbeen
p1799
aVin
p1800
aVtouch
p1801
aVwith
p1802
aVhim
p1803
ag151
aaa(lp1804
Vgeorge
p1805
a(lp1806
Vof
p1807
aVcourse
p1808
aVhe
p1809
aV's
p1810
aVbeen
p1811
aVin
p1812
aVtouch
p1813
aVwith
p1814
aVhim
p1815
ag21
aVhe
p1816
aV's
p1817
aVleft
p1818
aVtwo
p1819
aVmessages
p1820
ag21
aVhe
p1821
aVjust
p1822
aVhas
p1823
aVn't
p1824
aVheard
p1825
aVback
p1826
aVyet
p1827
ag30
aVthat
p1828
aV's
p1829
aVall
p1830
ag21
aaa(lp1831
Vjerry
p1832
a(lp1833
Vwell
p1834
ag30
aVthis
p1835
aVis
p1836
aVit
p1837
ag21
ag181
aV'm
p1838
aVselling
p1839
ag21
aaa(lp1840
Vgeorge
p1841
a(lp1842
Vjust
p1843
aVgive
p1844
aVit
p1845
ag49
aVlittle
p1846
aVmore
p1847
aVtime
p1848
ag21
aaa(lp1849
Vjerry
p1850
a(lp1851
g181
aVnever
p1852
aVshould
p1853
aV've
p1854
aVgotten
p1855
aVinvolved
p1856
aVin
p1857
aVthis
p1858
ag21
ag181
aV'm
p1859
ag49
aVnervous
p1860
aVwreck
p1861
ag21
ag181
aVm
p1862
aVnot
p1863
aVcut
p1864
aVout
p1865
aVfor
p1866
aVinvesting
p1867
ag21
aaa(lp1868
Vgeorge
p1869
a(lp1870
Valright
p1871
ag30
aValright
p1872
ag21
aVthat
p1873
aV's
p1874
aVit
p1875
ag21
ag181
aV'm
p1876
aVgon
p1877
aVna
p1878
aVgo
p1879
aVdown
p1880
aVthere
p1881
ag21
aaa(lp1882
Vjerry
p1883
a(lp1884
Vwhere
p1885
ag151
aaa(lp1886
Vgeorge
p1887
a(lp1888
Vto
p1889
aVthe
p1890
aVhospital
p1891
ag21
aaa(lp1892
Vjerry
p1893
a(lp1894
Vthe
p1895
aVhospital
p1896
ag151
aaa(lp1897
Vgeorge
p1898
a(lp1899
g181
aV'm
p1900
aVgoing
p1901
aVto
p1902
aVfind
p1903
aVout
p1904
aVwhat
p1905
aV's
p1906
aVgoing
p1907
aVon
p1908
ag21
aValright
p1909
ag151
aaa(lp1910
Vjerry
p1911
a(lp1912
Vare
p1913
aVyou
p1914
aVnuts
p1915
ag151
aVyou
p1916
aVdo
p1917
aVn't
p1918
aVeven
p1919
aVknow
p1920
aVthey
p1921
aVguy
p1922
ag21
aaa(lp1923
Vgeorge
p1924
a(lp1925
Vso
p1926
aVwhat
p1927
ag151
ag181
aV'll
p1928
aVstart
p1929
aVtalking
p1930
aVto
p1931
aVhim
p1932
ag30
aVyou
p1933
aVknow
p1934
ag30
aVcasual
p1935
ag30
aVand
p1936
ag181
aV'll
p1937
aVwork
p1938
aVmy
p1939
aVway
p1940
aVaround
p1941
aVto
p1942
aVit
p1943
ag21
aaa(lp1944
Vjerry
p1945
a(lp1946
Vwhat
p1947
aVif
p1948
aVhe
p1949
aV's
p1950
aVin
p1951
aVan
p1952
aViron
p1953
aVlung
p1954
aVor
p1955
aVsomething
p1956
ag151
aVwhat
p1957
aVare
p1958
aVyou
p1959
aVgon
p1960
aVna
p1961
aVdo
p1962
ag151
aVhow
p1963
aVyou
p1964
aVfeeling
p1965
ag30
aVmr.
p1966
aVwilkinson
p1967
ag151
aVby
p1968
aVthe
p1969
aVway
p1970
ag30
aVwhat
p1971
aV's
p1972
aVhappening
p1973
aVwith
p1974
aVsendrax
p1975
ag151
aaa(lp1976
Vgeorge
p1977
a(lp1978
Vmaybe
p1979
aVhe
p1980
aV's
p1981
aVresting
p1982
ag21
aaa(lp1983
Vjerry
p1984
a(lp1985
Vwho
p1986
aVgoes
p1987
aVto
p1988
aVthe
p1989
aVhospital
p1990
aVto
p1991
aVrest
p1992
ag151
aaa(lp1993
Vgeorge
p1994
a(lp1995
Vwhat
p1996
aVare
p1997
aVyou
p1998
ag30
ag49
aVdoctor
p1999
ag151
aaa(lp2000
Vjerry
p2001
a(lp2002
Vokay
p2003
ag30
aVfine
p2004
ag30
aVfine
p2005
ag21
aVwhen
p2006
aVare
p2007
aVyou
p2008
aVgoing
p2009
aVdown
p2010
aVthere
p2011
ag151
aaa(lp2012
Vgeorge
p2013
a(lp2014
Vtoday
p2015
ag21
ag181
aV'm
p2016
aVgoing
p2017
aVtoday
p2018
ag21
aVjust
p2019
aVdo
p2020
aVn't
p2021
aVdo
p2022
aVanything
p2023
aVuntil
p2024
aVyou
p2025
aVhear
p2026
aVfrom
p2027
aVme
p2028
ag21
aaa(lp2029
Vjerry
p2030
a(lp2031
Valright
p2032
ag21
aaa(lp2033
Vgeorge
p2034
a(lp2035
Vboy
p2036
ag30
ag181
aVhave
p2037
aVto
p2038
aVget
p2039
aVto
p2040
ag49
aVbathroom
p2041
ag21
aVdry
p2042
aVcleaner
p2043
aVmay
p2044
ag181
aVhelp
p2045
aVyou
p2046
ag151
aaa(lp2047
Vjerry
p2048
a(lp2049
Vyeah
p2050
ag21
ag181
aVpicked
p2051
aVup
p2052
aVthis
p2053
aVshirt
p2054
aVhere
p2055
aVyesterday
p2056
ag21
aVit
p2057
aV's
p2058
aVcompletely
p2059
aVshrunk
p2060
ag21
aVthere
p2061
aV's
p2062
aVabsolutely
p2063
aVno
p2064
aVway
p2065
ag181
aVcan
p2066
aVwear
p2067
aVit
p2068
ag21
aVdry
p2069
aVcleaner
p2070
aVwhen
p2071
aVdid
p2072
aVyou
p2073
aVbring
p2074
aVit
p2075
aVin
p2076
ag151
aaa(lp2077
Vjerry
p2078
a(lp2079
Vwhat
p2080
aV's
p2081
aVthe
p2082
aVdifference
p2083
ag151
aVlook
p2084
aVat
p2085
aVit
p2086
ag94
aVdo
p2087
aVyou
p2088
aVsee
p2089
aVthe
p2090
aVsize
p2091
aVof
p2092
aVthis
p2093
aVshirt
p2094
ag151
ag94
aVdry
p2095
aVcleaner
p2096
aVyou
p2097
aVgot
p2098
ag49
aVreceipt
p2099
ag151
aaa(lp2100
Vjerry
p2101
a(lp2102
g181
aVca
p2103
aVn't
p2104
aVfind
p2105
aVthe
p2106
aVreceipt
p2107
ag21
aVdry
p2108
aVcleaner
p2109
aVyou
p2110
aVshould
p2111
aVget
p2112
aVthe
p2113
aVreceipt
p2114
ag21
aaa(lp2115
Vjerry
p2116
a(lp2117
Vlook
p2118
ag30
aVforget
p2119
aVabout
p2120
aVthe
p2121
aVreceipt
p2122
ag30
aVall
p2123
aVright
p2124
ag151
aVeven
p2125
aVif
p2126
ag181
aVhad
p2127
aVthe
p2128
aVreceipt-
p2129
aVlook
p2130
aVat
p2131
aVit
p2132
ag94
aVit
p2133
aV's
p2134
ag49
aVhand
p2135
aVpuppet
p2136
ag21
aVwhat
p2137
aVam
p2138
ag181
aVgon
p2139
aVna
p2140
aVdo
p2141
aVwith
p2142
aVthis
p2143
ag151
ag94
aVdry
p2144
aVcleaner
p2145
aVyes
p2146
ag30
aVbut
p2147
aVhow
p2148
aVdo
p2149
ag181
aVknow
p2150
aVwe
p2151
aVdid
p2152
aVthe
p2153
aVshirt
p2154
ag151
aaa(lp2155
Vjerry
p2156
a(lp2157
Vwhat
p2158
aVdo
p2159
aVyou
p2160
aVthink
p2161
aVthis
p2162
aVis
p2163
ag49
aVlittle
p2164
aVscam
p2165
ag181
aVhave
p2166
ag151
ag181
aVtake
p2167
aVthis
p2168
aVtiny
p2169
aVshirt
p2170
aVall
p2171
aVover
p2172
aVthe
p2173
aVcity
p2174
aVconning
p2175
aVdry
p2176
aVcleaners
p2177
aVout
p2178
aVof
p2179
aVmoney
p2180
ag151
ag94
aVin
p2181
aVfact
p2182
ag30
aVforget
p2183
aVthe
p2184
aVmoney
p2185
ag21
ag181
aVdo
p2186
aVn't
p2187
aVeven
p2188
aVwant
p2189
aVthe
p2190
aVmoney
p2191
ag21
ag181
aVjust
p2192
aVonce
p2193
ag30
ag181
aVwould
p2194
aVlike
p2195
aVto
p2196
aVhear
p2197
ag49
aVdry
p2198
aVcleaner
p2199
aVadmit
p2200
aVthat
p2201
aVsomething
p2202
aVwas
p2203
aVtheir
p2204
aVfault
p2205
ag21
aVthat
p2206
aV's
p2207
aVwhat
p2208
ag181
aVwant
p2209
ag21
ag181
aVwant
p2210
aVan
p2211
aVadmission
p2212
aVof
p2213
aVguilt
p2214
ag21
aVdry
p2215
aVcleaner
p2216
aVmaybe
p2217
aVyou
p2218
aVasked
p2219
aVfor
p2220
aVit
p2221
aVto
p2222
aVbe
p2223
aVwashed
p2224
ag151
aaa(lp2225
Vjerry
p2226
a(lp2227
Vno
p2228
aVdry-cleaned
p2229
ag21
aVdry
p2230
aVcleaner
p2231
aVlet
p2232
aVme
p2233
aVexplain
p2234
aVto
p2235
aVyou
p2236
aVsomething
p2237
ag21
aVokay
p2238
ag151
aVwith
p2239
aVcertain
p2240
aVtypes
p2241
aVof
p2242
aVfabrics
p2243
ag30
aVdifferent
p2244
aVchemicals
p2245
aVcan
p2246
aVreact
p2247
ag30
aVcausing
p2248
aaa(lp2249
Vjerry
p2250
a(lp2251
Vyou
p2252
aVshrunk
p2253
aVit
p2254
ag94
aVyou
p2255
aVknow
p2256
aVyou
p2257
aVshrunk
p2258
aVit
p2259
ag94
aVjust
p2260
aVtell
p2261
aVme
p2262
aVthat
p2263
aVyou
p2264
aVshrunk
p2265
aVit
p2266
ag94
aVdry
p2267
aVcleaner
p2268
ag181
aVshrunk
p2269
aVit
p2270
ag21
aaa(lp2271
Vjerry
p2272
a(lp2273
g181
aVthink
p2274
aVthe
p2275
aVonly
p2276
aVreason
p2277
aVwe
p2278
aVgo
p2279
aVto
p2280
aVthe
p2281
aVdry
p2282
aVcleaner
p2283
aVis
p2284
aVso
p2285
ag181
aVcan
p2286
aVsay
p2287
aVto
p2288
aVthe
p2289
aVdry
p2290
aVcleaner
p2291
ag30
aVwell
p2292
ag30
aVit
p2293
aV's
p2294
aVruined
p2295
ag21
aVand
p2296
aVof
p2297
aVcourse
p2298
ag30
aVthe
p2299
aVdry
p2300
aVcleaner
p2301
aVcan
p2302
aVrespond
p2303
ag30
aVit
p2304
aV's
p2305
aVnot
p2306
aVour
p2307
aVfault
p2308
ag21
aVwe
p2309
aV're
p2310
aVnot
p2311
aVresponsible
p2312
ag21
aVwe
p2313
aVjust
p2314
aVruin
p2315
aVthe
p2316
aVclothes
p2317
ag21
aVthat
p2318
aVends
p2319
aVour
p2320
aVlegal
p2321
aVobligation
p2322
ag21
aVyou
p2323
aVsee
p2324
ag30
aVthe
p2325
aVwhole
p2326
aVproblem
p2327
aVwith
p2328
aVdry
p2329
aVcleaning
p2330
aVis
p2331
aVthat
p2332
aVwe
p2333
aVall
p2334
aVbelieve
p2335
aVthat
p2336
aVthis
p2337
aVis
p2338
aVactually
p2339
aVpossible
p2340
ag21
aVright
p2341
ag151
aVthey
p2342
aV're
p2343
aVcleaning
p2344
aVour
p2345
aVclothes
p2346
ag128
aVbut
p2347
aVthey
p2348
aV're
p2349
aVnot
p2350
aVgetting
p2351
aVanything
p2352
aVwet
p2353
ag21
aVit
p2354
aV's
p2355
aVall
p2356
aVdry
p2357
ag21
ag181
aVknow
p2358
aVthere
p2359
aV's
p2360
aVgot
p2361
aVta
p2362
aVbe
p2363
aVsome
p2364
aVliquids
p2365
aVback
p2366
aVthere
p2367
ag30
aVsome
p2368
aVfluids
p2369
aVthat
p2370
aVthey
p2371
aV're
p2372
aVusing
p2373
ag21
aVthere
p2374
aV's
p2375
aVno
p2376
aVsuch
p2377
aVthing
p2378
aVas
p2379
aVdry
p2380
aVcleaning
p2381
ag21
aVwhen
p2382
aVyou
p2383
aVget
p2384
aVsomething
p2385
aVon
p2386
aVyour
p2387
aVshirt
p2388
ag30
aVever
p2389
aVget
p2390
aVsomething
p2391
aVon
p2392
aVyour
p2393
aVshirt
p2394
aVand
p2395
aVtry
p2396
aVto
p2397
aVget
p2398
aVit
p2399
aVoff
p2400
aVlike
p2401
aVthat
p2402
ag128
aVthat
p2403
aV's
p2404
aVdry
p2405
aVcleaning
p2406
ag21
ag181
aVdo
p2407
aVn't
p2408
aVthink
p2409
aVthat
p2410
aV's
p2411
aVwhat
p2412
aVthey
p2413
aV're
p2414
aVdoing
p2415
aVback
p2416
aVthere
p2417
ag21
aVthey
p2418
aVdo
p2419
aVn't
p2420
aVhave
p2421
aVeighty
p2422
aVguys
p2423
aVgoing
p2424
aVcome
p2425
aVon
p2426
ag30
aVhurry
p2427
aVup
p2428
ag94
aVthere
p2429
aV's
p2430
ag49
aVlot
p2431
aVof
p2432
aVshirts
p2433
aVtoday
p2434
ag21
aaa(lp2435
Vjerry
p2436
a(lp2437
Vbless
p2438
aVyou
p2439
ag21
aaa(lp2440
Velaine
p2441
a(lp2442
Vthank
p2443
aVyou
p2444
ag21
aVwhat
p2445
aVevidence
p2446
aVis
p2447
aVthere
p2448
aVthat
p2449
aVcats
p2450
aVare
p2451
aVso
p2452
aVsmart
p2453
ag30
aVanyway
p2454
ag151
aVhuh
p2455
ag151
aVwhat
p2456
aVdo
p2457
aVthey
p2458
aVdo
p2459
ag151
aVbecause
p2460
aVthey
p2461
aV're
p2462
aVclean
p2463
ag151
ag181
aVam
p2464
aVsorry
p2465
ag21
aVmy
p2466
aVuncle
p2467
aVpete
p2468
aVshowers
p2469
aVfour
p2470
aVtimes
p2471
ag49
aVday
p2472
aVand
p2473
aVhe
p2474
aVca
p2475
aVn't
p2476
aVcount
p2477
aVto
p2478
aVten
p2479
ag21
aVso
p2480
aVdo
p2481
aVn't
p2482
aVgive
p2483
aVme
p2484
aVhygiene
p2485
ag21
aaa(lp2486
Vjerry
p2487
a(lp2488
Vso
p2489
aVwhat
p2490
aVare
p2491
aVyou
p2492
aVgon
p2493
aVna
p2494
aVdo
p2495
ag151
aaa(lp2496
Velaine
p2497
a(lp2498
g181
aVdo
p2499
aVn't
p2500
aVknow
p2501
ag21
ag181
aVca
p2502
aVn't
p2503
aVthink
p2504
aVof
p2505
aVany
p2506
aVsolution
p2507
ag30
aVunless
p2508
aVof
p2509
aVcourse
p2510
aVthey
p2511
aVshould
p2512
aVmeet
p2513
aVwith
p2514
aVsome
p2515
aVunfortunate
p2516
aVaccident
p2517
ag21
aVwhat
p2518
aVdo
p2519
aVyou
p2520
aVthink
p2521
ag49
aVhit
p2522
aVman
p2523
aVwould
p2524
aVcharge
p2525
aVto
p2526
aVrub
p2527
aVout
p2528
ag49
aVcouple
p2529
aVof
p2530
aVcats
p2531
ag151
aaa(lp2532
Vjerry
p2533
a(lp2534
Vwell
p2535
ag30
aVit
p2536
aVcould
p2537
aVn't
p2538
aVbe
p2539
aVtoo
p2540
aVexpensive
p2541
ag21
aVthirteen
p2542
ag30
aVfourteen
p2543
aVbucks
p2544
ag49
aVcat
p2545
ag151
aaa(lp2546
Velaine
p2547
a(lp2548
Vwhat
p2549
aVdo
p2550
aVyou
p2551
aVthink
p2552
ag30
aVjerry
p2553
ag151
aVyou
p2554
aVwan
p2555
aVna
p2556
aVmake
p2557
aVtwenty-eight
p2558
aVbucks
p2559
ag151
aaa(lp2560
Vjerry
p2561
a(lp2562
g181
aV'm
p2563
aVno
p2564
aVcat
p2565
aVkiller
p2566
ag21
aaa(lp2567
Velaine
p2568
a(lp2569
Vhow
p2570
aVabout
p2571
aVwe
p2572
aVgo
p2573
aVover
p2574
aVthere
p2575
aVright
p2576
aVnow
p2577
aVand
p2578
aVwe
p2579
aVshave
p2580
aVthem
p2581
ag151
aaa(lp2582
Vjerry
p2583
a(lp2584
g181
aV'd
p2585
aVreally
p2586
aVlike
p2587
aVto
p2588
aVgo
p2589
ag30
aVelaine
p2590
ag21
aVbut
p2591
ag30
aVgeorge
p2592
aVis
p2593
aVcoming
p2594
aVback
p2595
aVfrom
p2596
aVthe
p2597
aVhospital
p2598
ag21
ag181
aVgot
p2599
aVta
p2600
aVwait
p2601
aVfor
p2602
aVhim
p2603
ag21
aVbut
p2604
aVotherwise
p2605
ag181
aVwould
p2606
aVdefinitely
p2607
aVgo
p2608
ag21
aaa(lp2609
Velaine
p2610
a(lp2611
Vhe
p2612
aVactually
p2613
aVwen
p2614
aVto
p2615
aVthe
p2616
aVhospital
p2617
ag151
aaa(lp2618
Vjerry
p2619
a(lp2620
Vyeah
p2621
ag21
aaa(lp2622
Velaine
p2623
a(lp2624
Voh
p2625
aVman
p2626
ag30
aVhe
p2627
aV's
p2628
aVnuts
p2629
ag21
aaa(lp2630
Vjerry
p2631
a(lp2632
Vyeah
p2633
ag30
aVhe
p2634
aV's
p2635
aVnuts
p2636
ag21
aVyou
p2637
aVwanta
p2638
aVbump
p2639
aVoff
p2640
ag49
aVcouple
p2641
aVof
p2642
aVcats
p2643
ag21
ag181
aVknow
p2644
ag30
ag181
aVknow
p2645
ag21
aVit
p2646
aV's
p2647
aVdown
p2648
aVagain
p2649
ag21
aaa(lp2650
Vkramer
p2651
a(lp2652
Vhow
p2653
aVmuch
p2654
aVare
p2655
aVyou
p2656
aVdown
p2657
aValtogether
p2658
ag151
aaa(lp2659
Vjerry
p2660
a(lp2661
g181
aVdo
p2662
aVn't
p2663
aVknow
p2664
aVfifteen
p2665
aVhundred
p2666
aVdollars
p2667
ag21
aaa(lp2668
Vkramer
p2669
a(lp2670
Vwow
p2671
ag21
aaa(lp2672
Vjerry
p2673
a(lp2674
Vyou
p2675
aVdo
p2676
aVn't
p2677
aVhave
p2678
aVto
p2679
aVsay
p2680
aVwow
p2681
ag21
ag181
aVknow
p2682
aVit
p2683
aV's
p2684
aVwow
p2685
ag21
aVand
p2686
aVthere
p2687
aV's
p2688
aVthat
p2689
aVsmile
p2690
aVagain
p2691
ag21
aVwell
p2692
ag30
aVwhat
p2693
aVis
p2694
aVthat
p2695
ag151
aaa(lp2696
Vjerry
p2697
a(lp2698
Vit
p2699
aV's
p2700
aVgeorge
p2701
ag21
aaa(lp2702
Vkramer
p2703
a(lp2704
Voh
p2705
ag30
aVlook
p2706
aVat
p2707
aVthis
p2708
aVone
p2709
aVby
p2710
aVthe
p2711
aVbus
p2712
aVstop
p2713
ag21
aVjerry
p2714
ag30
aVcome
p2715
aVhere
p2716
ag21
aVtake
p2717
ag49
aVlook
p2718
aVat
p2719
aVthis
p2720
ag21
aaa(lp2721
Vjerry
p2722
a(lp2723
g181
aVreally
p2724
aVdo
p2725
aVn't
p2726
aVneed
p2727
aVto
p2728
aVlook
p2729
ag21
aaa(lp2730
Vkramer
p2731
a(lp2732
Vwhat
p2733
ag49
aVbody
p2734
ag21
aVyeeaahh
p2735
aVthat
p2736
aV's
p2737
aVfor
p2738
aVme
p2739
ag21
aaa(lp2740
Vjerry
p2741
a(lp2742
Vyeah
p2743
ag30
aVand
p2744
aVyou
p2745
aV're
p2746
aVjust
p2747
aVwhat
p2748
aVshe
p2749
aV's
p2750
aVlooking
p2751
aVfor
p2752
aVtoo
p2753
ag128
ag49
aVstranger
p2754
aVleering
p2755
aVthrough
p2756
ag49
aVpair
p2757
aVof
p2758
aVbinoculars
p2759
aVten
p2760
aVfloors
p2761
aVup
p2762
ag21
aaa(lp2763
Vkramer
p2764
a(lp2765
g181
aV'm
p2766
aVgon
p2767
aVna
p2768
aVgo
p2769
aVdown
p2770
aVthere
p2771
aVand
p2772
aVtry
p2773
aVand
p2774
aVtalk
p2775
aVto
p2776
aVher
p2777
ag21
aaa(lp2778
Vjerry
p2779
a(lp2780
Vwhat
p2781
ag151
aVwhat
p2782
ag151
aVdid
p2783
aVyou
p2784
aVgo
p2785
aVdown
p2786
aVthere
p2787
ag151
aVdid
p2788
aVhe
p2789
aVtell
p2790
aVyou
p2791
aVwhat
p2792
aV's
p2793
aVgon
p2794
aVna
p2795
aVhappen
p2796
ag151
aVhow
p2797
aVlong
p2798
aVwere
p2799
aVyou
p2800
aVthere
p2801
ag151
aaa(lp2802
Vgeorge
p2803
a(lp2804
Vfifteen
p2805
aVseconds
p2806
ag21
aaa(lp2807
Vjerry
p2808
a(lp2809
Vyou
p2810
aVtold
p2811
aVhim
p2812
aVyou
p2813
aVknew
p2814
aVsimons
p2815
ag151
aaa(lp2816
Vgeorge
p2817
a(lp2818
Vyeah
p2819
ag30
ag181
aVmentioned
p2820
aVsimons
p2821
ag21
aVnext
p2822
aVthing
p2823
ag181
aVknow
p2824
ag128
ag181
aV'm
p2825
aVin
p2826
aVthe
p2827
aVparking
p2828
aVlot
p2829
ag21
aVperhaps
p2830
aVthey
p2831
aVhad
p2832
aVsome
p2833
aVsort
p2834
aVof
p2835
ag49
aVfalling
p2836
aVout
p2837
ag21
ag181
aV'll
p2838
aVtell
p2839
aVyou
p2840
aVone
p2841
aVthing
p2842
ag181
aVdo
p2843
aVn't
p2844
aVknow
p2845
aVwhat
p2846
aVhe
p2847
aV's
p2848
aVgot
p2849
ag21
aVbut
p2850
aVfor
p2851
ag49
aVsick
p2852
aVguy
p2853
ag30
aVhe
p2854
aV's
p2855
aVvery
p2856
aVstrong
p2857
ag21
aaa(lp2858
Vjerry
p2859
a(lp2860
Vwell
p2861
ag30
aVthat
p2862
aV's
p2863
aVit
p2864
ag21
aVlook
p2865
ag30
ag181
aV'm
p2866
aVgoing
p2867
aVto
p2868
aVvermont
p2869
ag21
ag181
aVdo
p2870
aVn't
p2871
aVwant
p2872
aVto
p2873
aVthink
p2874
aVabout
p2875
aVthis
p2876
ag21
ag181
aV'm
p2877
aVselling
p2878
ag21
aaa(lp2879
Velaine
p2880
a(lp2881
Vdid
p2882
aVn't
p2883
aVwork
p2884
ag30
aVhuh
p2885
ag151
aaa(lp2886
Vgeorge
p2887
a(lp2888
Vnot
p2889
aVquite
p2890
ag21
aaa(lp2891
Velaine
p2892
a(lp2893
Vwell
p2894
ag30
aVwhat
p2895
aVare
p2896
aVyou
p2897
aVgon
p2898
aVna
p2899
aVdo
p2900
aVabout
p2901
aVthe
p2902
aVstock
p2903
ag151
aaa(lp2904
Vgeorge
p2905
a(lp2906
g181
aV'm
p2907
aVkeeping
p2908
aVit
p2909
ag21
ag181
aV'm
p2910
aVgoing
p2911
aVdown
p2912
aVwith
p2913
aVthe
p2914
aVship
p2915
ag21
aaa(lp2916
Vjerry
p2917
a(lp2918
Vso
p2919
ag181
aVknow
p2920
aVthis
p2921
aVguy
p2922
ag21
ag181
aV'm
p2923
aVgetting
p2924
aVall
p2925
aVmy
p2926
aVsneakers
p2927
aVat
p2928
ag49
aVdiscount
p2929
aVnow
p2930
ag21
aaa(lp2931
Vvanessa
p2932
a(lp2933
g181
aVknow
p2934
ag21
aVyou
p2935
aVmentioned
p2936
aVit
p2937
ag21
aaa(lp2938
Vjerry
p2939
a(lp2940
Voh
p2941
aVyeah
p2942
ag30
aVright
p2943
ag21
aVoh
p2944
aVgod
p2945
ag21
aVget
p2946
aVme
p2947
aVout
p2948
aVof
p2949
aVhere
p2950
ag21
aVwhat
p2951
ag49
aVmistake
p2952
ag21
aVwhat
p2953
aVmade
p2954
aVme
p2955
aVthink
p2956
aVthis
p2957
aVwould
p2958
aVwork
p2959
ag151
aVand
p2960
ag181
aV've
p2961
aVstill
p2962
aVgot
p2963
aVanother
p2964
aVday
p2965
ag94
ag181
aV've
p2966
aVgot
p2967
aVnothing
p2968
aVleft
p2969
aVto
p2970
aVsay
p2971
ag21
aVwait
p2972
aVwait
p2973
aVgot
p2974
aVone
p2975
ag21
aVthat
p2976
aV's
p2977
ag49
aVnice
p2978
aVwatch
p2979
ag21
aVdo
p2980
aVyou
p2981
aVwind
p2982
aVit
p2983
ag151
aaa(lp2984
Vvanessa
p2985
a(lp2986
Vno
p2987
ag30
aVit
p2988
aV's
p2989
aVgot
p2990
ag49
aVlittle
p2991
aVbattery
p2992
ag21
aaa(lp2993
Vjerry
p2994
a(lp2995
Vwell
p2996
ag30
aVthat
p2997
aV's
p2998
aVgood
p2999
ag21
aVwell
p3000
ag30
aVthe
p3001
aVdrive
p3002
aVhome
p3003
aVshould
p3004
aVbe
p3005
ag49
aVdelight
p3006
ag21
ag181
aV'm
p3007
aVspeeding
p3008
aVthe
p3009
aVwhole
p3010
aVway
p3011
ag21
aVlet
p3012
aVthem
p3013
aVthrow
p3014
aVme
p3015
aVin
p3016
aVjail
p3017
ag21
ag181
aVdo
p3018
aVn't
p3019
aVcare
p3020
ag21
aVthat
p3021
aV'
p3022
aVthe
p3023
aVmanager
p3024
ag151
aVdo
p3025
aVyou
p3026
aVwnat
p3027
aVme
p3028
aVto
p3029
aVsee
p3030
aVif
p3031
aVwe
p3032
aVcan
p3033
aVget
p3034
aVanother
p3035
aVroom
p3036
ag151
aaa(lp3037
Vvanessa
p3038
a(lp3039
Vno
p3040
ag30
aVit
p3041
aV's
p3042
aVokay
p3043
ag21
aaa(lp3044
Vjerry
p3045
a(lp3046
Vso
p3047
ag30
ag181
aVguess
p3048
aVyou
p3049
aVdo
p3050
aVn't
p3051
aVfind
p3052
aVthe
p3053
aVseparate
p3054
aVfaucets
p3055
aVfor
p3056
aVthe
p3057
aVhot
p3058
aVand
p3059
aVcold
p3060
ag128
aVcharming
p3061
ag151
aaa(lp3062
Vvanessa
p3063
a(lp3064
Vnot
p3065
aVespecially
p3066
ag21
aaa(lp3067
Vjerry
p3068
a(lp3069
Vwell
p3070
ag30
aVwhat
p3071
aVdo
p3072
aVyou
p3073
aVwnat
p3074
aVto
p3075
aVdo
p3076
aVthis
p3077
aVafternoon
p3078
ag151
aaa(lp3079
Vvanessa
p3080
a(lp3081
Vwhat
p3082
aVcan
p3083
aVwe
p3084
aVdo
p3085
ag151
aVit
p3086
aV's
p3087
aVraining
p3088
ag21
aaa(lp3089
Vjerry
p3090
a(lp3091
Vwe
p3092
aVcold
p3093
aVplay
p3094
aVsorry
p3095
ag94
aVwe
p3096
aVcold
p3097
aVplay
p3098
aVsteal
p3099
aVthe
p3100
aVold
p3101
aVman
p3102
aV's
p3103
aVbundle
p3104
ag21
aVmaybe
p3105
ag181
aVcan
p3106
aVget
p3107
aVan
p3108
aVextension
p3109
aVcord
p3110
aVand
p3111
aVhang
p3112
aVmyself
p3113
ag21
aVwhat
p3114
aVkind
p3115
aVof
p3116
aVperfume
p3117
aVis
p3118
aVthat
p3119
aVyou
p3120
aV're
p3121
aVwearing
p3122
ag151
aaa(lp3123
Vvanessa
p3124
a(lp3125
Voh
p3126
ag30
aVyou
p3127
aV've
p3128
aVnever
p3129
aVheard
p3130
aVof
p3131
aVit
p3132
ag21
aaa(lp3133
Vjerry
p3134
a(lp3135
Vno
p3136
ag30
aVwhat
p3137
ag151
aVwhat
p3138
aVkind
p3139
aVis
p3140
aVit
p3141
ag151
aaa(lp3142
Vvanessa
p3143
a(lp3144
g181
aVca
p3145
aVn't
p3146
aVtell
p3147
aVyou
p3148
ag21
aaa(lp3149
Vjerry
p3150
a(lp3151
Vyeah
p3152
ag30
aVthat
p3153
aV's
p3154
aVnormal
p3155
ag21
aVexcuse
p3156
aVme
p3157
ag30
aVsir
p3158
ag21
aVcould
p3159
ag181
aVhave
p3160
ag49
aVlook
p3161
aVat
p3162
aVthat
p3163
aVbusiness
p3164
aVsection
p3165
ag151
aaa(lp3166
Vvanessa
p3167
a(lp3168
Vthat
p3169
aVstock
p3170
ag151
ag181
aVthought
p3171
aVyou
p3172
aVgot
p3173
aVout
p3174
aVof
p3175
aVthat
p3176
ag151
aaa(lp3177
Vjerry
p3178
a(lp3179
g181
aVdid
p3180
ag21
ag181
aV'm
p3181
aVjust
p3182
aVcurious
p3183
ag21
aVit
p3184
aV's
p3185
aVbeen
p3186
aValmost
p3187
ag49
aVweek
p3188
ag21
ag181
aVwant
p3189
aVto
p3190
aVcheck
p3191
aVit
p3192
aVout
p3193
ag21
aVsix
p3194
aVpoints
p3195
ag21
aVit
p3196
aV's
p3197
aVup
p3198
aVsix
p3199
aVpoints
p3200
ag94
aaa(lp3201
Vvanessa
p3202
a(lp3203
g181
aVtold
p3204
aVyou
p3205
aVnot
p3206
aVto
p3207
aVsell
p3208
ag21
aaa(lp3209
Vjerry
p3210
a(lp3211
Vyou
p3212
aVdid
p3213
aVnot
p3214
aVtell
p3215
aVme
p3216
aVnot
p3217
aVto
p3218
aVsell
p3219
ag21
aaa(lp3220
Vvanessa
p3221
a(lp3222
g181
aVsaid
p3223
ag30
aVthe
p3224
aVmarket
p3225
aVfluctuates
p3226
ag21
aVremember
p3227
ag151
aaa(lp3228
Vjerry
p3229
a(lp3230
Vlook
p3231
ag30
aVvanessa
p3232
ag30
aVof
p3233
aVcourse
p3234
aVthe
p3235
aVmarket
p3236
aVfluctuates
p3237
ag21
aVeverybody
p3238
aVknows
p3239
aVthat
p3240
ag21
ag181
aVjust
p3241
aVgot
p3242
aVfluctuated
p3243
aVout
p3244
aVof
p3245
aVfour
p3246
aVthousand
p3247
aVdollars
p3248
ag94
aaa(lp3249
Vvanessa
p3250
a(lp3251
Vthat
p3252
aV's
p3253
aVprobably
p3254
aVwhy
p3255
aaa(lp3256
Vjerry
p3257
a(lp3258
Vwhat
p3259
ag151
aaa(lp3260
Vvanessa
p3261
a(lp3262
Vforget
p3263
aVit
p3264
ag21
aaa(lp3265
Vjerry
p3266
a(lp3267
Vno
p3268
ag30
aVwhat
p3269
ag151
aV'that
p3270
aV's
p3271
aVprobably
p3272
aVwhy
p3273
ag3022
aaa(lp3274
Vvanessa
p3275
a(lp3276
Vthat
p3277
aV's
p3278
aVprobably
p3279
aVwhy
p3280
aVwe
p3281
aV're
p3282
aVstaying
p3283
aVhere
p3284
ag30
aVbecause
p3285
aVyou
p3286
aVlost
p3287
aVmoney
p3288
aVon
p3289
aVthe
p3290
aVstock
p3291
ag21
aaa(lp3292
Vjerry
p3293
a(lp3294
Vso
p3295
ag30
aVwhat
p3296
aVam
p3297
ag181
aVlooking
p3298
aVat
p3299
aVhere
p3300
ag151
aVtwenty=nine
p3301
aVhours
p3302
aVto
p3303
aVgo
p3304
ag21
aVwell
p3305
ag30
aVat
p3306
aVleast
p3307
ag181
aVgot
p3308
aVplenty
p3309
aVof
p3310
aVtime
p3311
aVto
p3312
aVfind
p3313
aVout
p3314
aVthe
p3315
aVname
p3316
aVof
p3317
aVthat
p3318
aVpurfume
p3319
aaa(lp3320
Vgeorge
p3321
a(lp3322
Vhave
p3323
aVsomething
p3324
aVelse
p3325
ag21
aVc'mon
p3326
ag30
aVhave
p3327
ag49
aVlittle
p3328
aVdessert
p3329
ag151
aaa(lp3330
Vjerry
p3331
a(lp3332
g181
aV'm
p3333
aVgood
p3334
ag30
aVthanks
p3335
ag21
aaa(lp3336
Vgeorge
p3337
a(lp3338
Velaine
p3339
ag30
aVget
p3340
aVsomething
p3341
ag94
aVit
p3342
aV's
p3343
aVall
p3344
aVtaken
p3345
aVcare
p3346
aVof
p3347
ag21
aaa(lp3348
Velaine
p3349
a(lp3350
g181
aV'm
p3351
aVkinda
p3352
aVfull
p3353
ag21
aaa(lp3354
Vgeorge
p3355
a(lp3356
Vso
p3357
aVdo
p3358
aVn't
p3359
aVfinish
p3360
aVit
p3361
ag21
aaa(lp3362
Vjerry
p3363
a(lp3364
Vshe
p3365
aV's
p3366
aVfull
p3367
ag21
aVso
p3368
ag30
aVbig
p3369
aVdaddy
p3370
ag21
ag181
aV'm
p3371
aVjust
p3372
aVcurious
p3373
ag21
aVhow
p3374
aVmuch
p3375
aVdid
p3376
aVyou
p3377
aVclear
p3378
aVon
p3379
aVyour
p3380
aVlittle
p3381
aVtrasaction
p3382
aVthere
p3383
ag151
aVall
p3384
aVtold
p3385
ag151
aaa(lp3386
Vgeorge
p3387
a(lp3388
g181
aVdo
p3389
aVn't
p3390
aVlike
p3391
aVto
p3392
aVdiscuss
p3393
aVfigures
p3394
ag21
aaa(lp3395
Vjerry
p3396
a(lp3397
Vhow
p3398
aVmuch
p3399
ag151
aaa(lp3400
Vgeorge
p3401
a(lp3402
g181
aVdo
p3403
aVn't
p3404
aVknow
p3405
ag30
aVwhat
p3406
ag151
aVeight
p3407
aVthousand
p3408
ag21
aVit
p3409
aV's
p3410
ag49
aVhyundai
p3411
ag21
aVget
p3412
aVout
p3413
aVof
p3414
aVhere
p3415
ag181
aVtold
p3416
aVyou
p3417
aVnot
p3418
aVto
p3419
aVsell
p3420
ag21
aVsimons
p3421
aVmade
p3422
aVmoney
p3423
ag30
aVwilkinson
p3424
aVcleaned
p3425
aVup
p3426
ag21
aaa(lp3427
Vjerry
p3428
a(lp3429
Vso
p3430
ag30
aVwilkinson
p3431
aV's
p3432
aVout
p3433
aVof
p3434
aVthe
p3435
aVhospital
p3436
aVnow
p3437
ag151
aaa(lp3438
Vgeorge
p3439
a(lp3440
Vno
p3441
ag21
aVyou
p3442
aV'd
p3443
aVbe
p3444
aVsurprised
p3445
ag21
aVyou
p3446
aVdo
p3447
aVn't
p3448
aVrecover
p3449
aVthat
p3450
aVquickly
p3451
aVfrom
p3452
ag49
aVnose
p3453
aVjob
p3454
ag21
aaa(lp3455
Vjerry
p3456
a(lp3457
Vis
p3458
aVtaht
p3459
aVstill
p3460
aVfrom
p3461
aVthe
p3462
aVcats
p3463
ag151
aaa(lp3464
Velaine
p3465
a(lp3466
Vno
p3467
ag30
ag181
aVjust
p3468
aVhave
p3469
ag49
aVcold
p3470
ag21
aaa(lp3471
Vjerry
p3472
a(lp3473
Vso
p3474
ag30
aVwhat
p3475
aVever
p3476
aVhappened
p3477
aVwith
p3478
aVthat
p3479
ag151
aaa(lp3480
Velaine
p3481
a(lp3482
g181
aVgave
p3483
aVhim
p3484
aVan
p3485
aVultimatum
p3486
ag21
aaa(lp3487
Vgeorge
p3488
a(lp3489
Vhe
p3490
aVchose
p3491
aVthe
p3492
aVcats
p3493
ag151
aaa(lp3494
Velaine
p3495
a(lp3496
Vthey
p3497
aV're
p3498
aVvery
p3499
aVclean
p3500
aVanimals
p3501
ag21
aaa(lp3502
Vjerry
p3503
a(lp3504
g181
aVgot
p3505
aVta
p3506
aVsay
p3507
ag30
aVthat
p3508
aV's
p3509
aVpretty
p3510
aVsad
p3511
ag21
aVlosing
p3512
aVout
p3513
aVto
p3514
ag49
aVcat
p3515
ag21
aaa(lp3516
Velaine
p3517
a(lp3518
Valmost
p3519
aVas
p3520
aVbad
p3521
aVas
p3522
aVlosing
p3523
aVout
p3524
aVto
p3525
ag49
aVperfume
p3526
ag21
aaa(lp3527
Vgeorge
p3528
a(lp3529
g181
aVtold
p3530
aVyou
p3531
aVthose
p3532
aVtrips
p3533
aVwere
p3534
aVrelationship
p3535
aVkillers
p3536
ag21
aVtoo
p3537
aVbad
p3538
aVyou
p3539
aVca
p3540
aVn't
p3541
aVget
p3542
aVyour
p3543
aVbuddy
p3544
aVsuperman
p3545
aVto
p3546
aVfly
p3547
aVaround
p3548
aVthe
p3549
aVearth
p3550
aVat
p3551
aVsuper
p3552
aVspeed
p3553
aVand
p3554
aVreverse
p3555
aVtime
p3556
ag21
aVyou
p3557
aV'd
p3558
aVget
p3559
aVall
p3560
aVthe
p3561
aVmoney
p3562
aVback
p3563
ag128
aVyou
p3564
aVcould
p3565
aVhave
p3566
aVavoided
p3567
aVthe
p3568
aVwhole
p3569
aVtrip
p3570
aVto
p3571
aVvermont
p3572
ag21
aaa(lp3573
Velaine
p3574
a(lp3575
Vsuperman
p3576
aVcan
p3577
aVgo
p3578
aVback
p3579
aVin
p3580
aVtime
p3581
ag151
aaa(lp3582
Vjerry
p3583
a(lp3584
Vwe
p3585
aVwent
p3586
aVover
p3587
aVthat
p3588
ag21
aaa(lp3589
Vgeorge
p3590
a(lp3591
Vwilkinson
p3592
aV's
p3593
aVgot
p3594
ag49
aVbite
p3595
aVon
p3596
ag49
aVnew
p3597
aVone
p3598
aVpetramco
p3599
aVcorp.
p3600
aVout
p3601
aVof
p3602
ag30
aVhu
p3603
ag30
aVspringfield
p3604
ag21
ag181
aVthink
p3605
ag21
aVthey
p3606
aV're
p3607
aVabout
p3608
aVto
p3609
aVintroduce
p3610
aVsome
p3611
aVsort
p3612
aVof
p3613
aVrobot
p3614
aVbutcher
p3615
ag21
aaa(lp3616
Vjerry
p3617
a(lp3618
g49
aVrobot
p3619
aVbutcher
p3620
ag151
aaa(lp3621
Vgoerge
p3622
a(lp3623
Vshhhhh
p3624
ag21
aVif
p3625
aVyou
p3626
aVwant
p3627
aVto
p3628
aVget
p3629
aVin
p3630
ag128
aVthere
p3631
aV's
p3632
aVvery
p3633
aVlittle
p3634
aVtime
p3635
ag21
aVsweetheart
p3636
aVno
p3637
ag30
aVno
p3638
ag30
aVno
p3639
ag21
aVthat
p3640
ag3022
aVought
p3641
aVto
p3642
aVcoever
p3643
aVit
p3644
ag21
aVjust
p3645
ag49
aVsecond
p3646
aVjust
p3647
ag49
aVlet
p3648
aVme
p3649
aVcome
p3650
aVon
p3651
ag30
aVcome
p3652
aVon
p3653
ag30
aVcome
p3654
aVon
p3655
aaa.