(lp0
(lp1
Vjerry
p2
a(lp3
Vthe
p4
aVex-girlfriend
p5
aVwritten
p6
aVby
p7
aVlarry
p8
aVdavid
p9
aV&
p10
aVjerry
p11
aVseinfeld
p12
aVi
p13
aV'm
p14
aValways
p15
aVin
p16
aVtraffic
p17
aVwith
p18
aVthe
p19
aVlane
p20
aVexpert
p21
aV.
p22
aVyou
p23
aVknow
p24
aVthis
p25
aVtype
p26
aVof
p27
aVperson
p28
aV?
p29
aVconstantly
p30
aVreevaluating
p31
aVtheir
p32
aVlane
p33
aVchoice
p34
aVnever
p35
aVquite
p36
aVsure
p37
aV,
p38
aVis
p39
aVthis
p40
aVthe
p41
aVbest
p42
aVlane
p43
aVfor
p44
aVme
p45
ag29
aVfor
p46
aVmy
p47
aVlife
p48
ag29
aVthey
p49
aV're
p50
aValways
p51
aVa
p52
aVlittle
p53
aVbit
p54
aVahead
p55
aVof
p56
aVyou
p57
ag38
aVcan
p58
ag13
aVget
p59
aVin
p60
aVover
p61
aVthere
p62
ag29
aVcould
p63
ag13
aVget
p64
aVin
p65
aVover
p66
aVhere
p67
ag29
aVcould
p68
ag13
aVget
p69
aVin
p70
aVthere
p71
ag29
aVyeah
p72
ag38
aVcome
p73
aVon
p74
aVover
p75
aVhere
p76
ag38
aVpal
p77
ag22
aVwe
p78
aV're
p79
aVzoomin
p80
aV'
p81
aVover
p82
aVhere
p83
ag22
aVthis
p84
aVis
p85
aVthe
p86
aVsecret
p87
aVlane
p88
ag38
aVnobody
p89
aVknows
p90
aVabout
p91
aVit
p92
aVthe
p93
aVultimate
p94
ag38
ag13
aVthink
p95
aVthe
p96
aVultimate
p97
aVpsychological
p98
aVtest
p99
aVof
p100
aVtraffic
p101
aVis
p102
aVthe
p103
aVtotal
p104
aVdead
p105
aVstop
p106
ag22
aVnot
p107
aVeven
p108
aVrolling
p109
ag22
aVand
p110
aVyou
p111
aVlook
p112
aVout
p113
aVthe
p114
aVwindow
p115
ag38
aVyou
p116
aVcan
p117
aVsee
p118
aVgum
p119
aVclearly
p120
ag22
aVso
p121
aVwe
p122
aVknow
p123
aVthat
p124
aVin
p125
aVthe
p126
aVfuture
p127
aVtraffic
p128
aVwill
p129
aVget
p130
aVeven
p131
aVworse
p132
aVthan
p133
aVthat
p134
ag22
ag13
aVmean
p135
ag38
aVwhat
p136
aVwill
p137
aVhappen
p138
ag29
aVwill
p139
aVit
p140
aVstart
p141
aVmoving
p142
aVbackwords
p143
ag38
ag13
aVwonder
p144
ag29
ag13
aVmean
p145
ag38
aVis
p146
aVthat
p147
aVpossible
p148
ag29
aVthat
p149
aVsomeday
p150
aVwe
p151
aV'll
p152
aVbe
p153
aVgoing
p154
aVboy
p155
ag38
aVthis
p156
aVis
p157
aVsome
p158
aVreally
p159
aVbad
p160
aVtraffic
p161
aVnow
p162
ag38
aVboy
p163
ag22
aVthis
p164
ag38
aVis
p165
aVreally
p166
aVbad
p167
ag22
ag13
aV'm
p168
aVgon
p169
aVna
p170
aVtry
p171
aVto
p172
aVget
p173
aVoff
p174
aVand
p175
aVget
p176
aVback
p177
aVon
p178
aVgoing
p179
aVthe
p180
aVother
p181
aVway
p182
ag22
aaa(lp183
Vgeorge
p184
a(lp185
Vshe
p186
aVca
p187
aVn't
p188
aVkill
p189
aVme
p190
aVright
p191
ag29
aV!
p192
aaa(lp193
Vjerry
p194
a(lp195
Vno
p196
ag38
aVof
p197
aVcourse
p198
aVnot
p199
ag22
aaa(lp200
Vgeorge
p201
a(lp202
Vpeople
p203
aVbreak
p204
aVup
p205
aVall
p206
aVthe
p207
aVtime
p208
ag22
aaa(lp209
Vjerry
p210
a(lp211
Veveryday
p212
ag22
aaa(lp213
Vgeorge
p214
a(lp215
Vit
p216
aVjust
p217
aVdid
p218
aVn't
p219
aVwork
p220
aVout
p221
ag22
aVwhat
p222
aVcan
p223
ag13
aVdo
p224
ag29
ag13
aVwanted
p225
aVto
p226
aVlove
p227
aVher
p228
ag22
ag13
aVtried
p229
aVto
p230
aVlove
p231
aVher
p232
ag22
ag13
aVcould
p233
aVn't
p234
ag22
aaa(lp235
Vjerry
p236
a(lp237
Vyou
p238
aVtried
p239
ag22
aaa(lp240
Vgeorge
p241
a(lp242
g13
aVkept
p243
aVlooking
p244
aVat
p245
aVher
p246
aVface
p247
ag22
ag13
aV'd
p248
aVgo
p249
aVc'mon
p250
ag38
aVlove
p251
aVher
p252
ag22
aVlove
p253
aVher
p254
ag192
aaa(lp255
Vjerry
p256
a(lp257
Vdid
p258
aVyou
p259
aVtell
p260
aVher
p261
aVyou
p262
aVloved
p263
aVher
p264
ag29
aaa(lp265
Vgeorge
p266
a(lp267
Voh
p268
ag38
ag13
aVhad
p269
aVno
p270
aVchoice
p271
ag22
aVshe
p272
aVsqueezed
p273
aVit
p274
aVout
p275
aVof
p276
aVme
p277
ag192
aVshe
p278
aV'd
p279
aVtell
p280
aVme
p281
aVshe
p282
aVloved
p283
aVme
p284
ag22
aValright
p285
ag38
aVat
p286
aVfirst
p287
ag38
ag13
aVjust
p288
aVlook
p289
aVat
p290
aVher
p291
ag22
ag13
aV'd
p292
aVgo
p293
aVoh
p294
ag38
aVreally
p295
ag29
aVor
p296
aVboy
p297
ag38
aVthat
p298
aV's
p299
ag38
aVthat
p300
aV's
p301
aVsomething
p302
ag22
aVbut
p303
ag38
aVeventually
p304
aVyou
p305
aVhave
p306
aVto
p307
aVcome
p308
aVback
p309
aVwith
p310
aVwell
p311
ag38
ag13
aVlove
p312
aVyou
p313
ag22
aVyou
p314
aVknow
p315
ag38
aVyou
p316
aVcan
p317
aVonly
p318
aVhold
p319
aVout
p320
aVfor
p321
aVso
p322
aVlong
p323
ag192
aaa(lp324
Vjerry
p325
a(lp326
Vyou
p327
aV're
p328
ag52
aVhuman
p329
aVbeing
p330
ag22
aaa(lp331
Vgeorge
p332
a(lp333
Vand
p334
ag13
aVdid
p335
aVn't
p336
aVeven
p337
aVask
p338
aVher
p339
aVout
p340
ag22
aVshe
p341
aVasked
p342
aVme
p343
aVout
p344
aVfirst
p345
ag22
aVshe
p346
aVcalled
p347
aVme
p348
aVup
p349
ag22
aVwhat
p350
aVwas
p351
ag13
aVsupposed
p352
aVto
p353
aVdo
p354
ag29
aVsay
p355
aVno
p356
ag29
ag13
aVca
p357
aVn't
p358
aVdo
p359
aVthat
p360
aVto
p361
aVsomeone
p362
ag22
aaa(lp363
Vjerry
p364
a(lp365
Vyou
p366
aV're
p367
aVtoo
p368
aVnice
p369
ag52
aVguy
p370
ag22
aaa(lp371
Vgeorge
p372
a(lp373
g13
aVam
p374
ag22
ag13
aV'm
p375
ag52
aVnice
p376
aVguy
p377
aVand
p378
aVshe
p379
aVseduced
p380
aVme
p381
ag192
aVwe
p382
aVwere
p383
aVin
p384
aVmy
p385
aVapartment
p386
ag38
ag13
aV'm
p387
aVsitting
p388
aVon
p389
aVthe
p390
aVcouch
p391
ag38
aVshe
p392
aV's
p393
aVon
p394
aVthe
p395
aVchair
p396
aV-
p397
ag13
aVget
p398
aVup
p399
aVto
p400
aVgo
p401
aVto
p402
aVthe
p403
aVbathroom
p404
ag38
ag13
aVcome
p405
aVback
p406
ag38
aVshe
p407
aV's
p408
aVon
p409
aVthe
p410
aVcouch
p411
ag22
aVwhat
p412
aVam
p413
ag13
aVsupposed
p414
aVto
p415
aVdo
p416
ag29
aVnot
p417
aVdo
p418
aVanything
p419
ag29
ag13
aVcould
p420
aVn't
p421
aVdo
p422
aVthat
p423
ag22
ag13
aVwould
p424
aV've
p425
aVinsulted
p426
aVher
p427
ag22
aaa(lp428
Vjerry
p429
a(lp430
Vyou
p431
aV're
p432
aVflesh
p433
aVand
p434
aVblood
p435
ag22
aaa(lp436
Vgeorge
p437
a(lp438
g13
aVhad
p439
aVnothing
p440
aVto
p441
aVdo
p442
aVwtih
p443
aVany
p444
aVof
p445
aVthis
p446
ag192
ag13
aVmet
p447
aVall
p448
aVher
p449
aVfriends
p450
ag38
ag13
aVdid
p451
aVn't
p452
aVwant
p453
aVto
p454
aVmeet
p455
aVthem
p456
ag22
ag13
aVkept
p457
aVtrying
p458
aVto
p459
aVavoid
p460
aVit
p461
ag22
ag13
aVknew
p462
aVit
p463
aVwould
p464
aVonly
p465
aVget
p466
aVme
p467
aVin
p468
aVdeeper
p469
ag22
aVbut
p470
aVthey
p471
aVwere
p472
aVeverywhere
p473
ag192
aVthey
p474
aVkept
p475
aVpopping
p476
aVup
p477
ag38
aVall
p478
aVover
p479
aVthe
p480
aVplace
p481
ag22
aVthis
p482
aVis
p483
aVnancy
p484
ag38
aVthis
p485
aVis
p486
aVsusan
p487
ag38
aVthis
p488
aVis
p489
aVamy
p490
aVthis
p491
aVis
p492
aVmy
p493
aVcousin
p494
aVthis
p495
aVis
p496
aVmy
p497
aVbrother
p498
aVthisis
p499
aVmy
p500
aVfather
p501
ag22
aVit
p502
aV's
p503
aVlike
p504
ag13
aV'm
p505
aVin
p506
aVquicksand
p507
ag22
aaa(lp508
Vjerry
p509
a(lp510
g13
aVtold
p511
aVyou
p512
aVwhen
p513
ag13
aVmet
p514
aVher
p515
aaa(lp516
Vgeorge
p517
a(lp518
Vmy
p519
aVback
p520
aVis
p521
aVkilling
p522
aVme
p523
ag22
aaa(lp524
Vjerry
p525
a(lp526
Vyou
p527
aVgot
p528
aVta
p529
aVgo
p530
aVto
p531
aVmy
p532
aVchiropractor
p533
ag38
aVhe
p534
aV's
p535
aVthe
p536
aVbest
p537
ag22
aaa(lp538
Vgeorge
p539
a(lp540
Voh
p541
aVyeah
p542
ag38
aVeverybody
p543
aV's
p544
aVguy
p545
aVis
p546
aVthe
p547
aVbest
p548
ag22
aaa(lp549
Vjerry
p550
a(lp551
g13
aV'm
p552
aVgon
p553
aVna
p554
aVmake
p555
aVan
p556
aVappointment
p557
aVfor
p558
aVyou
p559
ag22
aVwe
p560
aV'll
p561
aVgo
p562
aVtogether
p563
ag22
aaa(lp564
Vgeorge
p565
a(lp566
Vplease
p567
ag22
aVthey
p568
aVdo
p569
aVn't
p570
aVdo
p571
aVanything
p572
aVlook
p573
ag38
aVdo
p574
ag13
aVhave
p575
aVto
p576
aVbreak
p577
aVup
p578
aVwith
p579
aVher
p580
aVin
p581
aVperson
p582
ag29
aVca
p583
aVn't
p584
ag13
aVdo
p585
aVit
p586
aVover
p587
aVthe
p588
aVphone
p589
ag29
ag13
aVhave
p590
aVno
p591
aVstomach
p592
aVfor
p593
aVthese
p594
aVthings
p595
ag22
aaa(lp596
Vjerry
p597
a(lp598
Vyou
p599
aVshould
p600
aVjust
p601
aVdo
p602
aVit
p603
aVlike
p604
ag52
aVband-aid
p605
ag22
aVone
p606
aVmotion
p607
ag192
aVright
p608
aVoff
p609
ag192
aaa(lp610
Velaine
p611
a(lp612
Vhi
p613
ag22
aaa(lp614
Vjerry
p615
a(lp616
Vhi
p617
ag22
aaa(lp618
Velaine
p619
a(lp620
Vhey
p621
ag38
aVwhat
p622
aVare
p623
aVyou
p624
aVdoing
p625
ag29
aaa(lp626
Vgeorge
p627
a(lp628
g13
aV'm
p629
aVletting
p630
aVyou
p631
aVin
p632
ag22
aaa(lp633
Velaine
p634
a(lp635
Voh
p636
aVno
p637
ag22
aVno
p638
ag22
ag13
aVdo
p639
aVn't
p640
aVwant
p641
aVto
p642
aVsit
p643
aVin
p644
aVthe
p645
aVback
p646
ag22
ag13
aV'll
p647
aVbe
p648
aVleft
p649
aVout
p650
aVof
p651
aVthe
p652
aVconversation
p653
ag22
aaa(lp654
Vgeorge
p655
a(lp656
Vno
p657
ag38
aVyou
p658
aVwo
p659
aVn't
p660
ag22
aaa(lp661
Velaine
p662
a(lp663
Vyes
p664
ag38
ag13
aVwill
p665
ag38
aVgeorge
p666
ag22
ag13
aV'll
p667
aVhave
p668
aVto
p669
aVsick
p670
aVmy
p671
aVchin
p672
aVon
p673
aVtop
p674
aVof
p675
aVthe
p676
aVseat
p677
ag22
aaa(lp678
Vgeorge
p679
a(lp680
Vokay
p681
aaa(lp682
Velaine
p683
a(lp684
Vwhy
p685
aVca
p686
aVn't
p687
aVyou
p688
aVsit
p689
aVin
p690
aVthe
p691
aVmiddle
p692
ag29
aaa(lp693
Vgeorge
p694
a(lp695
Vplease
p696
ag38
aVit
p697
aVdoes
p698
aVn't
p699
aVlook
p700
aVgood
p701
ag22
aVboy
p702
ag38
aVboy
p703
ag38
aVgirl
p704
ag22
aaa(lp705
Velaine
p706
a(lp707
g13
aVthink
p708
aVyou
p709
aV're
p710
aVafraid
p711
aVto
p712
aVsit
p713
aVnext
p714
aVto
p715
ag52
aVman
p716
ag22
aVyou
p717
aV're
p718
ag52
aVlittle
p719
aVhomophobic
p720
ag38
aVare
p721
aVn't
p722
aVyou
p723
ag29
aaa(lp724
Vgeorge
p725
a(lp726
Vis
p727
aVit
p728
aVthat
p729
aVobvious
p730
ag29
aaa(lp731
Velaine
p732
a(lp733
Vhello
p734
ag38
aVjerry
p735
ag22
aaa(lp736
Vjerry
p737
a(lp738
Vhello
p739
ag22
aaa(lp740
Velaine
p741
a(lp742
Vdid
p743
aVyou
p744
aVget
p745
ag52
aVhaircut
p746
ag29
aaa(lp747
Vjerry
p748
a(lp749
Vno
p750
ag38
aVshower
p751
ag22
aVso
p752
ag38
aVwhere
p753
aVare
p754
aVwe
p755
aVeating
p756
ag29
aaa(lp757
Velaine
p758
a(lp759
Vtell
p760
aVme
p761
aVif
p762
aVyou
p763
aVthink
p764
aVthis
p765
aVis
p766
aVstrange
p767
aVthere
p768
aV's
p769
aVthis
p770
aVguy
p771
aVwho
p772
aVlives
p773
aVin
p774
aVmy
p775
aVbuilding
p776
ag38
aVwho
p777
ag13
aVwas
p778
aVintroduced
p779
aVto
p780
ag52
aVcouple
p781
aVof
p782
aVyears
p783
aVago
p784
aVby
p785
ag52
aVfriend
p786
ag22
aVhe
p787
aV's
p788
ag52
aVteacher
p789
ag38
aVor
p790
aVsomething
p791
ag22
aVanyway
p792
ag38
aVafter
p793
aVwe
p794
aVmet
p795
ag38
aVwhenever
p796
aVwe
p797
aV'd
p798
aVrun
p799
aVinto
p800
aVeach
p801
aVother
p802
aVon
p803
aVthe
p804
aVstreet
p805
ag38
aVor
p806
aVin
p807
aVthe
p808
aVlobby
p809
ag38
aVor
p810
aVwhatever
p811
ag38
aVwe
p812
aVwould
p813
aVstop
p814
aVand
p815
aVwe
p816
aVwould
p817
aVchat
p818
ag52
aVlittle
p819
aVnothing
p820
aVmuch
p821
ag22
aVlittle
p822
aVpleasantries
p823
ag22
aVhe
p824
aVwas
p825
ag52
aVnice
p826
aVguy
p827
ag38
aVhe
p828
aV's
p829
aVgot
p830
ag52
aVfamily
p831
aVthen
p832
aVafter
p833
ag52
aVwhile
p834
ag38
ag13
aVnoticed
p835
aVthere
p836
aVwas
p837
aVnot
p838
aVmore
p839
aVstopping
p840
ag22
aVjust
p841
aVsaying
p842
aVhello
p843
aVand
p844
aVcontinuing
p845
aVon
p846
aVour
p847
aVway
p848
ag22
aVpolite
p849
aVnodding
p850
ag22
aVthen
p851
aVone
p852
aVday
p853
ag38
aVhe
p854
aVdoes
p855
aVn't
p856
aVnod
p857
ag22
aVlike
p858
ag13
aVdo
p859
aVn't
p860
aVexist
p861
ag29
ag192
aVhe
p862
aVwent
p863
aVfrom
p864
aVnods
p865
aVto
p866
aVnothing
p867
ag22
aaa(lp868
Vgeorge
p869
a(lp870
Vyou
p871
aVknow
p872
ag38
ag13
aV'd
p873
aVgo
p874
aVfrom
p875
aVnods
p876
aVto
p877
aVnothing
p878
aaa(lp879
Velaine
p880
a(lp881
Vand
p882
aVnow
p883
ag38
aVthere
p884
aV's
p885
aVthis
p886
aVintense
p887
aVanimosity
p888
aVwhenever
p889
aVwe
p890
aVpasss
p891
ag22
ag13
aVmean
p892
ag38
aVit
p893
aV's
p894
aVlike
p895
aVwe
p896
aVreally
p897
aVhate
p898
aVeach
p899
aVother
p900
ag22
aVit
p901
aV's
p902
aVbased
p903
aVon
p904
aVnothing
p905
ag22
aaa(lp906
Vjerry
p907
a(lp908
g52
aVrelationship
p909
aVis
p910
aVan
p911
aVorganism
p912
ag22
aVyou
p913
aVcreated
p914
aVthis
p915
aVthing
p916
aVand
p917
aVthen
p918
aVyou
p919
aVstarved
p920
aVit
p921
aVso
p922
aVit
p923
aVturned
p924
aVagainst
p925
aVyou
p926
ag22
aVsame
p927
aVthing
p928
aVhappened
p929
aVto
p930
aVthe
p931
aVblob
p932
ag22
aaa(lp933
Vgeorge
p934
a(lp935
g13
aVthink
p936
aVyou
p937
aVabsolutely
p938
aVhave
p939
aVto
p940
aVsay
p941
aVsomething
p942
aVto
p943
aVthis
p944
aVguy
p945
ag22
aVconfront
p946
aVhim
p947
ag22
aaa(lp948
Velaine
p949
a(lp950
Vreally
p951
ag29
aaa(lp952
Vgeorge
p953
a(lp954
Vyes
p955
ag22
aaa(lp956
Velaine
p957
a(lp958
Vyou
p959
aVwould
p960
aVdo
p961
aVthat
p962
ag29
aaa(lp963
Vgeorge
p964
a(lp965
Vif
p966
ag13
aVwas
p967
ag52
aVdifferent
p968
aVperson
p969
ag22
aaa(lp970
Vjerry
p971
a(lp972
Vhello
p973
aVhello
p974
ag22
aVis
p975
aVglenn
p976
aVthere
p977
ag29
ag13
aV'm
p978
aVsorry
p979
ag22
aVis
p980
aVthis
p981
aV805-555-3234
p982
ag29
aVyes
p983
ag38
ag13
aVknow
p984
ag13
aVhave
p985
aVthe
p986
aVwrong
p987
aVnumber
p988
ag22
aVbut
p989
ag13
aVjust
p990
aVwant
p991
aVto
p992
aVknow
p993
aVif
p994
ag13
aVdialed
p995
aVwrong
p996
aVor
p997
aVif
p998
aaa(lp999
Vkramer
p1000
a(lp1001
Vcome
p1002
aVon
p1003
aVup
p1004
ag22
aaa(lp1005
Vjerry
p1006
a(lp1007
Voh
p1008
ag38
aVit
p1009
aV's
p1010
aVyou
p1011
aVagain
p1012
ag22
aVsee
p1013
ag29
aVnow
p1014
aVif
p1015
aVyou
p1016
aVhad
p1017
aVanswered
p1018
aVme
p1019
ag38
ag13
aVwould
p1020
aVn't
p1021
aVhave
p1022
aVhad
p1023
aVto
p1024
aVdo
p1025
aVthis
p1026
ag22
aVnow
p1027
aVthat
p1028
aV's
p1029
aVtoo
p1030
aVlong
p1031
aVdistance
p1032
aVcalls
p1033
ag13
aVmade
p1034
aVto
p1035
aVyou
p1036
aVwhy
p1037
aVca
p1038
aVn't
p1039
aVyou
p1040
ag22
aVwhy
p1041
ag29
aVwhy
p1042
aVdo
p1043
aVthey
p1044
aVjust
p1045
aVhang
p1046
aVup
p1047
aVlike
p1048
aVthat
p1049
ag29
ag192
aVthank
p1050
aVyou
p1051
aVvery
p1052
aVmuch
p1053
ag22
aaa(lp1054
Vkramer
p1055
a(lp1056
Vtaste
p1057
aVthis
p1058
ag22
aaa(lp1059
Vjerry
p1060
a(lp1061
Vno
p1062
ag38
ag13
aVjust
p1063
aVhad
p1064
ag52
aVsandwich
p1065
ag22
aaa(lp1066
Vkramer
p1067
a(lp1068
Vno
p1069
ag38
aVtaste
p1070
aVit
p1071
ag22
aVtaste
p1072
aVit
p1073
ag22
aaa(lp1074
Vjerry
p1075
a(lp1076
g13
aVdo
p1077
aVn't
p1078
aVwant
p1079
aVcantaloupe
p1080
aVnow
p1081
ag22
aaa(lp1082
Vkramer
p1083
a(lp1084
Vyou
p1085
aV've
p1086
aVnever
p1087
aVhad
p1088
aVcantaloupe
p1089
aVlike
p1090
aVthis
p1091
aVbefore
p1092
ag22
aaa(lp1093
Vjerry
p1094
a(lp1095
g13
aVonly
p1096
aVeat
p1097
aVcantaloupe
p1098
aVat
p1099
aVcertain
p1100
aVtimes
p1101
ag22
aaa(lp1102
Vkramer
p1103
a(lp1104
Vjerry
p1105
ag22
aVthis
p1106
aVis
p1107
aVgreat
p1108
aVcantaloupe
p1109
ag22
aaa(lp1110
Vjerry
p1111
a(lp1112
Valright
p1113
aaa(lp1114
Vkramer
p1115
a(lp1116
Vah
p1117
ag38
aVhuh
p1118
ag22
aVit
p1119
aV's
p1120
aVgood
p1121
ag29
aaa(lp1122
Vjerry
p1123
a(lp1124
Vit
p1125
aV's
p1126
aVvery
p1127
aVgood
p1128
ag22
aaa(lp1129
Vkramer
p1130
a(lp1131
Vgood
p1132
ag38
aVhuh
p1133
ag29
aaa(lp1134
Vjerry
p1135
a(lp1136
Vgood
p1137
ag22
aaa(lp1138
Vkramer
p1139
a(lp1140
g13
aVgot
p1141
aVit
p1142
aVat
p1143
aVjoe
p1144
aV's
p1145
ag22
aaa(lp1146
Vjerry
p1147
a(lp1148
Vuh-huh
p1149
ag22
aaa(lp1150
Vkramer
p1151
a(lp1152
Vforty-nine
p1153
aVcents
p1154
ag52
aVpound
p1155
ag22
aVthat
p1156
aV's
p1157
aVpractically
p1158
aVhalf
p1159
aVthan
p1160
aVwhat
p1161
aVyou
p1162
aV're
p1163
aVpaying
p1164
aVat
p1165
aVthe
p1166
aVsupermarket
p1167
ag22
ag13
aVdo
p1168
aVn't
p1169
aVknow
p1170
aVwhy
p1171
aVyou
p1172
aVdo
p1173
aVn't
p1174
aVgo
p1175
aVto
p1176
aVjoe
p1177
aV's
p1178
ag22
aaa(lp1179
Vjerry
p1180
a(lp1181
Vit
p1182
aV's
p1183
aVtoo
p1184
aVfar
p1185
ag22
aaa(lp1186
Vkramer
p1187
a(lp1188
Vit
p1189
aV's
p1190
aVthree
p1191
aVblocks
p1192
aVfurther
p1193
ag22
aVyou
p1194
aVcan
p1195
aVuse
p1196
aVmy
p1197
aVshopping
p1198
aVcart
p1199
aaa(lp1200
Vjerry
p1201
a(lp1202
g13
aV'm
p1203
aVnot
p1204
aVpulling
p1205
ag52
aVshopping
p1206
aVcart
p1207
ag22
aVwhat
p1208
aVam
p1209
ag13
aVsuppose
p1210
aVto
p1211
aVwear
p1212
ag29
ag52
aVkerchief
p1213
ag29
aVput
p1214
aVstockings
p1215
aVon
p1216
aVand
p1217
aVroll
p1218
aV'em
p1219
aVdown
p1220
aVbelow
p1221
aVmy
p1222
aVknee
p1223
ag29
aaa(lp1224
Vkramer
p1225
a(lp1226
Vsee
p1227
ag38
aVthe
p1228
aVother
p1229
aVthing
p1230
aVis
p1231
ag38
aVif
p1232
aVyou
p1233
aVdo
p1234
aVn't
p1235
aVlike
p1236
aVanything
p1237
ag38
aVhe
p1238
aVtakes
p1239
aVit
p1240
aVright
p1241
aVback
p1242
ag22
aaa(lp1243
Vjerry
p1244
a(lp1245
g13
aVdo
p1246
aVn't
p1247
aVreturn
p1248
aVfruit
p1249
ag22
aVfruit
p1250
aVis
p1251
ag52
aVgamble
p1252
ag22
ag13
aVknow
p1253
aVthat
p1254
aVgoing
p1255
aVin
p1256
ag22
aaa(lp1257
Vgeorge
p1258
a(lp1259
g13
aV'm
p1260
aVoutta
p1261
aVthere
p1262
ag22
ag13
aVdid
p1263
aVit
p1264
ag192
aVit
p1265
aV's
p1266
aVover
p1267
ag22
aaa(lp1268
Vjerry
p1269
a(lp1270
Vyou
p1271
aVdid
p1272
aVit
p1273
ag29
aVwhat
p1274
aVhappened
p1275
ag29
aaa(lp1276
Vgeorge
p1277
a(lp1278
g13
aVtold
p1279
aVher
p1280
ag22
aVin
p1281
aVthe
p1282
aVkitchen
p1283
ag397
aVwhich
p1284
aVwas
p1285
aVrisky
p1286
aV'cause
p1287
aVit
p1288
aV's
p1289
aVnear
p1290
aVall
p1291
aVthe
p1292
aVknives
p1293
ag22
ag13
aVstarted
p1294
aVwith
p1295
aVthe
p1296
aVword
p1297
aVlisten
p1298
ag22
aaa(lp1299
Vjerry
p1300
a(lp1301
Vah
p1302
aVha
p1303
ag22
aaa(lp1304
Vgeorge
p1305
a(lp1306
g13
aVsaid
p1307
ag38
aVlisten
p1308
aVmarlene
p1309
ag38
aVand
p1310
aVthen
p1311
aVthe
p1312
aVnext
p1313
aVthing
p1314
ag13
aVknow
p1315
ag38
ag13
aV'm
p1316
aVin
p1317
aVthe
p1318
aVmiddle
p1319
aVof
p1320
aVit
p1321
ag22
aVand
p1322
aVthere
p1323
aV's
p1324
aVthis
p1325
aVvoice
p1326
aVinside
p1327
aVof
p1328
aVme
p1329
aVgoing
p1330
aVyou
p1331
aV're
p1332
aVdoing
p1333
aVit
p1334
ag192
aVyou
p1335
aV're
p1336
aVdoing
p1337
aVit
p1338
ag192
aVand
p1339
aVthen
p1340
aVshe
p1341
aVstarted
p1342
aVto
p1343
aVcry
p1344
ag38
aVand
p1345
ag13
aVweakened
p1346
ag52
aVbit
p1347
ag22
ag13
aValmost
p1348
aVrelented
p1349
ag38
aVbut
p1350
aVthe
p1351
aVvoice
p1352
ag38
aVjerry
p1353
ag22
aVthe
p1354
aVvoice
p1355
aVsaid
p1356
aVkeep
p1357
aVgoing
p1358
ag38
aVkeep
p1359
aVgoing
p1360
ag22
aVyou
p1361
aV're
p1362
aValmost
p1363
aVout
p1364
ag192
aVit
p1365
aV's
p1366
aVlike
p1367
ag13
aVwas
p1368
aVmaking
p1369
ag52
aVprison
p1370
aVbreak
p1371
ag38
aVyou
p1372
aVknow
p1373
ag22
aVand
p1374
ag13
aV'm
p1375
aVheading
p1376
aVfor
p1377
aVthe
p1378
aVwall
p1379
ag38
aVand
p1380
ag13
aVtrip
p1381
aVand
p1382
ag13
aVtwist
p1383
aVmy
p1384
aVankle
p1385
ag38
aVand
p1386
aVthey
p1387
aVthrow
p1388
aVthe
p1389
aVlight
p1390
aVon
p1391
aVyou
p1392
ag38
aVyou
p1393
aVknow
p1394
ag22
aVso
p1395
ag38
aVsomehow
p1396
ag13
aVget
p1397
aVthe
p1398
aVfront
p1399
aVdoor
p1400
ag22
ag13
aVopened
p1401
aVit
p1402
aVup
p1403
ag38
ag13
aV'm
p1404
aVone
p1405
aVfoot
p1406
aVaway
p1407
ag38
ag13
aVtook
p1408
aVone
p1409
aVlast
p1410
aVlook
p1411
aVaround
p1412
aVthe
p1413
aVpenitentiary
p1414
ag38
aVand
p1415
ag13
aVjumped
p1416
ag192
aaa(lp1417
Vjerry
p1418
a(lp1419
Vsee
p1420
ag38
aVit
p1421
aV's
p1422
aVnever
p1423
aVas
p1424
aVbad
p1425
aVas
p1426
aVyou
p1427
aVimagine
p1428
ag22
aaa(lp1429
Vkramer
p1430
a(lp1431
g13
aVliked
p1432
aVmarlene
p1433
ag22
aVwhat
p1434
aV's
p1435
aVher
p1436
aVnumber
p1437
ag29
aaa(lp1438
Vgeorge
p1439
a(lp1440
Vno
p1441
ag38
ag13
ag38
ag13
aVdo
p1442
aVn't
p1443
aVthink
p1444
aVso
p1445
ag22
aaa(lp1446
Vjerry
p1447
a(lp1448
Vcould
p1449
aVyou
p1450
aVstop
p1451
aVthat
p1452
aVsmacking
p1453
ag29
aaa(lp1454
Vkramer
p1455
a(lp1456
Vgeorge
p1457
ag38
ag13
aVwant
p1458
aVyou
p1459
aVto
p1460
aVtaste
p1461
aVthis
p1462
aVcantaloupe
p1463
ag22
aaa(lp1464
Vgeorge
p1465
a(lp1466
Voh
p1467
aVno
p1468
ag38
aVthank
p1469
aVyou
p1470
ag22
aaa(lp1471
Vkramer
p1472
a(lp1473
Vit
p1474
aV's
p1475
aVthe
p1476
aVbest
p1477
aVcantaloupe
p1478
ag13
aVever
p1479
aVhad
p1480
ag22
aaa(lp1481
Vgeorge
p1482
a(lp1483
Vno
p1484
ag38
aVreally
p1485
ag22
aVno
p1486
ag38
aVno
p1487
ag38
aVthanks
p1488
ag22
aaa(lp1489
Vkramer
p1490
a(lp1491
Vjerry
p1492
ag38
aVtell
p1493
aVhim
p1494
aVhow
p1495
aVgood
p1496
aVthis
p1497
aVcantaloupe
p1498
aVis
p1499
ag22
aaa(lp1500
Vjerry
p1501
a(lp1502
Vit
p1503
aV's
p1504
aVvery
p1505
aVgood
p1506
aVcantaloupe
p1507
ag22
aVso
p1508
aVthat
p1509
aV's
p1510
aVit
p1511
ag29
aVyou
p1512
aV're
p1513
aVout
p1514
ag29
aaa(lp1515
Vgeorge
p1516
a(lp1517
Vexcept
p1518
aVfor
p1519
aVone
p1520
aVsmall
p1521
aVproblem
p1522
ag22
ag13
aVleft
p1523
aVsome
p1524
aVbooks
p1525
aVin
p1526
aVher
p1527
aVapartment
p1528
ag22
aaa(lp1529
Vjerry
p1530
a(lp1531
Vso
p1532
ag38
aVgo
p1533
aVget
p1534
aVthem
p1535
ag22
aaa(lp1536
Vgeorge
p1537
a(lp1538
Voh
p1539
ag38
aVno
p1540
ag22
aVno
p1541
ag38
ag13
aVca
p1542
aVn't
p1543
aVgo
p1544
aVback
p1545
aVthere
p1546
ag22
aVjerry
p1547
ag38
aVit
p1548
aV's
p1549
aVso
p1550
aVawkward
p1551
aVand
p1552
ag38
aVyou
p1553
aVknow
p1554
ag38
aVit
p1555
aVcould
p1556
aVbe
p1557
aVdangerous
p1558
ag397
aVsexually
p1559
ag22
aVsomething
p1560
aVcould
p1561
aVhappen
p1562
ag38
ag13
aV'd
p1563
aVbe
p1564
aVright
p1565
aVback
p1566
aVwhere
p1567
ag13
aVstarted
p1568
ag22
aaa(lp1569
Vjerry
p1570
a(lp1571
Vso
p1572
aVforget
p1573
aVabout
p1574
aVthe
p1575
aVbooks
p1576
ag22
aVdid
p1577
aVyou
p1578
aVread
p1579
aVthem
p1580
ag29
aaa(lp1581
Vgeorge
p1582
a(lp1583
Vwell
p1584
ag38
aVyeah
p1585
ag22
aaa(lp1586
Vjerry
p1587
a(lp1588
Vwhat
p1589
aVdo
p1590
aVyou
p1591
aVneed
p1592
aVthem
p1593
aVfor
p1594
ag29
aaa(lp1595
Vgeorge
p1596
a(lp1597
g13
aVdo
p1598
aVn't
p1599
aVknow
p1600
ag22
aVthey
p1601
aV're
p1602
aVbooks
p1603
ag22
aaa(lp1604
Vjerry
p1605
a(lp1606
Vwhat
p1607
aVis
p1608
aVthis
p1609
aVobsession
p1610
aVpeople
p1611
aVhave
p1612
aVwith
p1613
aVbooks
p1614
ag29
aVthey
p1615
aVput
p1616
aVthem
p1617
aVin
p1618
aVtheir
p1619
aVhouses
p1620
ag397
aVlike
p1621
aVthey
p1622
aV're
p1623
aVtrophies
p1624
ag22
aVwhat
p1625
aVdo
p1626
aVyou
p1627
aVneed
p1628
aVit
p1629
aVfor
p1630
aVafter
p1631
aVyou
p1632
aVread
p1633
aVit
p1634
ag29
aaa(lp1635
Vgeorge
p1636
a(lp1637
Vthey
p1638
aV're
p1639
aVmy
p1640
aVbooks
p1641
ag22
aaa(lp1642
Vjerry
p1643
a(lp1644
Vso
p1645
aVyou
p1646
aVwant
p1647
aVme
p1648
aVto
p1649
aVget
p1650
aVthose
p1651
aVbooks
p1652
ag29
aVis
p1653
aVthat
p1654
aVit
p1655
ag29
aaa(lp1656
Vmarlene
p1657
a(lp1658
Vso
p1659
ag38
aVit
p1660
aVmust
p1661
aV've
p1662
aVbeen
p1663
aVninety-five
p1664
aVdegrees
p1665
aVthat
p1666
aVnight
p1667
ag38
aVand
p1668
aVeveryone
p1669
aV's
p1670
aVjust
p1671
aVstanding
p1672
aVaround
p1673
aVthe
p1674
aVpool
p1675
aVwith
p1676
aVlittle
p1677
aVdrinks
p1678
aVin
p1679
aVtheir
p1680
aVhands
p1681
ag22
ag13
aVwas
p1682
aVwearing
p1683
aVmy
p1684
aVold
p1685
aVjeans
p1686
aVand
p1687
aVt-shirt
p1688
ag22
aVand
p1689
ag13
aVdo
p1690
aVn't
p1691
aVknow
p1692
ag38
ag13
aVwas
p1693
aVjust
p1694
aVin
p1695
aVone
p1696
aVof
p1697
aVthose
p1698
aVmoods
p1699
ag397
aVso
p1700
ag13
aVsaid
p1701
aVto
p1702
aVmyself
p1703
ag38
aVmarlene
p1704
ag38
aVjust
p1705
aVdo
p1706
aVit
p1707
ag38
aVand
p1708
ag13
aVjumped
p1709
aVin
p1710
ag22
aVand
p1711
aVas
p1712
ag13
aV'm
p1713
aVgetting
p1714
aVout
p1715
ag38
ag13
aVfeel
p1716
aVall
p1717
aVthese
p1718
aVeyes
p1719
aVon
p1720
aVme
p1721
ag38
aVand
p1722
ag13
aVlook
p1723
aVup
p1724
aVand
p1725
aVeveryone
p1726
aVis
p1727
aVjust
p1728
aVstaring
p1729
aVat
p1730
aVme
p1731
ag22
aaa(lp1732
Vjerry
p1733
a(lp1734
Vso
p1735
aVwhat
p1736
aV'd
p1737
aVyou
p1738
aVdo
p1739
ag29
aaa(lp1740
Vmarlene
p1741
a(lp1742
Vwell
p1743
ag38
aVnothing
p1744
ag22
aVit
p1745
aV's
p1746
aVnot
p1747
aVskin
p1748
aVoff
p1749
aVmy
p1750
aVhide
p1751
aVif
p1752
aVpeople
p1753
aVlike
p1754
aVto
p1755
aVlook
p1756
ag22
ag13
aVjust
p1757
aVdid
p1758
aVn't
p1759
aVsee
p1760
aVwhat
p1761
aVthe
p1762
aVbig
p1763
aVattraction
p1764
aVwas
p1765
ag22
aaa(lp1766
Vjerry
p1767
a(lp1768
Vwell
p1769
ag38
ag13
aVhave
p1770
ag52
aVgeneral
p1771
aVidea
p1772
aVwhat
p1773
aVit
p1774
aVwas
p1775
ag22
ag13
aVcould
p1776
aVtake
p1777
ag52
aVguess
p1778
ag22
aaa(lp1779
Vmarlene
p1780
a(lp1781
Vhey
p1782
ag38
aVyou
p1783
aVknow
p1784
ag38
aVjerry
p1785
ag38
aVjust
p1786
aVbecause
p1787
aVgeorge
p1788
aVand
p1789
ag13
aVdo
p1790
aVn't
p1791
aVsee
p1792
aVeach
p1793
aVother
p1794
aVanymore
p1795
ag38
aVit
p1796
aVdoes
p1797
aVn't
p1798
aVmean
p1799
aVwe
p1800
aVshould
p1801
aVn't
p1802
aVstay
p1803
aVfriends
p1804
ag22
aaa(lp1805
Vjerry
p1806
a(lp1807
Vno
p1808
ag22
aaa(lp1809
Vmarlene
p1810
a(lp1811
Vgood
p1812
aVenough
p1813
ag22
ag13
aV'm
p1814
aVreally
p1815
aVglad
p1816
aVwe
p1817
aVgot
p1818
aVthat
p1819
aVsettled
p1820
ag22
aaa(lp1821
Vjerry
p1822
a(lp1823
g13
aVdo
p1824
aVn't
p1825
aVknow
p1826
aVhow
p1827
aVthis
p1828
aVhappened
p1829
ag22
aaa(lp1830
Vgeorge
p1831
a(lp1832
Vjerry
p1833
ag38
aVit
p1834
aV's
p1835
aVnot
p1836
aVmy
p1837
aVfault
p1838
ag22
aaa(lp1839
Vjerry
p1840
a(lp1841
Vno
p1842
ag38
aVno
p1843
ag22
aVit
p1844
aV's
p1845
aVnot
p1846
aVyour
p1847
aVfault
p1848
ag22
aVbooks
p1849
ag38
aVbooks
p1850
ag38
ag13
aVneed
p1851
aVmy
p1852
aVbooks
p1853
ag22
aVhave
p1854
aVyou
p1855
aVre-read
p1856
aVthose
p1857
aVbooks
p1858
aVyet
p1859
ag38
aVby
p1860
aVthe
p1861
aVway
p1862
ag29
aVyou
p1863
aVknow
p1864
aVthe
p1865
aVgreat
p1866
aVthing
p1867
ag29
aVwhen
p1868
aVyou
p1869
aVread
p1870
aVmoby
p1871
aVdick
p1872
aVthe
p1873
aVsecond
p1874
aVtime
p1875
ag38
aVahab
p1876
aVand
p1877
aVthe
p1878
aVwhale
p1879
aVbecome
p1880
aVgood
p1881
aVfriends
p1882
ag22
aVyou
p1883
aVknow
p1884
ag38
aVit
p1885
aV's
p1886
aVnot
p1887
aVlike
p1888
aVmarlene
p1889
aV's
p1890
ag52
aVbad
p1891
aVperson
p1892
aVor
p1893
aVanything
p1894
ag38
aVbut
p1895
ag38
aVmy
p1896
aVgod
p1897
ag192
ag13
aVmean
p1898
ag38
aVwe
p1899
aV've
p1900
aVhad
p1901
aVlike
p1902
aVthree
p1903
aVlunches
p1904
aVand
p1905
ag52
aVmovie
p1906
ag22
aVand
p1907
aVshe
p1908
aVnever
p1909
aVstops
p1910
aVcalling
p1911
ag22
aVand
p1912
aVit
p1913
aV's
p1914
aVthese
p1915
aVmeaningless
p1916
ag38
aVpurposeless
p1917
ag38
aVblather
p1918
aVcalls
p1919
ag22
aVshe
p1920
aVnever
p1921
aVasks
p1922
aVif
p1923
ag13
aV'm
p1924
aVbusy
p1925
aVor
p1926
aVanything
p1927
ag22
ag13
aVjust
p1928
aVpick
p1929
aVup
p1930
aVthe
p1931
aVphone
p1932
aVand
p1933
aVshe
p1934
aV's
p1935
aVin
p1936
aVthe
p1937
aVmiddle
p1938
aVof
p1939
ag52
aVsentence
p1940
ag22
aaa(lp1941
Vgeorge
p1942
a(lp1943
Vthat
p1944
aV's
p1945
aVstandard
p1946
ag22
aVhas
p1947
aVshe
p1948
aVleft
p1949
aVyou
p1950
aVone
p1951
aVof
p1952
aVthose
p1953
aVmessages
p1954
aVwhere
p1955
aVshe
p1956
aVuses
p1957
aVup
p1958
aVthe
p1959
aVwhole
p1960
aVmachine
p1961
ag29
aaa(lp1962
Vjerry
p1963
a(lp1964
Vohh
p1965
aVyou
p1966
aVknow
p1967
ag38
aVand
p1968
aVsometimes
p1969
aVshe
p1970
aV'll
p1971
aVgo
p1972
ag38
aVhello
p1973
ag38
aVjerry
p1974
ag29
aVand
p1975
ag13
aV'll
p1976
aVgo
p1977
aVoh
p1978
ag38
aVhi
p1979
aVmarlene
p1980
ag22
aVand
p1981
aVthen
p1982
aVit
p1983
aV's
p1984
aVjerry
p1985
aaa(lp1986
Vgeorge
p1987
a(lp1988
Vwhat
p1989
aVabout
p1990
aVgetting
p1991
aVoff
p1992
aVthe
p1993
aVphone
p1994
ag29
aaa(lp1995
Vjerry
p1996
a(lp1997
Vohhhh
p1998
aVyou
p1999
aVca
p2000
aVn't
p2001
ag22
aVit
p2002
aV's
p2003
aVimpossible
p2004
ag22
aVthere
p2005
aV's
p2006
aVno
p2007
aVbreak
p2008
aVin
p2009
aVthe
p2010
aVconversation
p2011
aVwhere
p2012
aVyou
p2013
aVcan
p2014
aVgo
p2015
ag38
aValright
p2016
ag38
aVthen
p2017
aVyou
p2018
aVknow
p2019
ag38
aVit
p2020
aVjust
p2021
aVgoes
p2022
aVon
p2023
aVand
p2024
aVon
p2025
aVand
p2026
aVon
p2027
aVwith
p2028
aVout
p2029
ag52
aVbreak
p2030
aVin
p2031
aVthe
p2032
aVwall
p2033
ag22
ag13
aVmean
p2034
ag38
ag13
aVgot
p2035
aVta
p2036
aVput
p2037
ag52
aVstop
p2038
aVto
p2039
aVthis
p2040
ag22
aaa(lp2041
Vgeorge
p2042
a(lp2043
Vjust
p2044
aVdo
p2045
aVit
p2046
aVlike
p2047
ag52
aVband-aid
p2048
ag22
aVone
p2049
aVmotion
p2050
ag38
aVright
p2051
aVoff
p2052
ag192
aVshe
p2053
aVis
p2054
aVsexy
p2055
aVthough
p2056
ag22
aVdo
p2057
aVn't
p2058
aVyou
p2059
aVthink
p2060
ag29
aaa(lp2061
Vjerry
p2062
a(lp2063
Vyeah
p2064
ag22
aVyes
p2065
ag38
aVshe
p2066
aVis
p2067
ag22
aaa(lp2068
Vreceptionist
p2069
a(lp2070
Vmr.
p2071
aVcostanza
p2072
ag29
aaa(lp2073
Vgeorge
p2074
a(lp2075
Vyeah
p2076
ag22
aaa(lp2077
Vreceptionist
p2078
a(lp2079
Vthe
p2080
aVdoctor
p2081
aV'll
p2082
aVsee
p2083
aVyou
p2084
aVnow
p2085
ag22
aaa(lp2086
Vgeorge
p2087
a(lp2088
Vyeah
p2089
ag38
aVdoctor
p2090
ag22
ag13
aV'm
p2091
aVgoing
p2092
aVto
p2093
aVhave
p2094
aVto
p2095
aVwait
p2096
aVin
p2097
aVthat
p2098
aVlittle
p2099
aVroom
p2100
aVby
p2101
aVmyself
p2102
ag38
aVare
p2103
aVn't
p2104
ag13
ag29
ag13
aVbetter
p2105
aVtake
p2106
aVthis
p2107
ag22
aaa(lp2108
Vi
p2109
a(lp2110
Vhate
p2111
aVthe
p2112
aVlittle
p2113
aVroom
p2114
ag22
aVoh
p2115
ag38
aVhello
p2116
ag38
aVdoctor
p2117
ag22
aaa(lp2118
Vjerry
p2119
a(lp2120
Vwaiting
p2121
aVroom
p2122
ag22
ag13
aVhate
p2123
aVwhen
p2124
aVthey
p2125
aVmake
p2126
aVyou
p2127
aVwait
p2128
aVin
p2129
aVthe
p2130
aVroom
p2131
ag22
aV'cause
p2132
aVit
p2133
aVsays
p2134
aVwaiting
p2135
aVroom
p2136
ag22
aVthere
p2137
aV's
p2138
aVno
p2139
aVchance
p2140
aVof
p2141
aVnot
p2142
aVwaiting
p2143
ag38
aV'cause
p2144
aVthey
p2145
aVcall
p2146
aVit
p2147
aVthe
p2148
aVwaiting
p2149
aVroom
p2150
ag38
aVthey
p2151
aV're
p2152
aVgoing
p2153
aVto
p2154
aVuse
p2155
aVit
p2156
ag22
aVthey
p2157
aV've
p2158
aVgot
p2159
aVit
p2160
ag22
aVit
p2161
aV's
p2162
aVall
p2163
aVset
p2164
aVup
p2165
aVfor
p2166
aVyou
p2167
aVto
p2168
aVwait
p2169
ag22
aVand
p2170
aVyou
p2171
aVsit
p2172
aVthere
p2173
ag38
aVyou
p2174
aVknow
p2175
ag38
aVand
p2176
aVyou
p2177
aV've
p2178
aVgot
p2179
aVyour
p2180
aVlittle
p2181
aVmagazine
p2182
ag22
aVyou
p2183
aVpretend
p2184
aVyou
p2185
aV're
p2186
aVreading
p2187
aVit
p2188
ag38
aVbut
p2189
aVyou
p2190
aV're
p2191
aVreally
p2192
aVlooking
p2193
aVat
p2194
aVthe
p2195
aVother
p2196
aVpeople
p2197
ag22
aVyou
p2198
aVknow
p2199
ag38
aVyou
p2200
aV're
p2201
aVthinking
p2202
aVabout
p2203
aVabout
p2204
aVthem
p2205
aVthings
p2206
aVlike
p2207
ag13
aVwonder
p2208
aVwhat
p2209
aVhe
p2210
aV's
p2211
aVgot
p2212
ag22
aVas
p2213
aVsoon
p2214
aVas
p2215
aVshe
p2216
aVgoes
p2217
ag38
ag13
aV'm
p2218
aVgetting
p2219
aVher
p2220
aVmagazine
p2221
ag22
aVand
p2222
aVthen
p2223
ag38
aVthey
p2224
aVfinally
p2225
aVcall
p2226
aVyou
p2227
aVand
p2228
aVit
p2229
aV's
p2230
ag52
aVvery
p2231
aVexciting
p2232
aVmoment
p2233
ag22
aVthey
p2234
aVfinally
p2235
aVcall
p2236
aVyou
p2237
ag38
aVand
p2238
aVyou
p2239
aVstand
p2240
aVup
p2241
aVand
p2242
aVyou
p2243
aVkinda
p2244
aVlook
p2245
aVaround
p2246
aVat
p2247
aVthe
p2248
aVother
p2249
aVpeople
p2250
aVin
p2251
aVthe
p2252
aVroom
p2253
ag22
aVwell
p2254
ag38
ag13
aVguess
p2255
ag13
aV've
p2256
aVbeen
p2257
aVchosen
p2258
ag22
ag13
aV'll
p2259
aVsee
p2260
aVyou
p2261
aVall
p2262
aVlater
p2263
ag22
aVyou
p2264
aVknow
p2265
ag38
aVso
p2266
aVyou
p2267
aVthink
p2268
aVyou
p2269
aV're
p2270
aVgoing
p2271
aVto
p2272
aVsee
p2273
aVthe
p2274
aVdoctor
p2275
ag38
aVbut
p2276
aVyou
p2277
aV're
p2278
aVnot
p2279
ag38
aVare
p2280
aVyou
p2281
ag29
aVno
p2282
ag22
aVyou
p2283
aV're
p2284
aVgoing
p2285
aVinto
p2286
aVthe
p2287
aVnext
p2288
aVwaiting
p2289
aVroom
p2290
ag22
aVthe
p2291
aVlittler
p2292
aVwaiting
p2293
aVroom
p2294
ag22
aVbut
p2295
aVif
p2296
aVthey
p2297
aVare
p2298
ag38
aVyou
p2299
aVknow
p2300
ag38
aVdoing
p2301
aVsome
p2302
aVsort
p2303
aVof
p2304
aVmedical
p2305
aVthing
p2306
aVto
p2307
aVyou
p2308
ag38
aVyou
p2309
aVwant
p2310
aVto
p2311
aVbe
p2312
aVin
p2313
aVthe
p2314
aVsmallest
p2315
aVroom
p2316
aVthat
p2317
aVthey
p2318
aVhave
p2319
ag38
ag13
aVthink
p2320
ag22
aVyou
p2321
aVdo
p2322
aVn't
p2323
aVwnat
p2324
aVto
p2325
aVbe
p2326
aVin
p2327
aVthe
p2328
aVlargest
p2329
aVroom
p2330
aVthat
p2331
aVthey
p2332
aVhave
p2333
ag22
aVyou
p2334
aVknow
p2335
aVwhat
p2336
ag13
aVmean
p2337
ag29
aVyou
p2338
aVever
p2339
aVsee
p2340
aVthese
p2341
aVoperating
p2342
aVtheaters
p2343
ag38
aVthat
p2344
aVthey
p2345
aVhave
p2346
ag38
aVwith
p2347
aVlike
p2348
ag38
aVstadium
p2349
aVseating
p2350
ag29
aVyou
p2351
aVdo
p2352
aVn't
p2353
aVwant
p2354
aVthem
p2355
aVdoing
p2356
aVantying
p2357
aVto
p2358
aVyou
p2359
aVthat
p2360
aVmakes
p2361
aVother
p2362
aVdoctors
p2363
aVgo
p2364
ag38
ag13
aVhave
p2365
aVto
p2366
aVsee
p2367
aVthis
p2368
ag192
aVare
p2369
aVyou
p2370
aVkidding
p2371
ag29
aVare
p2372
aVthey
p2373
aVreally
p2374
aVgon
p2375
aVna
p2376
aVdo
p2377
aVthat
p2378
aVto
p2379
aVhim
p2380
ag29
aVare
p2381
aVthere
p2382
aVseats
p2383
ag29
aVcan
p2384
aVwe
p2385
aVget
p2386
aVin
p2387
ag29
aVdo
p2388
aVthey
p2389
aVscalp
p2390
aVtickets
p2391
aVto
p2392
aVthese
p2393
aVthings
p2394
ag29
ag13
aVgot
p2395
aVtwo
p2396
aVfor
p2397
aVthe
p2398
aVwinslow
p2399
aVtumor
p2400
ag38
ag13
aVgot
p2401
aVtwo
p2402
aaa(lp2403
Vjerry
p2404
a(lp2405
Vso
p2406
ag38
aVhow
p2407
aVwas
p2408
aVit
p2409
ag29
aaa(lp2410
Vgeorge
p2411
a(lp2412
g13
aVwas
p2413
aVin
p2414
aVthere
p2415
aVfor
p2416
aVtwo
p2417
aVminutes
p2418
ag22
aVhe
p2419
aVdid
p2420
aVn't
p2421
aVdo
p2422
aVanything
p2423
ag22
aVtouch
p2424
aVthis
p2425
ag38
aVfeel
p2426
aVthat
p2427
ag22
aVseventy-five
p2428
aVbucks
p2429
ag22
aaa(lp2430
Vjerry
p2431
a(lp2432
Vwell
p2433
ag38
aVit
p2434
aV's
p2435
ag52
aVfirst
p2436
aVvisit
p2437
ag22
aaa(lp2438
Vgeorge
p2439
a(lp2440
Vwhat
p2441
aV's
p2442
aVseventy-five
p2443
aVbucks
p2444
ag29
aVwhat
p2445
ag38
aVam
p2446
ag13
aVseeing
p2447
aVsinatra
p2448
aVin
p2449
aVthere
p2450
ag29
ag192
aVamd
p2451
ag13
aVbeing
p2452
aVentertained
p2453
ag29
ag13
aVdo
p2454
aVn't
p2455
aVunderstand
p2456
aVthis
p2457
ag22
ag13
aV'm
p2458
aVonly
p2459
aVpaying
p2460
aVhalf
p2461
ag22
aaa(lp2462
Vjerry
p2463
a(lp2464
Vyou
p2465
aVca
p2466
aVn't
p2467
aVdo
p2468
aVthat
p2469
ag22
aaa(lp2470
Vgeorge
p2471
a(lp2472
Vwhy
p2473
aVnot
p2474
ag29
aaa(lp2475
Vjerry
p2476
a(lp2477
Vhe
p2478
aV's
p2479
ag52
aVdoctor
p2480
ag22
aVyou
p2481
aVgot
p2482
aVta
p2483
aVpay
p2484
aVwhat
p2485
aVhe
p2486
aVsays
p2487
ag22
aaa(lp2488
Vgeorge
p2489
a(lp2490
Voh
p2491
ag38
aVno
p2492
ag38
aVno
p2493
ag38
aVno
p2494
ag22
ag13
aVpay
p2495
aVwhat
p2496
ag13
aVsay
p2497
ag22
aaa(lp2498
Vmarlene
p2499
a(lp2500
Vare
p2501
aVyou
p2502
aVfeeling
p2503
aVweird
p2504
ag29
aaa(lp2505
Vjerry
p2506
a(lp2507
Vno
p2508
ag38
ag13
aV'm
p2509
aVfine
p2510
ag22
aaa(lp2511
Vmarlene
p2512
a(lp2513
Vnothing
p2514
aVreally
p2515
aVhappened
p2516
ag22
aaa(lp2517
Vjerry
p2518
a(lp2519
Vyeah
p2520
ag38
ag13
aVknow
p2521
ag22
aaa(lp2522
Vmarlene
p2523
a(lp2524
Vwe
p2525
aVjust
p2526
aVkissed
p2527
ag52
aVlittle
p2528
ag22
aVpeople
p2529
aVkiss
p2530
ag22
aaa(lp2531
Vjerry
p2532
a(lp2533
Vyeah
p2534
ag22
aaa(lp2535
Vmarlene
p2536
a(lp2537
Vwell
p2538
aVnight
p2539
ag22
aaa(lp2540
Vjerry
p2541
a(lp2542
Vgood
p2543
aVnight
p2544
ag22
aaa(lp2545
Vkramer
p2546
a(lp2547
Vhey
p2548
ag22
aaa(lp2549
Vjerry
p2550
a(lp2551
Vhey
p2552
ag22
aaa(lp2553
Vkramer
p2554
a(lp2555
g13
aVgot
p2556
aVit
p2557
ag192
aVthis
p2558
aVtime
p2559
ag38
ag13
aVgot
p2560
aVit
p2561
ag192
aaa(lp2562
Vjerry
p2563
a(lp2564
Valright
p2565
ag22
aaa(lp2566
Vkramer
p2567
a(lp2568
Vhips
p2569
ag192
aVsee
p2570
ag38
aVit
p2571
aV's
p2572
aVall
p2573
aVhips
p2574
ag22
aaa(lp2575
Vjerry
p2576
a(lp2577
Vuh-huh
p2578
ag22
aaa(lp2579
Vkramer
p2580
a(lp2581
Vyou
p2582
aVgot
p2583
aVta
p2584
aVcome
p2585
aVthrough
p2586
aVwith
p2587
aVthe
p2588
aVhips
p2589
aVfirst
p2590
ag22
aaa(lp2591
Vjerry
p2592
a(lp2593
Vthat
p2594
aVis
p2595
aVout
p2596
aVthere
p2597
ag22
aaa(lp2598
Vkramer
p2599
a(lp2600
Vjoe
p2601
aV's
p2602
ag29
aaa(lp2603
Vjerry
p2604
a(lp2605
Vno
p2606
ag38
aVsupermarket
p2607
ag22
aaa(lp2608
Vkramer
p2609
a(lp2610
Vwell
p2611
ag38
aVis
p2612
aVit
p2613
aVgood
p2614
ag29
aaa(lp2615
Vjerry
p2616
a(lp2617
Vit
p2618
aV's
p2619
aVokay
p2620
ag22
aaa(lp2621
Vkramer
p2622
a(lp2623
Vlet
p2624
aVme
p2625
aVtaste
p2626
aVit
p2627
ag22
aVsee
p2628
ag38
aVthat
p2629
aVstinks
p2630
ag22
aVyou
p2631
aVca
p2632
aVn't
p2633
aVeat
p2634
aVthat
p2635
ag22
aVyou
p2636
aVshould
p2637
aVtake
p2638
aVit
p2639
aVback
p2640
ag22
aaa(lp2641
Vjerry
p2642
a(lp2643
g13
aV'm
p2644
aVnot
p2645
aVtaking
p2646
aVit
p2647
aVback
p2648
ag22
aaa(lp2649
Vkramer
p2650
a(lp2651
Valright
p2652
ag38
ag13
aV'll
p2653
aVtake
p2654
aVit
p2655
aVback
p2656
ag22
ag13
aV'm
p2657
aVgoing
p2658
aVby
p2659
aVthere
p2660
ag22
aaa(lp2661
Vjerry
p2662
a(lp2663
g13
aVdo
p2664
aVn't
p2665
aVcare
p2666
aVabout
p2667
aVit
p2668
ag22
aaa(lp2669
Vkramer
p2670
a(lp2671
Vjerry
p2672
ag38
aVyou
p2673
aVshould
p2674
aVcare
p2675
ag22
aVcantaloupe
p2676
aVlike
p2677
aVthis
p2678
aVshould
p2679
aVbe
p2680
aVtaken
p2681
aVout
p2682
aVof
p2683
aVcirculation
p2684
ag22
aaa(lp2685
Vjerry
p2686
a(lp2687
Valright
p2688
ag22
aVtake
p2689
aVit
p2690
aVback
p2691
ag22
aaa(lp2692
Vjerry
p2693
a(lp2694
Vleave
p2695
ag52
aVmessage
p2696
ag38
ag13
aV'll
p2697
aVcall
p2698
aVyou
p2699
aVback
p2700
ag22
aaa(lp2701
Vmarlene
p2702
a(lp2703
Vjerry
p2704
ag38
aVhave
p2705
aVyou
p2706
aVever
p2707
aVtaken
p2708
ag52
aVbath
p2709
aVin
p2710
aVthe
p2711
aVdark
p2712
ag29
aVif
p2713
ag13
aV'm
p2714
aVnot
p2715
aVtalking
p2716
aVinto
p2717
aVthe
p2718
aVsoap
p2719
aVright
p2720
aVnow
p2721
ag38
aVcall
p2722
aVme
p2723
aVback
p2724
ag22
aaa(lp2725
Vkramer
p2726
a(lp2727
Vwell
p2728
ag29
aaa(lp2729
Vjerry
p2730
a(lp2731
Vmarlene
p2732
aaa(lp2733
Vkramer
p2734
a(lp2735
Voh
p2736
ag22
aVoh
p2737
ag38
aVmarlene
p2738
ag22
aaa(lp2739
Vjerry
p2740
a(lp2741
Vyeah
p2742
ag38
ag13
aVtook
p2743
aVher
p2744
aVhome
p2745
aVone
p2746
aVnight
p2747
ag397
aVwe
p2748
aVkinda
p2749
aVstarted
p2750
aVup
p2751
ag52
aVlittle
p2752
aVbit
p2753
aVin
p2754
aVthe
p2755
aVcar
p2756
ag22
aaa(lp2757
Vkramer
p2758
a(lp2759
g13
aVthought
p2760
aVyou
p2761
aVwere
p2762
aVtrying
p2763
aVto
p2764
aVget
p2765
aVrid
p2766
aVof
p2767
aVher
p2768
ag29
aaa(lp2769
Vjerry
p2770
a(lp2771
g13
aVwas
p2772
ag22
aVshe
p2773
aV's
p2774
aVgot
p2775
aVme
p2776
ag38
aVlike
p2777
ag38
aVhypnotized
p2778
ag22
aaa(lp2779
Vkramer
p2780
a(lp2781
Vdoes
p2782
aVgeorge
p2783
aVknow
p2784
ag29
aaa(lp2785
Vjerry
p2786
a(lp2787
Vno
p2788
ag38
aVhe
p2789
aV'd
p2790
aVgo
p2791
aVnuts
p2792
ag22
aaa(lp2793
Vkramer
p2794
a(lp2795
Vyeah
p2796
ag38
aVno
p2797
aVkidding
p2798
ag22
aaa(lp2799
Vjerry
p2800
a(lp2801
g13
aVfeel
p2802
aVterrible
p2803
ag22
ag13
aVmean
p2804
ag38
ag13
aV've
p2805
aVseen
p2806
aVher
p2807
ag52
aVcouple
p2808
aVof
p2809
aVtimes
p2810
aVsince
p2811
aVthen
p2812
ag38
aVand
p2813
ag13
aVknow
p2814
ag13
aVca
p2815
aVn't
p2816
aVgo
p2817
aVany
p2818
aVfurther
p2819
ag38
aVbut
p2820
ag13
aV've
p2821
aVjust
p2822
aVgot
p2823
aVthis
p2824
aVlike
p2825
ag38
aVpsycho-sexual
p2826
aVhold
p2827
aVover
p2828
aVme
p2829
ag22
ag13
aVjust
p2830
aVwant
p2831
aVher
p2832
ag38
ag13
aVca
p2833
aVn't
p2834
aVbreathe
p2835
ag22
aVit
p2836
aV's
p2837
aVlike
p2838
ag52
aVdrug
p2839
ag22
aaa(lp2840
Vkramer
p2841
a(lp2842
Vwoah
p2843
ag38
aVpsycho-sexual
p2844
ag22
aaa(lp2845
Vjerry
p2846
a(lp2847
g13
aVdo
p2848
aVn't
p2849
aVknow
p2850
aVhow
p2851
ag13
aV'm
p2852
aVgoing
p2853
aVto
p2854
aVtell
p2855
aVhim
p2856
ag22
aaa(lp2857
Vkramer
p2858
a(lp2859
Vman
p2860
ag38
ag13
aVdo
p2861
aVn't
p2862
aVunderstand
p2863
aVpeople
p2864
ag22
ag13
aVmean
p2865
ag38
aVwhy
p2866
aVwould
p2867
aVgeorge
p2868
aVwant
p2869
aVto
p2870
aVdeprive
p2871
aVyou
p2872
aVof
p2873
aVpleasure
p2874
ag29
aVis
p2875
aVit
p2876
aVjust
p2877
aVme
p2878
ag29
aaa(lp2879
Vjerry
p2880
a(lp2881
Vit
p2882
aV's
p2883
aVpartially
p2884
aVyou
p2885
ag38
aVyeah
p2886
ag22
aaa(lp2887
Vkramer
p2888
a(lp2889
Vyou
p2890
aV're
p2891
aVhis
p2892
aVfriend
p2893
ag22
aVbetter
p2894
aVthat
p2895
aVshe
p2896
aVshould
p2897
aVsleep
p2898
aVwith
p2899
aVsomeone
p2900
aVelse
p2901
ag22
aVsome
p2902
aVjerk
p2903
aVthat
p2904
aVhe
p2905
aVdoes
p2906
aVn't
p2907
aVeven
p2908
aVknow
p2909
ag22
aaa(lp2910
Vjerry
p2911
a(lp2912
Vwell
p2913
ag38
aVhe
p2914
aVca
p2915
aVn't
p2916
aVkill
p2917
aVme
p2918
ag38
aVright
p2919
ag29
aaa(lp2920
Vkramer
p2921
a(lp2922
Vyou
p2923
aV're
p2924
ag52
aVhuman
p2925
aVbeing
p2926
ag22
aaa(lp2927
Vjerry
p2928
a(lp2929
g13
aVmean
p2930
ag38
aVshe
p2931
aVcalled
p2932
aVme
p2933
ag22
ag13
aVhave
p2934
aVn't
p2935
aVcalled
p2936
aVher
p2937
ag22
aVshe
p2938
aVstarted
p2939
aVit
p2940
ag22
aaa(lp2941
Vkramer
p2942
a(lp2943
Vyou
p2944
aV're
p2945
aVflesh
p2946
aVand
p2947
aVblood
p2948
ag22
aaa(lp2949
Vjerry
p2950
a(lp2951
g13
aV'm
p2952
ag52
aVnice
p2953
aVguy
p2954
ag22
aaa(lp2955
Velaine
p2956
a(lp2957
Vhi
p2958
ag22
aaa(lp2959
Vjerry
p2960
a(lp2961
Voh
p2962
ag38
aVmy
p2963
aVlittle
p2964
aVairplane
p2965
aVlamp
p2966
ag22
aaa(lp2967
Velaine
p2968
a(lp2969
Vyou
p2970
aVknow
p2971
ag38
aVyou
p2972
aVhave
p2973
aVthe
p2974
aVslowest
p2975
aVelevator
p2976
aVin
p2977
aVthe
p2978
aVentire
p2979
aVcity
p2980
ag29
aVthat
p2981
aV's
p2982
aVhard
p2983
aVto
p2984
aVget
p2985
aVused
p2986
aVto
p2987
aVwhen
p2988
aVyou
p2989
aV're
p2990
aVin
p2991
aVso
p2992
aVmany
p2993
aVother
p2994
aVfast
p2995
aVones
p2996
ag22
aaa(lp2997
Vjerry
p2998
a(lp2999
Vwell
p3000
ag38
aVthe
p3001
aVapartment
p3002
aVelevators
p3003
aVare
p3004
aValways
p3005
aVslower
p3006
aVthan
p3007
aVthe
p3008
aVoffices
p3009
ag38
aVbecause
p3010
aVyou
p3011
aVdo
p3012
aVn't
p3013
aVhave
p3014
aVto
p3015
aVbe
p3016
aVhome
p3017
aVon
p3018
aVtime
p3019
ag22
aaa(lp3020
Velaine
p3021
a(lp3022
Vunless
p3023
aVyou
p3024
aV're
p3025
aVmarried
p3026
aVto
p3027
ag52
aVdictator
p3028
aaa(lp3029
Vjerry
p3030
a(lp3031
Vyeah
p3032
aVbecause
p3033
aVthey
p3034
aVwould
p3035
aVbe
p3036
aVvery
p3037
aVdemanding
p3038
aVpeople
p3039
ag22
aaa(lp3040
Velaine
p3041
a(lp3042
Vright
p3043
ag22
aVexactly
p3044
ag22
aVso
p3045
ag13
aVimagine
p3046
aVat
p3047
aVsome
p3048
aVpoint
p3049
ag38
aVsomebody
p3050
aV's
p3051
aVgoing
p3052
aVto
p3053
aVoffer
p3054
aVme
p3055
aVsome
p3056
aVcantaloupe
p3057
ag22
aaa(lp3058
Vkramer
p3059
a(lp3060
Vnope
p3061
ag22
aVno
p3062
aVgood
p3063
ag22
aaa(lp3064
Vjerry
p3065
a(lp3066
Vwell
p3067
ag38
aVyou
p3068
aVknow
p3069
aVwhat
p3070
aVthey
p3071
aVsay
p3072
aVluck
p3073
aVin
p3074
aVlove
p3075
ag38
aVunlucky
p3076
aVwith
p3077
aVfruit
p3078
ag22
aaa(lp3079
Vkramer
p3080
a(lp3081
Vwell
p3082
ag38
ag13
aV'm
p3083
aVtaking
p3084
aVthis
p3085
aVback
p3086
ag22
aaa(lp3087
Velaine
p3088
a(lp3089
Vso
p3090
ag38
ag13
aVhad
p3091
aVwhat
p3092
aVyou
p3093
aVmight
p3094
aVcall
p3095
ag52
aVlittle
p3096
aVencounter
p3097
aVthis
p3098
aVmorning
p3099
ag22
aaa(lp3100
Vjerry
p3101
a(lp3102
Vreally
p3103
ag29
aVthat
p3104
aVguy
p3105
aVwho
p3106
aVstopped
p3107
aVsaying
p3108
aVhello
p3109
ag29
aaa(lp3110
Velaine
p3111
a(lp3112
Vyep
p3113
ag22
aaa(lp3114
Vjerry
p3115
a(lp3116
Vyou
p3117
aVtalked
p3118
aVto
p3119
aVhim
p3120
ag29
aaa(lp3121
Velaine
p3122
a(lp3123
Vyep
p3124
ag22
ag13
aVspotted
p3125
aVhim
p3126
aVgetting
p3127
aVhis
p3128
aVmail
p3129
ag22
aVand
p3130
aVat
p3131
aVfirst
p3132
ag38
ag13
aVwas
p3133
aVjust
p3134
aVgoing
p3135
aVto
p3136
aVwalk
p3137
aVon
p3138
aVby
p3139
ag38
aVbut
p3140
aVthen
p3141
ag13
aVthought
p3142
aVno
p3143
ag38
aVno
p3144
ag38
aVno
p3145
ag38
aVno
p3146
ag22
aVdo
p3147
aVnot
p3148
aVbe
p3149
aVafraid
p3150
aVof
p3151
aVthis
p3152
aVman
p3153
ag22
aaa(lp3154
Vjerry
p3155
a(lp3156
Vright
p3157
ag22
aaa(lp3158
Velaine
p3159
a(lp3160
Vso
p3161
ag38
ag13
aVwalked
p3162
aVup
p3163
aVbehind
p3164
aVhim
p3165
aVand
p3166
ag13
aVtapped
p3167
aVhim
p3168
aVon
p3169
aVthe
p3170
aVshoulder
p3171
ag22
aVand
p3172
ag13
aVsaid
p3173
ag38
aVhi
p3174
ag38
aVremember
p3175
aVme
p3176
ag29
aVand
p3177
aVhe
p3178
aVfurrows
p3179
aVhis
p3180
aVbrow
p3181
aVas
p3182
aVif
p3183
aVhe
p3184
aV's
p3185
aVreally
p3186
aVtrying
p3187
aVto
p3188
aVfigure
p3189
aVit
p3190
aVout
p3191
ag22
aVso
p3192
ag13
aVsaid
p3193
aVto
p3194
aVhim
p3195
ag38
ag13
aVsaid
p3196
ag38
aVyou
p3197
aVlittle
p3198
aVphony
p3199
ag22
aVyou
p3200
aVknow
p3201
aVexactly
p3202
aVwho
p3203
ag13
aVam
p3204
ag22
aaa(lp3205
Vjerry
p3206
a(lp3207
Vyou
p3208
aVlittle
p3209
aVphony
p3210
ag29
aaa(lp3211
Velaine
p3212
a(lp3213
g13
aVdid
p3214
ag22
ag13
aVmost
p3215
aVcertainly
p3216
aVdid
p3217
ag22
aVand
p3218
aVhe
p3219
aVsaid
p3220
ag38
aVhe
p3221
aVgoes
p3222
ag38
aVoh
p3223
ag38
aVyeah
p3224
ag22
aVyou
p3225
aV're
p3226
aVjeanette
p3227
aV's
p3228
aVfriend
p3229
ag22
aVwe
p3230
aVdid
p3231
aVmeet
p3232
aVonce
p3233
ag22
aVand
p3234
ag13
aVsaid
p3235
ag38
aVwell
p3236
ag38
aVhow
p3237
aVdo
p3238
aVyou
p3239
aVgo
p3240
aVfrom
p3241
aVthat
p3242
aVto
p3243
aVtotally
p3244
aVignoring
p3245
ag52
aVperson
p3246
aVwhen
p3247
aVthey
p3248
aVwalk
p3249
aVby
p3250
ag29
aaa(lp3251
Vjerry
p3252
a(lp3253
Vamazing
p3254
ag22
aaa(lp3255
Velaine
p3256
a(lp3257
Vand
p3258
aVhe
p3259
aVsays
p3260
ag38
aVhe
p3261
aVsays
p3262
ag38
aVlook
p3263
ag38
ag13
aVjust
p3264
aVdid
p3265
aVn't
p3266
aVwant
p3267
aVto
p3268
aVsay
p3269
aVhello
p3270
aVanymore
p3271
ag38
aValright
p3272
ag29
aVand
p3273
ag13
aVsaid
p3274
ag38
aVfine
p3275
ag22
aVfine
p3276
ag13
aVdid
p3277
aVn't
p3278
aVwant
p3279
aVto
p3280
aVsay
p3281
aVhello
p3282
aVanymore
p3283
aVeither
p3284
ag38
aVbut
p3285
ag13
aVwanted
p3286
aVyou
p3287
aVto
p3288
aVknow
p3289
aVthat
p3290
ag13
aV'm
p3291
aVaware
p3292
aVof
p3293
aVit
p3294
ag22
aaa(lp3295
Vjerry
p3296
a(lp3297
Vyou
p3298
aVare
p3299
aVthe
p3300
aVqueen
p3301
aVof
p3302
aVconfrontation
p3303
ag22
aVyou
p3304
aV're
p3305
aVmy
p3306
aVnew
p3307
aVhero
p3308
ag22
aVin
p3309
aVfact
p3310
ag38
aVyou
p3311
aV've
p3312
aVinspired
p3313
aVme
p3314
ag22
ag13
aV'm
p3315
aVgon
p3316
aVna
p3317
aVcall
p3318
aVgeorge
p3319
aVabout
p3320
aVsomething
p3321
aVright
p3322
aVnow
p3323
ag22
aaa(lp3324
Velaine
p3325
a(lp3326
Vthis
p3327
aVcantaloupe
p3328
aVstinks
p3329
ag22
aaa(lp3330
Vgeorge
p3331
a(lp3332
g13
aVdo
p3333
aVn't
p3334
aVcare
p3335
ag22
aaa(lp3336
Vjerry
p3337
a(lp3338
Vyou
p3339
aV're
p3340
aVkidding
p3341
ag22
aaa(lp3342
Vgeorge
p3343
a(lp3344
Vno
p3345
ag38
ag13
aVdo
p3346
aVn't
p3347
aVcare
p3348
ag22
aaa(lp3349
Vjerry
p3350
a(lp3351
Vyou
p3352
aVmean
p3353
aVthat
p3354
ag29
aaa(lp3355
Vgeorge
p3356
a(lp3357
Vabsolutely
p3358
ag22
aaa(lp3359
Vjerry
p3360
a(lp3361
Vyou
p3362
aVdo
p3363
aVn't
p3364
aVcare
p3365
ag29
aaa(lp3366
Vgeorge
p3367
a(lp3368
Vno
p3369
ag22
aaa(lp3370
Vjerry
p3371
a(lp3372
Vhow
p3373
aVcould
p3374
aVyou
p3375
aVnot
p3376
aVcare
p3377
ag29
aaa(lp3378
Vgeorge
p3379
a(lp3380
g13
aVdo
p3381
aVn't
p3382
aVknow
p3383
ag22
aVbut
p3384
ag13
aVdo
p3385
aVn't
p3386
ag22
ag13
aV'm
p3387
aVactually
p3388
aValmost
p3389
aVhappy
p3390
aVto
p3391
aVhear
p3392
aVit
p3393
ag22
aaa(lp3394
Vjerry
p3395
a(lp3396
g13
aVthought
p3397
aVyou
p3398
aV'd
p3399
aVbe
p3400
aVupset
p3401
ag22
aaa(lp3402
Vgeorge
p3403
a(lp3404
g13
aVguess
p3405
ag13
aVshould
p3406
aVbe
p3407
aVbut
p3408
ag13
aV'm
p3409
aVnot
p3410
ag22
aaa(lp3411
Vjerry
p3412
a(lp3413
Vam
p3414
ag13
ag52
aVbad
p3415
aVperson
p3416
ag29
aVdid
p3417
ag13
aVdo
p3418
aVsomething
p3419
aVterrible
p3420
ag29
aaa(lp3421
Vgeorge
p3422
a(lp3423
Vno
p3424
ag38
aVyou
p3425
aV're
p3426
ag52
aVfine
p3427
aVperson
p3428
ag22
aVyou
p3429
aV're
p3430
ag52
aVhumanitarian
p3431
ag22
aVshe
p3432
aV's
p3433
aVvery
p3434
aVsexy
p3435
ag22
aaa(lp3436
Vjerry
p3437
a(lp3438
Vthat
p3439
aVvoice
p3440
ag22
aVthat
p3441
aVvoice
p3442
ag22
aVshe
p3443
aV's
p3444
aVdriving
p3445
aVme
p3446
aVcrazy
p3447
ag22
aaa(lp3448
Vgeorge
p3449
a(lp3450
g13
aVknow
p3451
ag38
ag13
aVknow
p3452
ag22
aaa(lp3453
Vjerry
p3454
a(lp3455
Vso
p3456
ag13
aVcan
p3457
aVsee
p3458
aVher
p3459
aVtonight
p3460
ag38
aVand
p3461
aVyou
p3462
aVdo
p3463
aVn't
p3464
aVcare
p3465
ag29
aaa(lp3466
Vgeorge
p3467
a(lp3468
Vsee
p3469
aVher
p3470
aVtonight
p3471
ag22
aVsee
p3472
aVher
p3473
aVtomarrow
p3474
ag22
aVgo
p3475
ag22
aVknock
p3476
aVyourself
p3477
aVout
p3478
ag22
aVshe
p3479
aV's
p3480
aVtoo
p3481
aVcrazy
p3482
aVfor
p3483
aVme
p3484
ag22
aaa(lp3485
Vjerry
p3486
a(lp3487
Valright
p3488
ag22
aVas
p3489
aVlong
p3490
aVas
p3491
aVyou
p3492
aV're
p3493
aVokay
p3494
ag22
aVbecause
p3495
ag13
aVca
p3496
aVn't
p3497
aVstop
p3498
aVthinking
p3499
aVabout
p3500
aVher
p3501
ag22
aaa(lp3502
Vgeorge
p3503
a(lp3504
g13
aV'm
p3505
aVokay
p3506
ag22
ag13
aV'm
p3507
aVfine
p3508
ag22
ag13
aV'm
p3509
aVwonderful
p3510
ag22
ag13
aVnever
p3511
aVfelt
p3512
aVbetter
p3513
aVin
p3514
aVmy
p3515
aVwhole
p3516
aVlife
p3517
ag22
aaa(lp3518
Vjerry
p3519
a(lp3520
Vgood
p3521
ag22
aVand
p3522
ag13
aV'll
p3523
aVtell
p3524
aVyou
p3525
aVwhat
p3526
aVyou
p3527
aVdo
p3528
aVn't
p3529
aVhave
p3530
aVto
p3531
aVpay
p3532
aVme
p3533
aVback
p3534
aVthe
p3535
aVthirty-five
p3536
ag13
aVgave
p3537
aVto
p3538
aVthe
p3539
aVchiropractor
p3540
aVfor
p3541
aVthe
p3542
aVrest
p3543
aVof
p3544
aVyour
p3545
aVbill
p3546
ag22
aaa(lp3547
Vgeorge
p3548
a(lp3549
Vyou
p3550
aVpaid
p3551
aVthat
p3552
aVcrook
p3553
ag29
ag192
aaa(lp3554
Vjerry
p3555
a(lp3556
g13
aVhad
p3557
aVto
p3558
ag22
aaa(lp3559
Vgeorge
p3560
a(lp3561
Vhe
p3562
aVdid
p3563
aVn't
p3564
aVdo
p3565
aVanything
p3566
ag38
aVjerry
p3567
ag22
aVit
p3568
aV's
p3569
ag52
aVscam
p3570
ag192
aVwho
p3571
aVtold
p3572
aVyou
p3573
aVto
p3574
aVdo
p3575
aVthat
p3576
ag29
aaa(lp3577
Vjerry
p3578
a(lp3579
Vit
p3580
aVwas
p3581
aVembarrassing
p3582
aVto
p3583
aVme
p3584
ag22
aaa(lp3585
Vgeorge
p3586
a(lp3587
g13
aVwas
p3588
aVtrying
p3589
aVto
p3590
aVmake
p3591
ag52
aVpoint
p3592
ag22
aaa(lp3593
Vjerry
p3594
a(lp3595
Vwhy
p3596
aVdo
p3597
aVn't
p3598
aVyou
p3599
aVmake
p3600
ag52
aVpoint
p3601
aVwith
p3602
aVyour
p3603
aVown
p3604
aVdoctor
p3605
ag29
aVwhat
p3606
aV's
p3607
aVwrong
p3608
ag29
aaa(lp3609
Vgeorge
p3610
a(lp3611
g13
aVthink
p3612
ag13
aVswallowed
p3613
ag52
aVfly
p3614
ag192
ag13
aVswallowed
p3615
ag52
aVfly
p3616
ag192
aVwhat
p3617
aVdo
p3618
ag13
aVdo
p3619
ag29
aVwhat
p3620
aVcan
p3621
aVhappen
p3622
ag29
aaa(lp3623
Vjerry
p3624
a(lp3625
Vso
p3626
ag38
aVyou
p3627
aVwant
p3628
aVto
p3629
aVcome
p3630
aVup
p3631
aVfor
p3632
ag52
aVfew
p3633
aVminutes
p3634
ag29
aaa(lp3635
Vmarlene
p3636
a(lp3637
g13
aV'm
p3638
aVsorry
p3639
ag38
aVjerry
p3640
ag22
ag13
aVjust
p3641
aVdo
p3642
aVn't
p3643
aVthink
p3644
aVthis
p3645
aVis
p3646
aVgoing
p3647
aVto
p3648
aVwork
p3649
ag22
aaa(lp3650
Vjerry
p3651
a(lp3652
Vreally
p3653
ag29
ag13
aVthought
p3654
aaa(lp3655
Vmarlene
p3656
a(lp3657
g13
aVknow
p3658
ag38
ag13
aV'm
p3659
aVsorry
p3660
ag22
aaa(lp3661
Vjerry
p3662
a(lp3663
g13
aVguess
p3664
ag13
aVjust
p3665
aVdid
p3666
aVn't
p3667
aVexpect
p3668
aVit
p3669
aVfrom
p3670
aVthe
p3671
aVway
p3672
aVyou
p3673
aV've
p3674
aVbeen
p3675
aVacting
p3676
ag22
aaa(lp3677
Vmarlene
p3678
a(lp3679
Vyou
p3680
aVsure
p3681
aVyou
p3682
aVwant
p3683
aVto
p3684
aVtalk
p3685
aVabout
p3686
aVthis
p3687
ag29
aV'cause
p3688
ag13
aVsure
p3689
aVdo
p3690
aVn't
p3691
ag22
aaa(lp3692
Vjerry
p3693
a(lp3694
Vof
p3695
aVcourse
p3696
ag13
aVwant
p3697
aVto
p3698
aVtalk
p3699
aVabout
p3700
aVit
p3701
ag22
aaa(lp3702
Vmarlene
p3703
a(lp3704
Vwell
p3705
ag38
aVokay
p3706
ag22
ag13
aVguess
p3707
aVthings
p3708
aVchanged
p3709
aVfor
p3710
aVme
p3711
aVon
p3712
aVtuesday
p3713
aVnight
p3714
ag22
aaa(lp3715
Vjerry
p3716
a(lp3717
Vtuesday
p3718
aVnight
p3719
ag29
aVwhat
p3720
aVhappened
p3721
aVtuesday
p3722
aVnight
p3723
ag29
aaa(lp3724
Vmarlene
p3725
a(lp3726
g13
aVsaw
p3727
aVyour
p3728
aVact
p3729
ag22
aaa(lp3730
Vjerry
p3731
a(lp3732
Vmy
p3733
aVact
p3734
ag29
aVwhat
p3735
aVdoes
p3736
aVthat
p3737
aVhave
p3738
aVto
p3739
aVdo
p3740
aVwith
p3741
aVanything
p3742
ag29
aaa(lp3743
Vmarlene
p3744
a(lp3745
Vwell
p3746
ag38
aVto
p3747
aVbe
p3748
aVhonest
p3749
ag38
aVit
p3750
aVjust
p3751
aVdid
p3752
aVn't
p3753
aVmake
p3754
aVit
p3755
aVfor
p3756
aVme
p3757
ag22
aVit
p3758
aV's
p3759
aVjust
p3760
aVso
p3761
aVmuch
p3762
aVfluff
p3763
ag22
aaa(lp3764
Vjerry
p3765
a(lp3766
g13
aVca
p3767
aVn't
p3768
aVbelieve
p3769
aVthis
p3770
ag22
aVso
p3771
aVwhat
p3772
aVare
p3773
aVyou
p3774
aVsaying
p3775
ag29
aVyou
p3776
aVdid
p3777
aVn't
p3778
aVlike
p3779
aVmy
p3780
aVact
p3781
ag38
aVso
p3782
aVthat
p3783
aV's
p3784
aVit
p3785
ag29
aaa(lp3786
Vmarlene
p3787
a(lp3788
g13
aVca
p3789
aVn't
p3790
aVbe
p3791
aVwith
p3792
aVsomeone
p3793
aVif
p3794
ag13
aVdo
p3795
aVn't
p3796
aVrespect
p3797
aVwhat
p3798
aVthey
p3799
aVdo
p3800
ag22
aaa(lp3801
Vjerry
p3802
a(lp3803
Vyou
p3804
aV're
p3805
ag52
aVcashier
p3806
ag192
aaa(lp3807
Vmarlene
p3808
a(lp3809
Vlook
p3810
ag38
aVjerry
p3811
ag38
aVit
p3812
aV's
p3813
aVjust
p3814
aVnot
p3815
aVmy
p3816
aVkind
p3817
aVof
p3818
aVhumor
p3819
ag22
aaa(lp3820
Vjerry
p3821
a(lp3822
Vyou
p3823
aVca
p3824
aVn't
p3825
aVgo
p3826
aVby
p3827
aVthe
p3828
aVaudience
p3829
aVthat
p3830
aVnight
p3831
ag22
aVit
p3832
aVwas
p3833
aVlate
p3834
ag22
aVthey
p3835
aVwere
p3836
aVterrible
p3837
ag22
aaa(lp3838
Vmarlene
p3839
a(lp3840
g13
aVheard
p3841
aVthe
p3842
aVmaterial
p3843
ag22
aaa(lp3844
Vjerry
p3845
a(lp3846
g13
aVhave
p3847
aVother
p3848
aVstuff
p3849
ag22
aVyou
p3850
aVshould
p3851
aVcome
p3852
aVsee
p3853
aVme
p3854
aVon
p3855
aVthe
p3856
aVweekend
p3857
ag22
aaa.