(lp0
(lp1
Vjerry
p2
a(lp3
Vthe
p4
aVpony
p5
aVremark
p6
aVwritten
p7
aVby
p8
aVlarry
p9
aVdavid
p10
aV&
p11
aVjerry
p12
aVseinfeld
p13
aVmy
p14
aVparents
p15
aVlive
p16
aVin
p17
aVflorida
p18
aVnow
p19
aV.
p20
aVthey
p21
aVmoved
p22
aVthere
p23
aVlast
p24
aVyear
p25
ag20
aVthey
p26
aVdid
p27
aVn't
p28
aVwant
p29
aVto
p30
aVmove
p31
aVto
p32
aVfloriday
p33
aV,
p34
aVbut
p35
aVthey
p36
aV're
p37
aVin
p38
aVtheir
p39
aVsixties
p40
ag34
aVand
p41
aVthat
p42
aV's
p43
aVthe
p44
aVlaw
p45
ag20
aVyou
p46
aVknow
p47
aVhow
p48
aVit
p49
aVworks
p50
ag20
aVthey
p51
aVgot
p52
aVthe
p53
aVleisure
p54
aVpolice
p55
ag20
aVthey
p56
aVpull
p57
aVup
p58
aVin
p59
aVfront
p60
aVof
p61
aVthe
p62
aVold
p63
aVpeople
p64
aV's
p65
aVhouse
p66
aVwith
p67
aVa
p68
aVgolf
p69
aVcart
p70
ag34
aVjump
p71
aVout
p72
ag34
aVlet
p73
aV's
p74
aVgo
p75
aVpop
p76
ag34
aVwhite
p77
aVbelt
p78
ag34
aVwhite
p79
aVpants
p80
ag34
aVwhite
p81
aVshoes
p82
ag34
aVget
p83
aVin
p84
aVthe
p85
aVback
p86
ag20
aVdrop
p87
aVthe
p88
aVsnow
p89
aVshovel
p90
aVright
p91
aVthere
p92
ag34
aVdrop
p93
aVit
p94
aV!
p95
aVi
p96
aVam
p97
aVnot
p98
aVmuch
p99
aVfor
p100
aVthe
p101
aVfamily
p102
aVgathering
p103
ag20
aVyou
p104
aVknow
p105
ag34
aVyou
p106
aVsit
p107
aVthere
p108
ag34
aVand
p109
aVthe
p110
aVconversation
p111
aV's
p112
aVso
p113
aVboring
p114
ag20
aVit
p115
aV's
p116
aVso
p117
aVdull
p118
ag20
aVand
p119
aVyou
p120
aVstart
p121
aVto
p122
aVfantasize
p123
ag20
aVyou
p124
aVknow
p125
ag34
aVyou
p126
aVthink
p127
ag34
aVwhat
p128
aVif
p129
ag96
aVjust
p130
aVgot
p131
aVup
p132
aVand
p133
aVjumped
p134
aVout
p135
aVthat
p136
aVwindow
p137
aV?
p138
aVwhat
p139
aVwould
p140
aVit
p141
aVbe
p142
aVlike
p143
ag138
aVjust
p144
aVcrashed
p145
aVright
p146
aVthrough
p147
aVthe
p148
aVglass
p149
aVyou
p150
aVknow
p151
ag20
aVcome
p152
aVback
p153
aVin
p154
ag34
aVthere
p155
aV's
p156
aVbroken
p157
aVglass
p158
ag34
aVeverybody
p159
aV's
p160
aVall
p161
aVupset
p162
ag20
aVno
p163
ag34
ag96
aV'm
p164
aValright
p165
ag20
ag96
aVwas
p166
aVjust
p167
ag68
aVlittle
p168
aVbored
p169
ag34
aVthere
p170
ag20
aVno
p171
ag34
ag96
aV'm
p172
aVfine
p173
ag20
ag96
aVcame
p174
aVback
p175
ag20
ag96
aVwanted
p176
aVto
p177
aVhear
p178
ag68
aVlittle
p179
aVabout
p180
aVthat
p181
aVhummel
p182
aVcollection
p183
ag34
aVaunt
p184
aVrose
p185
ag20
aVlet
p186
aV's
p187
aVpick
p188
aVit
p189
aVup
p190
aVright
p191
aVthere
p192
ag20
aaa(lp193
Vhelen
p194
a(lp195
Vyou
p196
aVhave
p197
aVso
p198
aVmany
p199
aVnice
p200
aVjackets
p201
ag20
ag96
aVdo
p202
aVn't
p203
aVknow
p204
aVwhy
p205
aVyou
p206
aVhad
p207
aVto
p208
aVbring
p209
aVthis
p210
aVjacket
p211
ag20
aVwho
p212
aVwears
p213
ag68
aVjacket
p214
aVlike
p215
aVthis
p216
ag138
aVwhat
p217
aV's
p218
aVwrong
p219
aVwith
p220
aVthat
p221
aVnice
p222
aVgray
p223
aVone
p224
ag138
aVyou
p225
aVhave
p226
aVbeautiful
p227
aVclothes
p228
ag20
aVthey
p229
aVsit
p230
aVin
p231
aVyour
p232
aVcloset
p233
ag20
aVmorty
p234
ag34
aVyou
p235
aVca
p236
aVn't
p237
aVwear
p238
aV-
p239
aVthis
p240
ag95
aaa(lp241
Vmorty
p242
a(lp243
Vare
p244
aVyou
p245
aVgetting
p246
aVthat
p247
ag138
aaa(lp248
Vhelen
p249
a(lp250
g96
aVthought
p251
aVyou
p252
aVwere
p253
aVgetting
p254
aVit
p255
ag20
aaa(lp256
Vmorty
p257
a(lp258
Vshould
p259
ag96
aVpick
p260
aVup
p261
ag138
aaa(lp262
Vhelen
p263
a(lp264
Vyou
p265
aVwant
p266
aVme
p267
aVto
p268
aVget
p269
aVthat
p270
ag138
aaa(lp271
Vmorty
p272
a(lp273
g96
aV'll
p274
aVget
p275
aVit
p276
ag95
aaa(lp277
Vhelen
p278
a(lp279
g96
aV'll
p280
aVget
p281
aVit
p282
ag95
aaa(lp283
Vhelen
p284
a(lp285
Vhello
p286
ag138
aVhello
p287
ag138
aaa(lp288
Vjerry
p289
a(lp290
Vwould
p291
aVyou
p292
aVmake
p293
aVthis
p294
aVthing
p295
aVlower
p296
ag95
ag96
aVcan
p297
aVhear
p298
aVit
p299
aVon
p300
aVthe
p301
aVstreet
p302
ag95
aaa(lp303
Vmorty
p304
a(lp305
Vso
p306
ag34
aVhow
p307
aV'd
p308
aVyou
p309
aVdo
p310
ag138
aaa(lp311
Vjerry
p312
a(lp313
Vwe
p314
aVwon
p315
ag20
ag96
aVmade
p316
aVan
p317
aVincredible
p318
aVplay
p319
aVin
p320
aVthe
p321
aVfield
p322
ag95
aVthere
p323
aVwas
p324
ag68
aVtag-up
p325
aVat
p326
aVthird
p327
aVbase
p328
aVand
p329
ag96
aVthrew
p330
aVthe
p331
aVguy
p332
aVout
p333
aVfrom
p334
aVleft
p335
aVfield
p336
aVon
p337
ag68
aVfly
p338
ag95
aVwe
p339
aV'll
p340
aVbe
p341
aVin
p342
aVthe
p343
aVchampionship
p344
aVgame
p345
aVwednesday
p346
aVbecause
p347
aVof
p348
aVme
p349
ag20
aVit
p350
aVwas
p351
aVthe
p352
aVsingle
p353
aVgreatest
p354
aVmoment
p355
aVof
p356
aVmy
p357
aVlife
p358
ag20
aaa(lp359
Vhelen
p360
a(lp361
Vthis
p362
aVis
p363
aVyour
p364
aVgreatest
p365
aVmoment
p366
ag138
ag68
aVgame
p367
ag138
aaa(lp368
Vjerry
p369
a(lp370
Vwell
p371
ag34
aVno
p372
ag20
aVsharon
p373
aVbesser
p374
ag34
aVof
p375
aVcourse
p376
ag20
aaa(lp377
Vmorty
p378
a(lp379
Vyou
p380
aVknow
p381
aVwhat
p382
aVmy
p383
aVgreatest
p384
aVmoment
p385
aVwas
p386
ag34
aVdo
p387
aVn't
p388
aVyou
p389
ag138
aV1946.
p390
ag96
aVwent
p391
aVto
p392
aVwork
p393
aVfor
p394
aVharry
p395
aVflemming
p396
aVand
p397
ag96
aVcame
p398
aVup
p399
aVwith
p400
aVthe
p401
aVidea
p402
aVfor
p403
aVthe
p404
aVbeltless
p405
aVtrench
p406
aVcoat
p407
ag20
aaa(lp408
Vhelen
p409
a(lp410
Vjerry
p411
ag34
aVlook
p412
aVat
p413
aVthis
p414
aVsport
p415
aVjacket
p416
ag20
aVis
p417
aVthis
p418
ag68
aVjacket
p419
aVto
p420
aVwear
p421
aVto
p422
aVan
p423
aVanniversary
p424
aVparty
p425
ag138
aaa(lp426
Vjerry
p427
a(lp428
Vwell
p429
ag34
aVthe
p430
aVman
p431
aV's
p432
aVan
p433
aVindividualist
p434
ag20
aVhe
p435
aVworked
p436
aVfor
p437
aVharry
p438
aVflemming
p439
ag20
aVhe
p440
aVknows
p441
aVwhat
p442
aVhe
p443
aV's
p444
aVdoing
p445
ag20
aaa(lp446
Vhelen
p447
a(lp448
Vbut
p449
aVit
p450
aV's
p451
aVtheir
p452
aV50th
p453
aVanniversary
p454
ag20
aaa(lp455
Vmorty
p456
a(lp457
Vyou
p458
aVknow
p459
ag34
ag96
aVspoke
p460
aVto
p461
aVmanya
p462
aVand
p463
aVisaac
p464
aVon
p465
aVthe
p466
aVphone
p467
aVtoday
p468
ag20
aVthey
p469
aVinvited
p470
aVyou
p471
aVagain
p472
ag20
ag96
aVthink
p473
aVyou
p474
aVshould
p475
aVgo
p476
ag20
aaa(lp477
Vjerry
p478
a(lp479
Vfirst
p480
aVof
p481
aVall
p482
ag34
ag96
aVmade
p483
aVplans
p484
aVwith
p485
aVelaine
p486
ag20
aaa(lp487
Vhelen
p488
a(lp489
Vso
p490
aVbring
p491
aVher
p492
ag20
aaa(lp493
Vjerry
p494
a(lp495
g96
aVdo
p496
aVn't
p497
aVeven
p498
aVknow
p499
aVthem
p500
ag20
aVwhat
p501
aVis
p502
aVshe
p503
ag34
aVyour
p504
aVsecond
p505
aVcousin
p506
ag138
ag96
aVmean
p507
ag34
ag96
aV've
p508
aVmet
p509
aVthem
p510
aVthree
p511
aVtimes
p512
aVin
p513
aVmy
p514
aVlife
p515
ag20
aaa(lp516
Vmorty
p517
a(lp518
g96
aVdo
p519
aVn't
p520
aVknow
p521
aVher
p522
aVeither
p523
ag20
aVshe
p524
aVmakes
p525
aVme
p526
aVfly
p527
aVall
p528
aVthe
p529
aVway
p530
aVfrom
p531
aVfloriday
p532
aVfor
p533
aVthis
p534
ag34
aVand
p535
aVthen
p536
aVshe
p537
aVcriticizes
p538
aVmy
p539
aVjacket
p540
ag20
aaa(lp541
Vhelen
p542
a(lp543
Vat
p544
aVleast
p545
aVcome
p546
aVand
p547
aVsay
p548
aVhello
p549
ag34
aVhave
p550
ag68
aVcup
p551
aVof
p552
aVcoffee
p553
ag34
aVthen
p554
aVyou
p555
aV'll
p556
aVleave
p557
ag20
aaa(lp558
Vmorty
p559
a(lp560
Vhow
p561
aVcome
p562
aVhe
p563
aVgets
p564
aVto
p565
aVleave
p566
ag138
aaa(lp567
Vjerry
p568
a(lp569
Vif
p570
ag96
aVwind
p571
aVup
p572
aVsitting
p573
aVnest
p574
aVto
p575
aVuncle
p576
aVleo
p577
ag34
ag96
aVam
p578
aVleaving
p579
ag20
aVhe
p580
aV's
p581
aValways
p582
aVgrabbing
p583
aVmy
p584
aVarm
p585
aVwhen
p586
aVhe
p587
aVtalks
p588
aVto
p589
aVme
p590
ag20
ag96
aVguess
p591
aVit
p592
aV's
p593
aVbecause
p594
aVso
p595
aVmany
p596
aVpeople
p597
aVhave
p598
aVleft
p599
aVin
p600
aVthe
p601
aVmiddle
p602
aVof
p603
aVhis
p604
aVconversation
p605
ag20
aaa(lp606
Vmorty
p607
a(lp608
Vand
p609
aVit
p610
aV's
p611
aValways
p612
aVabout
p613
aVjeffrey
p614
ag34
aVright
p615
ag138
aaa(lp616
Vjerry
p617
a(lp618
Vhey
p619
ag34
aVhe
p620
aVtalks
p621
aVabout
p622
aVhim
p623
aVlike
p624
aVhe
p625
aVsplit
p626
aVthe
p627
aVatom
p628
ag20
aVthe
p629
aVkid
p630
aVworks
p631
aVfor
p632
aVthe
p633
aVparks
p634
aVdepartment
p635
ag20
aaa(lp636
Vkramer
p637
a(lp638
Vmorty
p639
ag34
aVare
p640
aVyou
p641
aVcoming
p642
aVin
p643
ag138
aaa(lp644
Vmorty
p645
a(lp646
Voh
p647
ag34
aVyeah
p648
ag20
ag96
aVforgot
p649
aVall
p650
aVabout
p651
aVit
p652
ag20
aaa(lp653
Vkramer
p654
a(lp655
Vhey
p656
ag34
aVhow
p657
aV'd
p658
aVyou
p659
aVdo
p660
ag138
aaa(lp661
Vjerry
p662
a(lp663
Vwe
p664
aVwon
p665
ag20
aVwe
p666
aV're
p667
aVin
p668
aVthe
p669
aVfinals
p670
aVon
p671
aVwednesday
p672
aaa(lp673
Vkramer
p674
a(lp675
Vyeah
p676
ag95
aaa(lp677
Vjerry
p678
a(lp679
Vwhat
p680
aVis
p681
aVthis
p682
aVabout
p683
ag138
aaa(lp684
Vkramer
p685
a(lp686
g96
aV'm
p687
aVcompletely
p688
aVchanging
p689
aVthe
p690
aVconfiguration
p691
aVof
p692
aVthe
p693
aVapartment
p694
ag20
aVyou
p695
aV're
p696
aVnot
p697
aVgon
p698
aVna
p699
aVbelieve
p700
aVit
p701
aVwhen
p702
aVyou
p703
aVsee
p704
aVit
p705
ag20
ag68
aVwhole
p706
aVnew
p707
aVlifestyle
p708
ag20
aaa(lp709
Vjerry
p710
a(lp711
Vwhat
p712
aVare
p713
aVyou
p714
aVdoing
p715
ag138
aaa(lp716
Vkramer
p717
a(lp718
Vlevels
p719
ag20
aaa(lp720
Vjerry
p721
a(lp722
Vlevels
p723
ag138
aaa(lp724
Vkramer
p725
a(lp726
Vyeah
p727
ag34
ag96
aV'm
p728
aVgetting
p729
aVrid
p730
aVof
p731
aVall
p732
aVmy
p733
aVfurniture
p734
ag20
aVall
p735
aVof
p736
aVit
p737
ag20
aVand
p738
ag96
aV'm
p739
aVgoing
p740
aVto
p741
aVbuild
p742
aVthese
p743
aVdifferent
p744
aVlevels
p745
ag34
aVwith
p746
aVsteps
p747
ag34
aVand
p748
aVit
p749
aV'll
p750
aVall
p751
aVbe
p752
aVcarpeted
p753
aVwith
p754
ag68
aVlot
p755
aVof
p756
aVpillows
p757
ag20
aVyou
p758
aVknow
p759
ag34
aVlike
p760
aVancient
p761
aVegypt
p762
ag20
aaa(lp763
Vjerry
p764
a(lp765
Vyou
p766
aVdrew
p767
aVup
p768
aVplans
p769
aVfor
p770
aVthis
p771
ag138
aaa(lp772
Vkramer
p773
a(lp774
Vno
p775
ag34
aVno
p776
ag20
aVit
p777
aV's
p778
aVall
p779
aVin
p780
aVmy
p781
aVhead
p782
ag20
aaa(lp783
Vmorty
p784
a(lp785
g96
aVdo
p786
aVn't
p787
aVknow
p788
aVhow
p789
aVyou
p790
aV're
p791
aVgoing
p792
aVto
p793
aVbe
p794
aVcomfortable
p795
aVlike
p796
aVthat
p797
ag20
aaa(lp798
Vkramer
p799
a(lp800
Voh
p801
ag34
ag96
aV'll
p802
aVbe
p803
aVcomfortable
p804
ag20
aaa(lp805
Vjerry
p806
a(lp807
Vwhen
p808
aVdo
p809
aVyou
p810
aVintend
p811
aVto
p812
aVdo
p813
aVthis
p814
ag138
aaa(lp815
Vkramer
p816
a(lp817
Vohh
p818
aVshould
p819
aVbe
p820
aVdone
p821
aVby
p822
aVthe
p823
aVend
p824
aVof
p825
aVthe
p826
aVmonth
p827
ag20
aaa(lp828
Vjerry
p829
a(lp830
Vyou
p831
aV're
p832
aVdoing
p833
aVthis
p834
aVyourself
p835
ag138
aaa(lp836
Vkramer
p837
a(lp838
Vit
p839
aV's
p840
ag68
aVsimple
p841
aVjob
p842
ag20
aVwhy
p843
ag34
aVyou
p844
aVdo
p845
aVn't
p846
aVthink
p847
ag96
aVcan
p848
ag138
aaa(lp849
Vjerry
p850
a(lp851
Voh
p852
ag34
aVno
p853
ag20
aVit
p854
aV's
p855
aVnot
p856
aVthat
p857
ag96
aVdo
p858
aVn't
p859
aVthink
p860
aVyou
p861
aVcan
p862
ag20
ag96
aVknow
p863
aVthat
p864
aVyou
p865
aVca
p866
aVn't
p867
ag34
aVand
p868
ag96
aV'm
p869
aVpositive
p870
aVthat
p871
aVyou
p872
aVwo
p873
aVn't
p874
ag20
aaa(lp875
Vkramer
p876
a(lp877
Vwell
p878
ag34
ag96
aVgot
p879
aVthe
p880
aVtools
p881
ag20
ag96
aVgot
p882
aVthe
p883
aVpillows
p884
ag20
aVall
p885
ag96
aVneed
p886
aVis
p887
aVthe
p888
aVlumber
p889
ag20
aaa(lp890
Vmorty
p891
a(lp892
Vhey
p893
ag34
aVthat
p894
aV's
p895
aVsome
p896
aVbig
p897
aVjob
p898
ag20
aaa(lp899
Vjerry
p900
a(lp901
g96
aVdo
p902
aVn't
p903
aVsee
p904
aVit
p905
aVhappening
p906
ag20
aaa(lp907
Vkramer
p908
a(lp909
Vwell
p910
ag34
aVthis
p911
aVtime
p912
ag34
aVthis
p913
aVtime
p914
aVyou
p915
aV're
p916
aVwrong
p917
ag20
aVc'mon
p918
ag20
ag96
aV'll
p919
aVeven
p920
aVbet
p921
aVyou
p922
ag20
aaa(lp923
Vjerry
p924
a(lp925
Vseriously
p926
ag138
aaa(lp927
Vhelen
p928
a(lp929
g96
aVdont
p930
aV'
p931
aVwant
p932
aVyou
p933
aVbetting
p934
ag20
aVmorty
p935
ag34
aVdo
p936
aVn't
p937
aVlet
p938
aVhim
p939
aVbet
p940
ag20
aaa(lp941
Vkramer
p942
a(lp943
g68
aVbig
p944
aVdinner
p945
aVwith
p946
aVdessert
p947
ag20
aVbut
p948
ag96
aV've
p949
aVgot
p950
aVtill
p951
aVthe
p952
aVend
p953
aVof
p954
aVthe
p955
aVmonth
p956
ag20
aaa(lp957
Vjerry
p958
a(lp959
g96
aV'll
p960
aVgive
p961
aVyou
p962
ag68
aVyear
p963
ag20
aaa(lp964
Vkramer
p965
a(lp966
Vno
p967
ag34
aVno
p968
ag34
aVno
p969
ag20
aVend
p970
aVof
p971
aVthe
p972
aVmonth
p973
ag20
aaa(lp974
Vjerry
p975
a(lp976
Vit
p977
aV's
p978
ag68
aVbet
p979
ag20
aaa(lp980
Vjerry
p981
a(lp982
Vseriously
p983
ag34
aVdo
p984
aVyou
p985
aVwnat
p986
aVto
p987
aVswitch
p988
aVchairs
p989
ag138
aaa(lp990
Velaine
p991
a(lp992
Vno
p993
ag34
aVno
p994
ag20
ag96
aV'm
p995
aVfine
p996
ag20
aaa(lp997
Vleo
p998
a(lp999
Vjerry
p1000
ag34
aVare
p1001
aVyou
p1002
aVlistening
p1003
aVto
p1004
aVthis
p1005
ag138
aaa(lp1006
Vjerry
p1007
a(lp1008
Vyeah
p1009
ag34
aVuncle
p1010
aVleo
p1011
ag20
aaa(lp1012
Vleo
p1013
a(lp1014
Vso
p1015
ag34
aVso
p1016
ag34
aVnow
p1017
aVthe
p1018
aVparks
p1019
aVcommissioner
p1020
aVis
p1021
aVrecommending
p1022
aVjeffrey
p1023
aVfor
p1024
ag68
aVcitation
p1025
ag20
aaa(lp1026
Vjerry
p1027
a(lp1028
Vright
p1029
ag20
aVfor
p1030
aVreducing
p1031
aVthe
p1032
aVpond
p1033
aVscum
p1034
ag138
aaa(lp1035
Vleo
p1036
a(lp1037
Vno
p1038
ag34
aVfor
p1039
aVthe
p1040
aVwalking
p1041
aVtours
p1042
ag20
aaa(lp1043
Vjerry
p1044
a(lp1045
Voh
p1046
ag34
aVyeah
p1047
ag20
aVwhere
p1048
aVthe
p1049
aVpeople
p1050
aVeat
p1051
aVthe
p1052
aVplant
p1053
aVlife
p1054
ag239
aVthe
p1055
aVedible
p1056
aVfoliage
p1057
aVtour
p1058
ag20
aaa(lp1059
Vleo
p1060
a(lp1061
Vthat
p1062
aV's
p1063
aVexactly
p1064
aVright
p1065
ag20
aVhe
p1066
aVknows
p1067
aVthe
p1068
aVwhole
p1069
aVhistory
p1070
aVof
p1071
aVthe
p1072
aVpark
p1073
ag20
aVfor
p1074
aVtwo
p1075
aVhours
p1076
aVhe
p1077
aV's
p1078
aVtalking
p1079
aVand
p1080
aVanswering
p1081
aVquestions
p1082
ag20
aVbut
p1083
aVyou
p1084
aVwant
p1085
aVto
p1086
aVknow
p1087
aVsomething
p1088
ag138
aVwhenever
p1089
aVhe
p1090
aVhas
p1091
ag68
aVproblem
p1092
aVwith
p1093
aVone
p1094
aVof
p1095
aVthese
p1096
aVhigh-powered
p1097
aVbig
p1098
aVshots
p1099
aVin
p1100
aVthe
p1101
aVparks
p1102
aVdepartment
p1103
ag34
aVyou
p1104
aVknow
p1105
aVwho
p1106
aVhe
p1107
aVcalls
p1108
ag138
aaa(lp1109
Vjerry
p1110
a(lp1111
Vmickey
p1112
aVmantle
p1113
ag138
aaa(lp1114
Velaine
p1115
a(lp1116
Vjerry
p1117
ag34
aVjerry
p1118
ag20
aVdid
p1119
aVyou
p1120
aVtaste
p1121
aVthese
p1122
aVpeas
p1123
ag138
aVthese
p1124
aVpeas
p1125
aVare
p1126
aVgreat
p1127
ag95
aaa(lp1128
Vjerry
p1129
a(lp1130
Vthese
p1131
aVpeas
p1132
aVare
p1133
aVbursting
p1134
aVwith
p1135
aVcountry-fresh
p1136
aVflavor
p1137
ag20
aaa(lp1138
Velaine
p1139
a(lp1140
Vmmm
p1141
aVphenomenal
p1142
aVpeas
p1143
aaa(lp1144
Vmorty
p1145
a(lp1146
Vare
p1147
aVyou
p1148
aVready
p1149
aVfor
p1150
aVdessert
p1151
ag138
aaa(lp1152
Vjerry
p1153
a(lp1154
Vwell
p1155
ag34
aVactually
p1156
ag34
aVwe
p1157
aVdo
p1158
aVhave
p1159
aVto
p1160
aVkind
p1161
aVof
p1162
aVget
p1163
aVgoing
p1164
ag20
aaa(lp1165
Vmanya
p1166
a(lp1167
Vyou
p1168
aV're
p1169
aVgoing
p1170
ag138
aaa(lp1171
Velaine
p1172
a(lp1173
g96
aVdo
p1174
aVn't
p1175
aVreally
p1176
aVeat
p1177
aVdessert
p1178
ag20
ag96
aV'm
p1179
aVdieting
p1180
ag20
aaa(lp1181
Vjerry
p1182
a(lp1183
Vyeah
p1184
ag34
ag96
aVca
p1185
aVn't
p1186
aVeat
p1187
aVdessert
p1188
aVeither
p1189
ag20
aVthe
p1190
aVsugar
p1191
aVmakes
p1192
aVmy
p1193
aVankles
p1194
aVswell
p1195
aVup
p1196
ag34
aVand
p1197
ag96
aVca
p1198
aVn't
p1199
aVdance
p1200
ag20
aaa(lp1201
Vmanya
p1202
a(lp1203
Vca
p1204
aVn't
p1205
aVdance
p1206
ag138
aaa(lp1207
Vhelen
p1208
a(lp1209
Vhe
p1210
aV's
p1211
aVkidding
p1212
ag34
aVmanya
p1213
ag20
aaa(lp1214
Vmanya
p1215
a(lp1216
Vis
p1217
aVthat
p1218
ag68
aVjoke
p1219
ag138
aaa(lp1220
Vhelen
p1221
a(lp1222
Vso
p1223
ag34
aVdid
p1224
aVyou
p1225
aVhear
p1226
aVclaire
p1227
aV's
p1228
aVgetting
p1229
aVmarried
p1230
ag138
aaa(lp1231
Vmanya
p1232
a(lp1233
Vyeah
p1234
ag34
aVyeah
p1235
aaa(lp1236
Vhelen
p1237
a(lp1238
g96
aVhear
p1239
aVthe
p1240
aVfella
p1241
aVowns
p1242
ag68
aVcouple
p1243
aVof
p1244
aVracehorses
p1245
ag20
aVyou
p1246
aVknow
p1247
ag34
aVtrotters
p1248
ag34
aVlike
p1249
aVat
p1250
aVyonkers
p1251
ag20
aaa(lp1252
Vjerry
p1253
a(lp1254
Vhorses
p1255
ag20
aVthey
p1256
aV're
p1257
aVlike
p1258
aVbig
p1259
aVriding
p1260
aVdogs
p1261
ag20
aaa(lp1262
Velaine
p1263
a(lp1264
Vwhat
p1265
aVabout
p1266
aVponies
p1267
ag138
aVwhat
p1268
aVkind
p1269
aVof
p1270
aVabnormal
p1271
aVanimal
p1272
aVis
p1273
aVthat
p1274
ag138
aVand
p1275
aVthose
p1276
aVkids
p1277
aVwho
p1278
aVhad
p1279
aVtheir
p1280
aVown
p1281
aVponies
p1282
aaa(lp1283
Vjerry
p1284
a(lp1285
g96
aVknow
p1286
ag34
ag96
aVhated
p1287
aVthose
p1288
aVkids
p1289
ag20
aVin
p1290
aVfact
p1291
ag34
ag96
aVhate
p1292
aVanyone
p1293
aVthat
p1294
aVever
p1295
aVhad
p1296
ag68
aVpony
p1297
aVwhen
p1298
aVthey
p1299
aVwere
p1300
aVgrowing
p1301
aVup
p1302
ag20
aaa(lp1303
Vmanya
p1304
a(lp1305
g96
aVhad
p1306
ag68
aVpony
p1307
ag20
aaa(lp1308
Vjerry
p1309
a(lp1310
Vwell
p1311
ag34
ag96
aVdid
p1312
aVn't
p1313
aVreally
p1314
aVmean
p1315
ag68
aVpony
p1316
ag34
aVper
p1317
aVse
p1318
ag20
aaa(lp1319
Vmanya
p1320
a(lp1321
Vwhen
p1322
ag96
aVwas
p1323
ag68
aVlittle
p1324
aVgirl
p1325
aVin
p1326
aVpoland
p1327
ag34
aVwe
p1328
aVall
p1329
aVhad
p1330
aVponies
p1331
ag20
aVmy
p1332
aVsister
p1333
aVhad
p1334
aVpony
p1335
ag34
aVmy
p1336
aVcousin
p1337
aVhad
p1338
aVpony
p1339
ag34
aVso
p1340
ag34
aVwhat
p1341
aV's
p1342
aVwrong
p1343
aVwith
p1344
aVthat
p1345
ag138
aaa(lp1346
Vjerry
p1347
a(lp1348
Vnothing
p1349
ag20
aVnothing
p1350
aVat
p1351
aVall
p1352
ag20
ag96
aVwas
p1353
aVjust
p1354
aVmerely
p1355
aVexpressting
p1356
aaa(lp1357
Vhelen
p1358
a(lp1359
Vshould
p1360
aVwe
p1361
aVhave
p1362
aVcoffee
p1363
ag138
aVwho
p1364
aV's
p1365
aVhaving
p1366
aVcoffee
p1367
ag138
aaa(lp1368
Vmanya
p1369
a(lp1370
Vhe
p1371
aVwas
p1372
ag68
aVbeautiful
p1373
aVpony
p1374
ag95
aVand
p1375
ag96
aVloved
p1376
aVhim
p1377
ag20
aaa(lp1378
Vjerry
p1379
a(lp1380
Vwell
p1381
ag34
ag96
aV'm
p1382
aVsure
p1383
aVyou
p1384
aVdid
p1385
ag20
aVwho
p1386
aVwould
p1387
aVn't
p1388
aVlove
p1389
ag68
aVpony
p1390
ag138
aVwho
p1391
aVwould
p1392
aVn't
p1393
aVlove
p1394
ag68
aVperson
p1395
aVthat
p1396
aVhad
p1397
ag68
aVpony
p1398
ag138
aaa(lp1399
Vmanya
p1400
a(lp1401
Vyou
p1402
ag95
aVyou
p1403
aVsaid
p1404
aVso
p1405
ag95
aaa(lp1406
Vjerry
p1407
a(lp1408
Vno
p1409
ag34
aVsee
p1410
ag34
aVwe
p1411
aVdid
p1412
aVn't
p1413
aVhave
p1414
aVponies
p1415
ag20
ag96
aV'm
p1416
aVsure
p1417
aVat
p1418
aVthe
p1419
aVtime
p1420
aVin
p1421
aVpoland
p1422
ag34
aVthey
p1423
aVwere
p1424
aVvery
p1425
aVcommon
p1426
ag20
aVthey
p1427
aVwere
p1428
aVprobably
p1429
aVlike
p1430
aVcompact
p1431
aVcars
p1432
aaa(lp1433
Vmanya
p1434
a(lp1435
Vthat
p1436
aV's
p1437
aVit
p1438
ag95
ag96
aV've
p1439
aVhad
p1440
aVenough
p1441
ag95
aaa(lp1442
Visaac
p1443
a(lp1444
Vhave
p1445
aVyour
p1446
aVcoffee
p1447
ag34
aVeveryone
p1448
ag20
aVshe
p1449
aV's
p1450
ag68
aVlittle
p1451
aVupset
p1452
ag20
aVit
p1453
aV's
p1454
aVbeen
p1455
aVan
p1456
aVemotional
p1457
aVday
p1458
ag20
aaa(lp1459
Vjerry
p1460
a(lp1461
g96
aVdid
p1462
aVn't
p1463
aVknow
p1464
aVshe
p1465
aVhad
p1466
ag68
aVpony
p1467
ag20
aVhow
p1468
aVwas
p1469
ag96
aVto
p1470
aVknow
p1471
aVshe
p1472
aVhad
p1473
ag68
aVpony
p1474
ag138
aVwho
p1475
aVfigures
p1476
aVan
p1477
aVimmigrant
p1478
aV's
p1479
aVgoing
p1480
aVto
p1481
aVhave
p1482
ag68
aVpony
p1483
ag138
aVdo
p1484
aVyou
p1485
aVknow
p1486
aVwhat
p1487
aVthe
p1488
aVodds
p1489
aVare
p1490
aVon
p1491
aVthat
p1492
ag138
ag96
aVmean
p1493
ag34
aVin
p1494
aVall
p1495
aVthe
p1496
aVpictures
p1497
ag96
aVsaw
p1498
aVof
p1499
aVimmigrants
p1500
aVon
p1501
aVboats
p1502
aVcoming
p1503
aVinto
p1504
aVnew
p1505
aVyork
p1506
aVharbor
p1507
ag34
ag96
aVnever
p1508
aVsaw
p1509
aVone
p1510
aVof
p1511
aVthem
p1512
aVsitting
p1513
aVon
p1514
ag68
aVpony
p1515
ag20
aVwhy
p1516
aVwould
p1517
aVanybody
p1518
aVcome
p1519
aVhre
p1520
aVif
p1521
aVthey
p1522
aVhad
p1523
ag68
aVpony
p1524
ag138
aVwho
p1525
aVleaves
p1526
ag68
aVcountry
p1527
aVpacked
p1528
aVwith
p1529
aVponies
p1530
aVto
p1531
aVcome
p1532
aVto
p1533
ag68
aVnon-pony
p1534
aVcountry
p1535
ag138
aVit
p1536
aVdoes
p1537
aVn't
p1538
aVmake
p1539
aVsense
p1540
aVam
p1541
ag96
aVwrong
p1542
ag138
aaa(lp1543
Vjerry
p1544
a(lp1545
g96
aV'll
p1546
aVdrive
p1547
aVyou
p1548
aVto
p1549
aVthe
p1550
aVairport
p1551
ag20
aaa(lp1552
Vhelen
p1553
a(lp1554
Vno
p1555
ag34
aVwe
p1556
aV're
p1557
aVtaking
p1558
ag68
aVcab
p1559
ag20
aaa(lp1560
Vjerry
p1561
a(lp1562
g96
aVjust
p1563
aVhope
p1564
aVthat
p1565
aVwhole
p1566
aVpony
p1567
aVincident
p1568
aVdid
p1569
aVn't
p1570
aVput
p1571
ag68
aVdamper
p1572
aVon
p1573
aVthe
p1574
aVtrip
p1575
ag20
aaa(lp1576
Vhelen
p1577
a(lp1578
Vdo
p1579
aVn't
p1580
aVbe
p1581
aVrediculous
p1582
ag20
aVit
p1583
aVwas
p1584
ag68
aVmisunderstanding
p1585
ag20
aaa(lp1586
Vmorty
p1587
a(lp1588
Vhey
p1589
ag34
ag96
aVagree
p1590
aVwith
p1591
aVhim
p1592
ag20
aVnobody
p1593
aVlikes
p1594
ag68
aVkid
p1595
aVwith
p1596
ag68
aVpony
p1597
ag20
aaa(lp1598
Vjerry
p1599
a(lp1600
Vwell
p1601
ag34
aVif
p1602
aVyou
p1603
aVever
p1604
aVtalk
p1605
aVto
p1606
aVher
p1607
ag34
aVtell
p1608
aVher
p1609
ag96
aV'm
p1610
aVsorry
p1611
ag20
aVelaine
p1612
aVtoo
p1613
ag20
aVshe
p1614
aVfeels
p1615
aVterrible
p1616
ag20
aaa(lp1617
Vhelen
p1618
a(lp1619
Vyou
p1620
aVknow
p1621
ag34
aVyou
p1622
aVshould
p1623
aVgive
p1624
aVmanya
p1625
ag68
aVcall
p1626
ag20
aaa(lp1627
Vjerry
p1628
a(lp1629
Vmaybe
p1630
ag96
aVwill
p1631
ag20
aaa(lp1632
Vkramer
p1633
a(lp1634
Voh
p1635
ag34
aVhi
p1636
ag20
ag96
aVjust
p1637
aVcame
p1638
aVto
p1639
aVsay
p1640
aVgoodbye
p1641
ag20
aVneed
p1642
aVany
p1643
aVhelp
p1644
aVwith
p1645
aVthose
p1646
ag138
aaa(lp1647
Vmorty
p1648
a(lp1649
Vit
p1650
aV's
p1651
aVnothing
p1652
ag20
ag96
aVgot
p1653
aVit
p1654
ag20
aVso
p1655
ag34
aVhow
p1656
aVare
p1657
aVyour
p1658
aVlevels
p1659
aVcoming
p1660
aValong
p1661
ag138
aaa(lp1662
Vkramer
p1663
a(lp1664
Voh
p1665
ag34
aVwell
p1666
ag96
aVdecided
p1667
ag96
aV'm
p1668
aVnot
p1669
aVgon
p1670
aVna
p1671
aVdo
p1672
aVit
p1673
ag20
aaa(lp1674
Vjerry
p1675
a(lp1676
Vreally
p1677
ag138
aVwhat
p1678
ag68
aVshock
p1679
ag20
aaa(lp1680
Vhelen
p1681
a(lp1682
Vgoodbye
p1683
ag34
aVjerry
p1684
ag20
aaa(lp1685
Vjerry
p1686
a(lp1687
Vtake
p1688
aVcare
p1689
ag20
aaa(lp1690
Vhelen
p1691
a(lp1692
Vwe
p1693
aV'll
p1694
aVcall
p1695
aVyou
p1696
ag20
aaa(lp1697
Vmorty
p1698
a(lp1699
Vbye
p1700
ag34
aVjer
p1701
ag20
aaa(lp1702
Vjerry
p1703
a(lp1704
Vbye
p1705
ag34
aVdad
p1706
ag20
aVtake
p1707
aVit
p1708
aVeasy
p1709
ag20
aaa(lp1710
Vmorty
p1711
a(lp1712
Vbye
p1713
ag34
aVmr.
p1714
aVkramer
p1715
ag20
aaa(lp1716
Vkramer
p1717
a(lp1718
Vyeah
p1719
ag20
aVso
p1720
aVlong
p1721
ag34
aVmorty
p1722
ag20
aaa(lp1723
Vjerry
p1724
a(lp1725
Vso
p1726
ag34
aVwhen
p1727
aVdo
p1728
ag96
aVget
p1729
aVmy
p1730
aVdinner
p1731
ag138
aaa(lp1732
Vkramer
p1733
a(lp1734
Vthere
p1735
aV's
p1736
aVno
p1737
aVdinner
p1738
ag20
aVthe
p1739
aVbet
p1740
aV's
p1741
aVoff
p1742
ag20
ag96
aV'm
p1743
aVnot
p1744
aVgon
p1745
aVna
p1746
aVdo
p1747
aVit
p1748
ag20
aaa(lp1749
Vjerry
p1750
a(lp1751
Vyes
p1752
ag20
ag96
aVknow
p1753
aVyou
p1754
aV're
p1755
aVnot
p1756
aVgon
p1757
aVna
p1758
aVdo
p1759
aVit
p1760
ag20
aVthat
p1761
aV's
p1762
aVwhy
p1763
ag96
aVbet
p1764
ag20
aaa(lp1765
Vkramer
p1766
a(lp1767
Vthere
p1768
aV's
p1769
aVnot
p1770
aVbet
p1771
aVif
p1772
ag96
ag931
aVnot
p1773
aVdoing
p1774
aVit
p1775
ag20
aaa(lp1776
Vjerry
p1777
a(lp1778
Vthat
p1779
aV's
p1780
aVthe
p1781
aVbet
p1782
ag95
aVthat
p1783
aVyou
p1784
aV're
p1785
aVnot
p1786
aVdoing
p1787
aVit
p1788
ag95
aaa(lp1789
Vkramer
p1790
a(lp1791
Vyeah
p1792
ag34
aVwell
p1793
ag34
ag96
aVcould
p1794
aVdo
p1795
aVit
p1796
ag20
ag96
aVdo
p1797
aVn't
p1798
aVwant
p1799
aVto
p1800
aVdo
p1801
aVit
p1802
ag20
aaa(lp1803
Vjerry
p1804
a(lp1805
Vwe
p1806
aVdid
p1807
aVn't
p1808
aVbet
p1809
aVon
p1810
aVif
p1811
aVyou
p1812
aVwanted
p1813
aVto
p1814
ag20
aVwe
p1815
aVbet
p1816
aVon
p1817
aVif
p1818
aVit
p1819
aVwould
p1820
aVbe
p1821
aVdone
p1822
ag20
aaa(lp1823
Vkramer
p1824
a(lp1825
Vand
p1826
aVit
p1827
aVcould
p1828
aVbe
p1829
aVdone
p1830
ag20
aaa(lp1831
Vjerry
p1832
a(lp1833
Vwell
p1834
ag34
aVof
p1835
aVcourse
p1836
aVit
p1837
aVcould
p1838
aVbe
p1839
aVdone
p1840
ag95
aVanything
p1841
aVcould
p1842
aVbe
p1843
aVdone
p1844
ag95
aVbut
p1845
aVit
p1846
aVonly
p1847
aVis
p1848
aVdone
p1849
aVif
p1850
aVit
p1851
aV's
p1852
aVdone
p1853
ag20
aVshow
p1854
aVme
p1855
aVthe
p1856
aVlevels
p1857
ag95
aVthe
p1858
aVbet
p1859
aVis
p1860
aVthe
p1861
aVlevels
p1862
ag20
aaa(lp1863
Vkramer
p1864
a(lp1865
Vbut
p1866
ag96
aVdo
p1867
aVn't
p1868
aVwant
p1869
aVthe
p1870
aVlevels
p1871
ag95
aaa(lp1872
Vjerry
p1873
a(lp1874
Vthat
p1875
aV's
p1876
aVthe
p1877
aVbet
p1878
ag95
aVhello
p1879
ag138
aVno
p1880
ag34
aVoh
p1881
ag34
aVhi
p1882
aVno
p1883
ag34
aVthey
p1884
aVjust
p1885
aVleft
p1886
aVoh
p1887
aVmy
p1888
aVgod
p1889
aVhand
p1890
aVon
p1891
ag68
aVsecond
p1892
ag20
aVmaybe
p1893
ag96
aVcan
p1894
aVstill
p1895
aVcatch
p1896
aVthem
p1897
ag20
aVma
p1898
ag95
aVma
p1899
ag95
aVup
p1900
aVhere
p1901
ag95
aVdo
p1902
aVn't
p1903
aVget
p1904
aVin
p1905
aVthe
p1906
aVcab
p1907
ag95
aVmanya
p1908
aVdied
p1909
ag95
aVmanya
p1910
aVdied
p1911
ag95
ag95
aaa(lp1912
Vhelen
p1913
a(lp1914
Vwho
p1915
aVdid
p1916
aVyou
p1917
aVtalk
p1918
aVto
p1919
ag138
aaa(lp1920
Vjerry
p1921
a(lp1922
Vuncle
p1923
aVleo
p1924
ag20
aaa(lp1925
Vhelen
p1926
a(lp1927
Vand
p1928
aVwhen
p1929
aV's
p1930
aVthe
p1931
aVfuneral
p1932
ag138
aaa(lp1933
Vjerry
p1934
a(lp1935
g96
aVdo
p1936
aVn't
p1937
aVknow
p1938
ag20
aVhe
p1939
aVsaid
p1940
aVhe
p1941
aV'd
p1942
aVcall
p1943
aVback
p1944
ag20
aaa(lp1945
Vmorty
p1946
a(lp1947
Vyou
p1948
aVknow
p1949
aVwhat
p1950
aVthis
p1951
aVmeans
p1952
ag34
aVdo
p1953
aVn't
p1954
aVyou
p1955
ag138
aVwe
p1956
aVlost
p1957
aVthe
p1958
aVsupersaver
p1959
ag20
aVthose
p1960
aVtickets
p1961
aVare
p1962
aVnon-refundable
p1963
ag20
aaa(lp1964
Vhelen
p1965
a(lp1966
Vshe
p1967
aVjust
p1968
aVhad
p1969
ag68
aVcheck-up
p1970
ag20
aVthe
p1971
aVdoctor
p1972
aVsaid
p1973
aVshe
p1974
aVwas
p1975
aVfine
p1976
ag20
aVunless
p1977
aaa(lp1978
Vjerry
p1979
a(lp1980
Vwhat
p1981
ag138
aaa(lp1982
Vhelen
p1983
a(lp1984
Vwhat
p1985
ag138
aVnothing
p1986
ag20
aaa(lp1987
Vjerry
p1988
a(lp1989
Vyou
p1990
aVdo
p1991
aVn't
p1992
aVthink
p1993
aVwhat
p1994
ag138
aVthe
p1995
aVpony
p1996
aVremark
p1997
ag138
aaa(lp1998
Vhelen
p1999
a(lp2000
Voh
p2001
ag34
aVdo
p2002
aVn't
p2003
aVbe
p2004
aVridiculous
p2005
ag20
aVshe
p2006
aVwas
p2007
aVan
p2008
aVold
p2009
aVwoman
p2010
ag20
aaa(lp2011
Vjerry
p2012
a(lp2013
Vyou
p2014
aVdo
p2015
aVn't
p2016
aVthink
p2017
aVthat
p2018
ag96
aVkilled
p2019
aVher
p2020
ag138
aaa(lp2021
Vmorty
p2022
a(lp2023
Vyou
p2024
aVknow
p2025
aVwhat
p2026
aVthe
p2027
aVflight
p2028
aVback
p2029
aV'll
p2030
aVcost
p2031
aVus
p2032
ag138
aaa(lp2033
Vjerry
p2034
a(lp2035
Vit
p2036
aVwas
p2037
aVjust
p2038
aVan
p2039
aVinnocent
p2040
aVcomment
p2041
ag95
ag96
aVdid
p2042
aVn't
p2043
aVknow
p2044
aVshe
p2045
aVhad
p2046
ag68
aVpony
p2047
ag95
aaa(lp2048
Vmorty
p2049
a(lp2050
Vmaybe
p2051
aVwe
p2052
aVcan
p2053
aVget
p2054
aVan
p2055
aVarmy
p2056
aVtransport
p2057
aVflight
p2058
ag20
aVthey
p2059
aVgot
p2060
ag68
aVbase
p2061
aVin
p2062
aVsarasota
p2063
ag34
ag96
aVthink
p2064
ag20
aaa(lp2065
Vjerry
p2066
a(lp2067
Vthe
p2068
aVwhole
p2069
aVthing
p2070
aVws
p2071
aVtaking
p2072
aVout
p2073
aVof
p2074
aVcontext
p2075
ag20
aVit
p2076
aVwas
p2077
ag68
aVjoke
p2078
ag20
aVthat
p2079
aV's
p2080
aVprobably
p2081
aVuncle
p2082
aVleo
p2083
ag20
aaa(lp2084
Vhelen
p2085
a(lp2086
Vhello
p2087
ag138
aVyes
p2088
ag34
ag96
aVknow
p2089
aVwell
p2090
ag34
aVit
p2091
aV's
p2092
aVjust
p2093
aVone
p2094
aVof
p2095
aVthose
p2096
aVthings
p2097
aVsure
p2098
ag34
aVsure
p2099
ag34
aVwe
p2100
aV'll
p2101
aVsee
p2102
aVyou
p2103
aVthen
p2104
ag20
aVthe
p2105
aVfuneral
p2106
aV's
p2107
aVwednesday
p2108
ag20
aaa(lp2109
Vjerry
p2110
a(lp2111
Vwednesday
p2112
ag138
aVwhat
p2113
ag34
aVwhat
p2114
aVwednesday
p2115
ag138
aaa(lp2116
Vhelen
p2117
a(lp2118
Vtwo
p2119
aVo
p2120
ag931
aVclock
p2121
ag34
aVwednesday
p2122
ag20
aVwhat
p2123
ag138
aaa(lp2124
Vjerry
p2125
a(lp2126
g96
aV've
p2127
aVgot
p2128
aVthe
p2129
aVsoftball
p2130
aVgame
p2131
aVon
p2132
aVwednesday
p2133
ag20
aVit
p2134
aV's
p2135
aVthe
p2136
aVchampionship
p2137
ag20
aaa(lp2138
Vhelen
p2139
a(lp2140
Vso
p2141
ag138
aVyou
p2142
aV're
p2143
aVnot
p2144
aVobligated
p2145
ag20
aVgo
p2146
aVplay
p2147
aVin
p2148
aVyour
p2149
aVgame
p2150
ag20
aaa(lp2151
Vjerry
p2152
a(lp2153
g96
aVdid
p2154
aVn't
p2155
aVeven
p2156
aVknow
p2157
aVthe
p2158
aVwoman
p2159
ag20
aaa(lp2160
Vhelen
p2161
a(lp2162
Vso
p2163
aVdo
p2164
aVn't
p2165
aVgo
p2166
ag20
aaa(lp2167
Vjerry
p2168
a(lp2169
g96
aVmean
p2170
ag96
aVmet
p2171
aVher
p2172
aVthree
p2173
aVtimes
p2174
ag20
ag96
aVdo
p2175
aVn't
p2176
aVknow
p2177
aVher
p2178
aVlast
p2179
aVname
p2180
ag20
aaa(lp2181
Vhelen
p2182
a(lp2183
Vjery
p2184
ag34
aVno
p2185
aVone
p2186
aV's
p2187
aVforcing
p2188
aVyou
p2189
ag20
aaa(lp2190
Vjerry
p2191
a(lp2192
g96
aVmean
p2193
ag34
aVwho
p2194
aVhas
p2195
ag68
aVfuneral
p2196
aVon
p2197
ag68
aVwednesday
p2198
ag138
aVthat
p2199
aV's
p2200
aVwhat
p2201
ag96
aVwant
p2202
aVto
p2203
aVknow
p2204
ag20
ag96
aVmean
p2205
ag34
aVit
p2206
aV's
p2207
aVthe
p2208
aVchampionship
p2209
ag20
ag96
aV'm
p2210
aVhitting
p2211
aVeverything
p2212
ag20
aaa(lp2213
Vhelen
p2214
a(lp2215
g96
aVdo
p2216
aVn't
p2217
aVhave
p2218
ag68
aVdress
p2219
aVto
p2220
aVwear
p2221
ag20
aVand
p2222
aVyou
p2223
ag20
aVyou
p2224
aVdo
p2225
aVn't
p2226
aVhave
p2227
aVanything
p2228
ag20
aaa(lp2229
Vmorty
p2230
a(lp2231
g96
aVgot
p2232
ag68
aVsport
p2233
aVjacket
p2234
ag20
aaa(lp2235
Vhelen
p2236
a(lp2237
Vyou
p2238
aV're
p2239
aVnot
p2240
aVwearing
p2241
aVthat
p2242
aVto
p2243
ag68
aVfuneral
p2244
ag20
aaa(lp2245
Vmorty
p2246
a(lp2247
Vwhat
p2248
aV's
p2249
aVwrong
p2250
aVwith
p2251
aVit
p2252
ag138
aaa(lp2253
Vhelen
p2254
a(lp2255
Vit
p2256
aVlooks
p2257
aVridiculous
p2258
ag20
aaa(lp2259
Vmorty
p2260
a(lp2261
Vwhat
p2262
ag138
ag96
aV'm
p2263
aVgon
p2264
aVna
p2265
aVbuy
p2266
ag68
aVnew
p2267
aVjacket
p2268
aVnow
p2269
ag138
aaa(lp2270
Vjerry
p2271
a(lp2272
g96
aVdo
p2273
aVn't
p2274
aVknow
p2275
aVwhat
p2276
aVto
p2277
aVdo
p2278
ag20
aaa(lp2279
Vmorty
p2280
a(lp2281
Vyou
p2282
aVknow
p2283
aVwhat
p2284
aVthis
p2285
aVfuneral
p2286
aV's
p2287
aVgon
p2288
aVna
p2289
aVwind
p2290
aVup
p2291
aVcosting
p2292
aVme
p2293
ag138
aVoh
p2294
aVboy
p2295
ag95
aaa(lp2296
Vjerry
p2297
a(lp2298
Vwe
p2299
aVdo
p2300
aVn't
p2301
aVunderstand
p2302
aVdeath
p2303
ag20
aVand
p2304
aVthe
p2305
aVproof
p2306
aVof
p2307
aVthis
p2308
aVis
p2309
aVthat
p2310
aVwe
p2311
aVgive
p2312
aVdead
p2313
aVpeople
p2314
ag68
aVpillow
p2315
ag20
aVand
p2316
ag34
aVuh
p2317
ag34
ag96
aVmean
p2318
ag34
aVhey
p2319
ag34
aVyou
p2320
aVknow
p2321
ag20
ag96
aVthink
p2322
aVif
p2323
aVyou
p2324
aVca
p2325
aVn't
p2326
aVstretch
p2327
aVout
p2328
aVand
p2329
aVget
p2330
aVsome
p2331
aVsolid
p2332
aVrest
p2333
aVat
p2334
aVthat
p2335
aVpoint
p2336
ag34
ag96
aVdo
p2337
aVn't
p2338
aVsee
p2339
aVhow
p2340
aVbedding
p2341
aVaccessories
p2342
aVreally
p2343
aVmake
p2344
aVthe
p2345
aVdifference
p2346
ag20
ag96
aVmean
p2347
ag34
aVthey
p2348
aVgot
p2349
aVthe
p2350
aVguy
p2351
aVin
p2352
ag68
aVsuit
p2353
aVwith
p2354
ag68
aVpillow
p2355
ag20
aVno
p2356
aVis
p2357
aVhe
p2358
aVgoing
p2359
aVto
p2360
ag68
aVmeeting
p2361
ag34
aVor
p2362
aVis
p2363
aVhe
p2364
aVcatching
p2365
aVforty
p2366
aVwinks
p2367
ag138
ag96
aVmean
p2368
ag34
aVlet
p2369
aV's
p2370
aVmake
p2371
aVup
p2372
aVour
p2373
aVmind
p2374
aVwhere
p2375
aVwe
p2376
aVthink
p2377
aVthey
p2378
aV're
p2379
aVgoing
p2380
ag20
aaa(lp2381
Velaine
p2382
a(lp2383
g96
aVactually
p2384
aVlike
p2385
aVponies
p2386
ag20
ag96
aVwas
p2387
aVjust
p2388
aVtrying
p2389
aVto
p2390
aVmake
p2391
aVconversation
p2392
ag20
aVwhat
p2393
aVtime
p2394
aV's
p2395
aVyour
p2396
aVgame
p2397
ag138
aaa(lp2398
Vjerry
p2399
a(lp2400
Vtwo
p2401
aVforty-five
p2402
ag20
aaa(lp2403
Velaine
p2404
a(lp2405
Vand
p2406
aVwhat
p2407
aVtime
p2408
aV's
p2409
aVthe
p2410
aVfuneral
p2411
ag138
aaa(lp2412
Vjerry
p2413
a(lp2414
Vtwo
p2415
ag2120
ag931
aVclock
p2416
ag20
aaa(lp2417
Velaine
p2418
a(lp2419
Vhow
p2420
aVlong
p2421
aVdoes
p2422
ag68
aVfuneral
p2423
aVtake
p2424
ag138
aaa(lp2425
Vjerry
p2426
a(lp2427
Vdepends
p2428
aVon
p2429
aVhow
p2430
aVnice
p2431
aVthe
p2432
aVperson
p2433
aVwas
p2434
ag20
aVbut
p2435
aVyou
p2436
aVgot
p2437
aVta
p2438
aVfigure
p2439
ag34
aVeven
p2440
aVoswald
p2441
aVtook
p2442
aVforty-five
p2443
aVminutes
p2444
ag20
aaa(lp2445
Velaine
p2446
a(lp2447
Vso
p2448
aVyou
p2449
aVcna't
p2450
aVdo
p2451
aVboth
p2452
ag138
aaa(lp2453
Vjerry
p2454
a(lp2455
Vyou
p2456
aVknow
p2457
ag34
aVif
p2458
aVthe
p2459
aVsituation
p2460
aVwere
p2461
aVreversed
p2462
aVand
p2463
aVmanya
p2464
aVhad
p2465
aVsome
p2466
aVmah-jongg
p2467
aVchampionship
p2468
aVor
p2469
aVsomething
p2470
ag34
ag96
aVwould
p2471
aVn't
p2472
aVexpect
p2473
aVher
p2474
aVto
p2475
aVgo
p2476
aVto
p2477
aVmy
p2478
aVfuneral
p2479
ag20
ag96
aVwould
p2480
aVunderstand
p2481
ag20
aaa(lp2482
Velaine
p2483
a(lp2484
Vhow
p2485
aVcan
p2486
aVyou
p2487
aVeven
p2488
aVconsider
p2489
aVnot
p2490
aVgoing
p2491
ag138
aaa(lp2492
Vgeorge
p2493
a(lp2494
Vyou
p2495
aVknow
p2496
ag34
ag96
aV've
p2497
aVbeen
p2498
aVthinking
p2499
ag96
aVcan
p2500
aVnot
p2501
aVenvision
p2502
aVany
p2503
aVcircumstances
p2504
aVin
p2505
aVwhich
p2506
ag96
aV'll
p2507
aVever
p2508
aVhave
p2509
aVthe
p2510
aVopportunity
p2511
aVto
p2512
aVhave
p2513
aVsex
p2514
aVagain
p2515
ag20
aVhow
p2516
aV's
p2517
aVit
p2518
aVgon
p2519
aVna
p2520
aVhappen
p2521
ag138
ag96
aVjust
p2522
aVdo
p2523
aVn't
p2524
aVsee
p2525
aVhow
p2526
aVit
p2527
aVcould
p2528
aVoccur
p2529
ag20
aaa(lp2530
Velaine
p2531
a(lp2532
Vyou
p2533
aVknow
p2534
ag34
aVfunerals
p2535
aValways
p2536
aVmake
p2537
aVme
p2538
aVthink
p2539
aVabout
p2540
aVmy
p2541
aVown
p2542
aVmortality
p2543
aVand
p2544
aVhow
p2545
ag96
aV'm
p2546
aVactually
p2547
aVgoing
p2548
aVto
p2549
aVdie
p2550
aVsomeday
p2551
ag20
aVme
p2552
ag34
aVdead
p2553
ag20
aVimagine
p2554
aVthat
p2555
ag20
aaa(lp2556
Vgeorge
p2557
a(lp2558
Vthey
p2559
aValways
p2560
aVmake
p2561
aVme
p2562
aVtake
p2563
aVstock
p2564
aVof
p2565
aVmy
p2566
aVlife
p2567
aVand
p2568
aVhow
p2569
ag96
aV've
p2570
aVpretty
p2571
aVmuch
p2572
aVwasted
p2573
aVall
p2574
aVof
p2575
aVit
p2576
ag34
aVand
p2577
aVhow
p2578
ag96
aVplan
p2579
aVto
p2580
aVcontinue
p2581
aVwasting
p2582
aVit
p2583
ag20
aaa(lp2584
Vjerry
p2585
a(lp2586
g96
aVknow
p2587
ag34
aVand
p2588
aVthen
p2589
aVyou
p2590
aVsay
p2591
aVto
p2592
aVyourself
p2593
ag34
aVfrom
p2594
aVthis
p2595
aVmoment
p2596
aVon
p2597
ag34
ag96
aV'm
p2598
aVnot
p2599
aVgoing
p2600
aVto
p2601
aVwaste
p2602
aVany
p2603
aVmore
p2604
aVof
p2605
aVit
p2606
ag20
aVbut
p2607
aVthen
p2608
aVyou
p2609
aVgo
p2610
ag34
aVhow
p2611
ag138
aVwhat
p2612
aVcan
p2613
ag96
aVdo
p2614
aVthat
p2615
aV's
p2616
aVnot
p2617
aVwasting
p2618
aVit
p2619
ag138
aaa(lp2620
Velaine
p2621
a(lp2622
Vis
p2623
aVthis
p2624
ag68
aVwaste
p2625
aVof
p2626
aVtime
p2627
ag138
aVwhat
p2628
aVshould
p2629
aVwe
p2630
aVbe
p2631
aVdoing
p2632
ag138
aVca
p2633
aVn't
p2634
aVyou
p2635
aVhae
p2636
aVcoffee
p2637
aVwith
p2638
aVpeople
p2639
ag138
aaa(lp2640
Vgeorge
p2641
a(lp2642
Vyou
p2643
aVknow
p2644
ag34
ag96
aVca
p2645
aVn't
p2646
aVbelieve
p2647
aVyou
p2648
aV're
p2649
aVeven
p2650
aVconsidering
p2651
aVnot
p2652
aVplaying
p2653
ag20
aVwe
p2654
aVneed
p2655
aVyou
p2656
ag20
aVyou
p2657
aV're
p2658
aVhitting
p2659
aVeverything
p2660
ag20
aaa(lp2661
Velaine
p2662
a(lp2663
Vhe
p2664
aVhas
p2665
aVto
p2666
aVgo
p2667
ag20
aVhe
p2668
aVmay
p2669
aVhave
p2670
aVkilled
p2671
aVher
p2672
ag20
aaa(lp2673
Vjerry
p2674
a(lp2675
Vme
p2676
ag138
aVwhat
p2677
aVabout
p2678
aVyou
p2679
ag138
aVyou
p2680
aVbrought
p2681
aVup
p2682
aVthe
p2683
aVpony
p2684
ag20
aaa(lp2685
Velaine
p2686
a(lp2687
Voh
p2688
ag34
aVyeah
p2689
ag34
aVbut
p2690
ag96
aVdid
p2691
aVn't
p2692
aVsay
p2693
ag96
aVhated
p2694
aVanyone
p2695
aVwho
p2696
aVhad
p2697
aVone
p2698
ag20
aaa(lp2699
Vgeorge
p2700
a(lp2701
Vwho
p2702
aV's
p2703
aVgoing
p2704
aVto
p2705
aVplay
p2706
aVleft
p2707
aVfield
p2708
ag138
aaa(lp2709
Vjerry
p2710
a(lp2711
Vbender
p2712
ag20
aaa(lp2713
Vgeorge
p2714
a(lp2715
Vbender
p2716
ag138
aVhe
p2717
aVca
p2718
aVn't
p2719
aVplay
p2720
aVleft
p2721
ag20
aVhe
p2722
aVstinks
p2723
ag20
ag96
aVjust
p2724
aVdo
p2725
aVn't
p2726
aVsee
p2727
aVwhat
p2728
aVpurpose
p2729
aVis
p2730
aVit
p2731
aVgoing
p2732
aVto
p2733
aVserve
p2734
aVyour
p2735
aVgoing
p2736
ag138
ag96
aVmean
p2737
ag34
aVyou
p2738
aVthink
p2739
aVdead
p2740
aVpeole
p2741
aVcare
p2742
aVwho
p2743
aV's
p2744
aVat
p2745
aVthe
p2746
aVfuneral
p2747
ag138
aVthey
p2748
aVdo
p2749
aVn't
p2750
aVeven
p2751
aVknow
p2752
aVthey
p2753
aV're
p2754
aVhaving
p2755
ag68
aVfuneral
p2756
ag20
aVit
p2757
aV's
p2758
aVnot
p2759
aVlike
p2760
aVshe
p2761
aV's
p2762
aVhanging
p2763
aVout
p2764
aVin
p2765
aVthe
p2766
aVback
p2767
aVgoing
p2768
ag34
ag96
aVca
p2769
aVn't
p2770
aVbelieve
p2771
aVjerry
p2772
aVdid
p2773
aVn't
p2774
aVshow
p2775
aVup
p2776
ag20
aaa(lp2777
Velaine
p2778
a(lp2779
Vmaybe
p2780
aVshe
p2781
aV's
p2782
aVthere
p2783
aVin
p2784
aVspirit
p2785
ag20
aVhow
p2786
aVabout
p2787
aVthat
p2788
ag138
aaa(lp2789
Vgeorge
p2790
a(lp2791
Vif
p2792
aVyou
p2793
aV're
p2794
ag68
aVspirit
p2795
ag34
aVand
p2796
aVyou
p2797
aVcan
p2798
aVtravel
p2799
aVto
p2800
aVother
p2801
aVdimensions
p2802
aVand
p2803
aVgalaxies
p2804
ag34
aVand
p2805
aVfind
p2806
aVout
p2807
aVthe
p2808
aVmysteries
p2809
aVof
p2810
aVthe
p2811
aVuniverse
p2812
ag34
aVyou
p2813
aVthink
p2814
aVshe
p2815
aV's
p2816
aVgoing
p2817
aVto
p2818
aVwant
p2819
aVto
p2820
aVhang
p2821
aVaround
p2822
aVdrexler
p2823
aV's
p2824
aVfuneral
p2825
aVhome
p2826
aVon
p2827
aVocean
p2828
aVparkway
p2829
ag138
aaa(lp2830
Velaine
p2831
a(lp2832
Vgeorge
p2833
ag34
ag96
aVmet
p2834
aVthis
p2835
aVwoman
p2836
ag95
aVshe
p2837
aVis
p2838
aVnot
p2839
aVtraveling
p2840
aVto
p2841
aVany
p2842
aVother
p2843
aVdimensions
p2844
ag20
aaa(lp2845
Vgeorge
p2846
a(lp2847
Vyou
p2848
aVknow
p2849
aVhow
p2850
aVeasy
p2851
aVit
p2852
aVis
p2853
aVfor
p2854
aVdead
p2855
aVpeople
p2856
aVto
p2857
aVtravel
p2858
ag138
aVit
p2859
aV's
p2860
aVnot
p2861
aVlike
p2862
aVgetting
p2863
aVon
p2864
ag68
aVbus
p2865
ag20
aVone
p2866
aVsecond
p2867
ag20
aVit
p2868
aV's
p2869
aVall
p2870
aVmental
p2871
ag20
aaa(lp2872
Vjerry
p2873
a(lp2874
Vfifty
p2875
aVyears
p2876
aVthey
p2877
aVwere
p2878
aVmarried
p2879
ag20
aVnow
p2880
aVhe
p2881
aV's
p2882
aVmoving
p2883
aVto
p2884
aVpheonix
p2885
ag20
aaa(lp2886
Velaine
p2887
a(lp2888
Vphoenix
p2889
ag138
aVwhat
p2890
aV's
p2891
aVhappening
p2892
aVwith
p2893
aVhis
p2894
aVappartment
p2895
ag138
aaa(lp2896
Vjerry
p2897
a(lp2898
g96
aVdo
p2899
aVn't
p2900
aVknow
p2901
ag20
aVthey
p2902
aV've
p2903
aVbeen
p2904
aVin
p2905
aVthere
p2906
aVsince
p2907
ag34
aVlike
p2908
ag34
aVworld
p2909
aVwar
p2910
aVii
p2911
ag20
aVthe
p2912
aVrent
p2913
aV's
p2914
aVthree
p2915
aVhundred
p2916
ag68
aVmonth
p2917
ag20
aaa(lp2918
Velaine
p2919
a(lp2920
Vthree
p2921
aVhundred
p2922
ag68
aVmonth
p2923
ag138
aVoh
p2924
aVmy
p2925
aVgod
p2926
ag20
aaa(lp2927
Vman
p2928
a(lp2929
Valthough
p2930
aVthis
p2931
aVmay
p2932
aVseem
p2933
aVlike
p2934
ag68
aVsad
p2935
aVeven
p2936
ag34
aVit
p2937
aVshould
p2938
aVnot
p2939
aVbe
p2940
ag68
aVday
p2941
aVof
p2942
aVmourning
p2943
aVfor
p2944
aVmanya
p2945
aVhad
p2946
ag68
aVrich
p2947
ag34
aVfulfilling
p2948
aVlife
p2949
ag20
aVshe
p2950
aVgrew
p2951
aVup
p2952
aVin
p2953
ag68
aVdifferent
p2954
aVworld
p2955
ag239
ag68
aVsimpler
p2956
aVworld
p2957
ag239
aVwith
p2958
aVloving
p2959
aVparents
p2960
ag34
ag68
aVbeautiful
p2961
aVhome
p2962
aVin
p2963
aVthe
p2964
aVcountry
p2965
ag34
aVand
p2966
aVfrom
p2967
aVwhat
p2968
ag96
aVunderstand
p2969
ag34
aVshe
p2970
aVeve
p2971
aVhad
p2972
ag68
aVpony
p2973
aVoh
p2974
ag34
aVhow
p2975
aVshe
p2976
aVloved
p2977
aVthat
p2978
aVpony
p2979
ag20
aVeven
p2980
aVin
p2981
aVher
p2982
aVdeclining
p2983
aVyears
p2984
ag34
aVwhenever
p2985
aVshe
p2986
aVwould
p2987
aVspeak
p2988
aVof
p2989
aVit
p2990
ag34
aVher
p2991
aVeyes
p2992
aVwould
p2993
aVlight
p2994
aVup
p2995
ag20
aVit
p2996
aV's
p2997
aVlustrous
p2998
aVcoat
p2999
ag34
aVit
p3000
aV's
p3001
aVflowing
p3002
aVmane
p3003
ag20
aVit
p3004
aVwas
p3005
aVthe
p3006
aVpride
p3007
aVof
p3008
aVkrakow
p3009
ag20
aaa(lp3010
Vjerry
p3011
a(lp3012
Vwell
p3013
ag34
aVthe
p3014
aVgame
p3015
aV's
p3016
aVstarting
p3017
aVjust
p3018
aVabout
p3019
aVnow
p3020
ag20
aaa(lp3021
Vhelen
p3022
a(lp3023
Vit
p3024
aVwas
p3025
aVgood
p3026
aVthat
p3027
aVthe
p3028
aVtwo
p3029
aVof
p3030
aVyou
p3031
aVcame
p3032
ag20
aVit
p3033
aVwas
p3034
ag68
aVnice
p3035
aVgesture
p3036
ag20
aaa(lp3037
Vintern
p3038
a(lp3039
g96
aV'm
p3040
aVnot
p3041
ag68
aVdoctor
p3042
aVyet
p3043
ag34
aVuncle
p3044
aVmorty
p3045
ag20
ag96
aV'm
p3046
aVjust
p3047
aVan
p3048
aVintern
p3049
ag20
ag96
aVca
p3050
aVn't
p3051
aVwrite
p3052
ag68
aVnote
p3053
aVto
p3054
aVan
p3055
aVairline
p3056
ag20
aaa(lp3057
Vmorty
p3058
a(lp3059
Vyou
p3060
aV've
p3061
aVgot
p3062
aVyour
p3063
aVdegree
p3064
ag20
aVthey
p3065
aVdo
p3066
aVn't
p3067
aVcare
p3068
ag20
aVthey
p3069
aVjust
p3070
aVwant
p3071
aVto
p3072
aVsee
p3073
aVsomething
p3074
ag20
aaa(lp3075
Vjerry
p3076
a(lp3077
g96
aVjust
p3078
aVwanted
p3079
aVto
p3080
aVsay
p3081
aVhow
p3082
aVsorry
p3083
ag96
aVwas
p3084
aaa(lp3085
Vleo
p3086
a(lp3087
Vjerry
p3088
ag34
aVyou
p3089
aVwan
p3090
aVna
p3091
aVhear
p3092
aVsomething
p3093
ag138
aVyour
p3094
aVcousin
p3095
ag34
aVjeffrey
p3096
ag34
aVis
p3097
aVswitching
p3098
aVparks
p3099
ag20
aVthey
p3100
aV're
p3101
aVtransferring
p3102
aVhim
p3103
aVto
p3104
aVriverside
p3105
ag239
aVso
p3106
aVhe
p3107
aV'll
p3108
aVcompletely
p3109
aVrevamp
p3110
aVthat
p3111
aVoperation
p3112
ag34
aVyou
p3113
aVunderstand
p3114
ag138
aVhe
p3115
aV'll
p3116
aVdo
p3117
aVin
p3118
aVriverside
p3119
aVwhat
p3120
aVhe
p3121
aVdid
p3122
aVin
p3123
aVcentral
p3124
aVpark
p3125
ag20
aVit
p3126
aV's
p3127
aVmore
p3128
aVmoney
p3129
ag20
aVso
p3130
ag34
aVthat
p3131
aV's
p3132
aVyour
p3133
aVcousin
p3134
ag20
aaa(lp3135
Vmorty
p3136
a(lp3137
Vyou
p3138
aVdo
p3139
aVn't
p3140
aVunderstand
p3141
ag34
ag96
aV've
p3142
aVnever
p3143
aVpaid
p3144
ag68
aVfull
p3145
aVfare
p3146
ag20
aaa(lp3147
Vjerry
p3148
a(lp3149
Vonce
p3150
aVagain
p3151
ag34
ag96
aVjust
p3152
aVwant
p3153
aVto
p3154
aVsay
p3155
aVhow
p3156
aVsorry
p3157
ag96
aVam
p3158
aVabou
p3159
aVtthe
p3160
aVother
p3161
aVnight
p3162
ag20
aaa(lp3163
Velaine
p3164
a(lp3165
Voh
p3166
ag34
aVme
p3167
aVtoo
p3168
ag20
aaa(lp3169
Visaac
p3170
a(lp3171
Voh
p3172
aVno
p3173
ag34
aVno
p3174
ag34
aVno
p3175
ag20
aVshe
p3176
aVforgot
p3177
aVall
p3178
aVabout
p3179
aVthat
p3180
ag20
aVshe
p3181
aVwas
p3182
aVmuch
p3183
aVmor
p3184
aVupset
p3185
aVabout
p3186
aVthe
p3187
aVpotato
p3188
aVsalad
p3189
ag20
aaa(lp3190
Velaine
p3191
a(lp3192
Vso
p3193
ag34
ag96
aVunderstand
p3194
aVyou
p3195
aV're
p3196
aVmoving
p3197
aVto
p3198
aVphoenix
p3199
ag138
aaa(lp3200
Visaac
p3201
a(lp3202
Vyeah
p3203
ag34
aVmy
p3204
aVbrother
p3205
aVlives
p3206
aVthere
p3207
ag20
ag96
aVthink
p3208
aVmanya
p3209
aVwould
p3210
aV've
p3211
aVliked
p3212
aVphoenix
p3213
ag20
aaa(lp3214
Velaine
p3215
a(lp3216
Vmmm
p3217
aVgorgeous
p3218
ag34
aVexquisite
p3219
aVtown
p3220
ag20
aVwho
p3221
ag34
aVwhat
p3222
aV's
p3223
aVhappening
p3224
aVwith
p3225
aVyour
p3226
aVapartment
p3227
ag138
aaa(lp3228
Visaac
p3229
a(lp3230
Vof
p3231
aVcourse
p3232
aVit
p3233
aV's
p3234
aVvery
p3235
aVhot
p3236
aVthere
p3237
ag20
aVi'l
p3238
aVlhave
p3239
aVto
p3240
aVget
p3241
aVan
p3242
aVair
p3243
aVconditioner
p3244
ag20
aaa(lp3245
Velaine
p3246
a(lp3247
Voh
p3248
ag34
aVyou
p3249
aVcan
p3250
aVhave
p3251
aVmine
p3252
ag20
ag96
aV'll
p3253
aVship
p3254
aVit
p3255
aVout
p3256
aVot
p3257
aVyou
p3258
aVbut
p3259
aVwhat
p3260
aVabout
p3261
aVthat
p3262
aVbig
p3263
aVapartment
p3264
aVon
p3265
aVwest
p3266
aVend
p3267
aVavenue
p3268
ag138
aaa(lp3269
Visaac
p3270
a(lp3271
Valthough
p3272
aVthey
p3273
aVsay
p3274
aVit
p3275
aV's
p3276
ag68
aVdry
p3277
aVheat
p3278
ag20
aaa(lp3279
Velaine
p3280
a(lp3281
Vdry
p3282
ag34
aVwet
p3283
aVwhat
p3284
aV's
p3285
aVhappening
p3286
aVwith
p3287
aVyour
p3288
aVapartment
p3289
ag138
aaa(lp3290
Visaac
p3291
a(lp3292
g96
aVdo
p3293
aVn't
p3294
aVeven
p3295
aVknow
p3296
aVif
p3297
ag96
aVshould
p3298
aVtake
p3299
aVmy
p3300
aVwinter
p3301
aVclothing
p3302
ag20
aaa(lp3303
Velaine
p3304
a(lp3305
g96
aVhave
p3306
aVan
p3307
aVidea
p3308
ag20
aVleave
p3309
aVthe
p3310
aVwinter
p3311
aVclothing
p3312
aVin
p3313
aVthe
p3314
aVapartment
p3315
ag34
aVand
p3316
ag96
aV'll
p3317
aVwatch
p3318
aVit
p3319
aVfor
p3320
aVyou
p3321
aVand
p3322
ag96
aV'll
p3323
aVlive
p3324
aVthere
p3325
aVand
p3326
ag96
aV'll
p3327
aVmake
p3328
aVsure
p3329
aVthat
p3330
aVnothing
p3331
aVhappens
p3332
aVto
p3333
aVit
p3334
ag20
aaa(lp3335
Visaac
p3336
a(lp3337
Voh
p3338
ag34
aVthe
p3339
aVapartment
p3340
ag20
aVjeffrey
p3341
aV's
p3342
aVtaking
p3343
aVthe
p3344
aVapartment
p3345
ag20
aaa(lp3346
Velaine
p3347
a(lp3348
Voh
p3349
ag34
aVjeffrey
p3350
ag20
aaa(lp3351
Vjerry
p3352
a(lp3353
Vyou
p3354
aVknow
p3355
aVjeffery
p3356
ag138
aaa(lp3357
Velaine
p3358
a(lp3359
Vyeah
p3360
ag34
aVfrom
p3361
aVwhat
p3362
ag96
aVunderstand
p3363
ag34
aVhe
p3364
aVworks
p3365
aVfor
p3366
aVthe
p3367
aVparks
p3368
aVdepartment
p3369
ag20
aaa(lp3370
Vhelen
p3371
a(lp3372
Vit
p3373
aV's
p3374
aVraining
p3375
ag20
aaa(lp3376
Vjerry
p3377
a(lp3378
Vit
p3379
aV's
p3380
aVraining
p3381
ag138
aVit
p3382
aV's
p3383
aVraining
p3384
ag20
aVthe
p3385
aVgame
p3386
aVwill
p3387
aVbe
p3388
aVpostponed
p3389
ag20
aVwe
p3390
aV'll
p3391
aVplay
p3392
aVtomarrow
p3393
ag20
aaa(lp3394
Vmorty
p3395
a(lp3396
Vbelieve
p3397
aVme
p3398
ag34
ag96
aVwould
p3399
aVn't
p3400
aVbother
p3401
aVyou
p3402
aVif
p3403
aVthe
p3404
aVarmy
p3405
aVhad
p3406
aVn't
p3407
aVclosed
p3408
aVthat
p3409
aVbase
p3410
aVin
p3411
aVsarasota
p3412
ag20
aVhere
p3413
ag34
aVscribble
p3414
ag68
aVlittle
p3415
aVsomething
p3416
aVhere
p3417
ag20
aaa(lp3418
Vintern
p3419
a(lp3420
g96
aVca
p3421
aVn't
p3422
ag20
ag96
aV'll
p3423
aVget
p3424
aVin
p3425
aVtrouble
p3426
ag20
aaa(lp3427
Vmorty
p3428
a(lp3429
Voh
p3430
ag34
aVfor
p3431
aVgod
p3432
aV's
p3433
aVsakes
p3434
ag95
aaa(lp3435
Vgeorge
p3436
a(lp3437
Vwho
p3438
aVgets
p3439
aVpicked
p3440
aVoff
p3441
aVin
p3442
aVsoftball
p3443
ag138
aVit
p3444
aV's
p3445
aVunheard
p3446
aVof
p3447
ag20
aaa(lp3448
Vjerry
p3449
a(lp3450
Vit
p3451
aV's
p3452
aVnever
p3453
aVhappend
p3454
aVto
p3455
aVme
p3456
aVbefore
p3457
ag20
aaa(lp3458
Velaine
p3459
a(lp3460
g96
aVremember
p3461
aVsaying
p3462
aVto
p3463
aVmyself
p3464
ag34
aVwhy
p3465
aVis
p3466
aVjerry
p3467
aVso
p3468
aVfar
p3469
aVoff
p3470
aVthe
p3471
aVbase
p3472
ag138
aaa(lp3473
Vjerry
p3474
a(lp3475
g96
aV'll
p3476
aVhave
p3477
aVto
p3478
aVlive
p3479
aVwith
p3480
aVthis
p3481
aVshame
p3482
aVfor
p3483
aVthe
p3484
aVrest
p3485
aVof
p3486
aVmy
p3487
aVlife
p3488
ag20
aaa(lp3489
Vgeorge
p3490
a(lp3491
Vand
p3492
aVthey
p3493
aVin
p3494
aVthe
p3495
aVfifth
p3496
aVinning
p3497
ag34
aVwhy
p3498
aVdid
p3499
aVyou
p3500
aVtake
p3501
aVoff
p3502
aVon
p3503
aVthe
p3504
aVpop
p3505
aVfly
p3506
ag138
aaa(lp3507
Vjerry
p3508
a(lp3509
g96
aVthought
p3510
aVthere
p3511
aVwere
p3512
aVtwo
p3513
aVouts
p3514
ag20
aaa(lp3515
Velaine
p3516
a(lp3517
g96
aVcould
p3518
aVn't
p3519
aVbelieve
p3520
aVit
p3521
aVwhen
p3522
ag96
aVsaw
p3523
aVyou
p3524
aVrunning
p3525
ag20
ag96
aVthought
p3526
aVmaybe
p3527
aVthey
p3528
aVhad
p3529
aVchanged
p3530
aVthe
p3531
aVrules
p3532
aVor
p3533
aVsomething
p3534
ag20
aaa(lp3535
Vjerry
p3536
a(lp3537
Vit
p3538
aVwas
p3539
aVthe
p3540
aVsingle
p3541
aVworst
p3542
aVmoment
p3543
aVof
p3544
aVmy
p3545
aVlife
p3546
ag20
aaa(lp3547
Vgeorge
p3548
a(lp3549
Vwhat
p3550
aVabout
p3551
aVsharon
p3552
aVbesser
p3553
ag138
aaa(lp3554
Vjerry
p3555
a(lp3556
Voh
p3557
ag34
aVwell
p3558
ag34
aVof
p3559
aVcourse
p3560
ag20
aV1973
p3561
ag20
aaa(lp3562
Velaine
p3563
a(lp3564
Vmakes
p3565
aVyou
p3566
aVwonder
p3567
ag34
aVthough
p3568
ag34
aVdoes
p3569
aVn't
p3570
aVit
p3571
ag138
aaa(lp3572
Vjerry
p3573
a(lp3574
Vwonder
p3575
aVabout
p3576
aVwhat
p3577
ag138
aaa(lp3578
Velaine
p3579
a(lp3580
Vyou
p3581
aVknow
p3582
aVthe
p3583
aVspirit
p3584
aVworld
p3585
ag20
aaa(lp3586
Vjerry
p3587
a(lp3588
Vyou
p3589
aVthink
p3590
aVmanya
p3591
aVshowed
p3592
aVup
p3593
aVduring
p3594
aVthe
p3595
aVgame
p3596
aVand
p3597
aVput
p3598
ag68
aVhex
p3599
aVon
p3600
aVme
p3601
ag138
aaa(lp3602
Velaine
p3603
a(lp3604
g96
aVnever
p3605
aVsaw
p3606
aVanyone
p3607
aVplay
p3608
aVlike
p3609
aVthat
p3610
ag20
aaa(lp3611
Vjerry
p3612
a(lp3613
Vbut
p3614
ag96
aVwent
p3615
aVot
p3616
aVthe
p3617
aVfuneral
p3618
ag20
aaa(lp3619
Velaine
p3620
a(lp3621
Vyeah
p3622
ag34
aVbut
p3623
aVthat
p3624
aVdoes
p3625
aVn't
p3626
aVmake
p3627
aVup
p3628
aVfor
p3629
aVkilling
p3630
aVher
p3631
ag20
aaa(lp3632
Vgeorge
p3633
a(lp3634
Vmaybe
p3635
aVmanya
p3636
aVmissed
p3637
aVthe
p3638
aVfuneral
p3639
aVbecause
p3640
aVshe
p3641
aVwas
p3642
aVoff
p3643
aVvisiting
p3644
aVanother
p3645
aVgalaxy
p3646
aVthat
p3647
aVday
p3648
ag20
aaa(lp3649
Vjerry
p3650
a(lp3651
Vdo
p3652
aVn't
p3653
aVyou
p3654
aVthink
p3655
aVshe
p3656
aVwould
p3657
aV've
p3658
aVheard
p3659
ag96
aVwas
p3660
aVthere
p3661
ag138
aaa(lp3662
Vgeorge
p3663
a(lp3664
Vnot
p3665
aVnecessarily
p3666
ag20
aaa(lp3667
Vjerry
p3668
a(lp3669
Vwho
p3670
aVfigures
p3671
aVand
p3672
aVimmigrant
p3673
aV's
p3674
aVgon
p3675
aVna
p3676
aVhave
p3677
ag68
aVpony
p3678
ag138
aaa.