(lp0
(lp1
Vjerry
p2
a(lp3
Vthe
p4
aVjacket
p5
aVwritten
p6
aVby
p7
aVlarry
p8
aVdavid
p9
aV&
p10
aVjerry
p11
aVseinfeld
p12
aVi
p13
aVhate
p14
aVclothes
p15
aV,
p16
aVokay
p17
aV?
p18
ag13
aVhate
p19
aVbuying
p20
aVthem
p21
aV.
p22
ag13
aVhate
p23
aVpicking
p24
aVthem
p25
aVout
p26
aVof
p27
aVmy
p28
aVcloset
p29
ag22
ag13
aVca
p30
aVn't
p31
aVstand
p32
aVevery
p33
aVday
p34
aVtrying
p35
aVto
p36
aVcome
p37
aVup
p38
aVwith
p39
aVlittle
p40
aVoutfits
p41
aVfor
p42
aVmyself
p43
ag22
ag13
aVthink
p44
aVeventually
p45
aVfashion
p46
aVwo
p47
aVn't
p48
aVeven
p49
aVexist
p50
ag22
aVit
p51
aVwo
p52
aVn't
p53
ag22
ag13
aVthink
p54
aVeventually
p55
aVwe
p56
aV'll
p57
aVall
p58
aVbe
p59
aVwearing
p60
aVthe
p61
aVsame
p62
aVthing
p63
ag22
aV'cause
p64
aVanytime
p65
ag13
aVsee
p66
aVa
p67
aVmovie
p68
aVor
p69
ag67
aVtv
p70
aVshow
p71
aVwhere
p72
aVthere
p73
aV's
p74
aVpeople
p75
aVfrom
p76
aVthe
p77
aVfuture
p78
aVof
p79
aVanother
p80
aVplanet
p81
ag16
aVthey
p82
aV're
p83
aVall
p84
aVwearing
p85
aVthe
p86
aVsame
p87
aVthing
p88
ag22
aVsomehow
p89
aVthey
p90
aVdecided
p91
aVthis
p92
aVis
p93
aVgoing
p94
aVto
p95
aVbe
p96
aVour
p97
aVoutfit
p98
ag22
aVone-piece
p99
aVsilver
p100
aVjumpsuit
p101
ag16
aVv-stripe
p102
ag16
aVand
p103
aVboots
p104
ag22
aVthat
p105
aV's
p106
aVit
p107
ag22
aVwe
p108
aVshould
p109
aVcome
p110
aVup
p111
aVfor
p112
aVan
p113
aVoutfit
p114
aVfor
p115
aVearth
p116
ag22
aVan
p117
aVearth
p118
aVoutfit
p119
ag22
aVwe
p120
aVshould
p121
aVvote
p122
aVon
p123
aVit
p124
ag22
aVcandidates
p125
aVpropose
p126
aVdifferent
p127
aVoutfits
p128
ag16
aVno
p129
aVspeeches
p130
ag22
aVthey
p131
aVwalk
p132
aVout
p133
ag16
aVtwirl
p134
ag16
aVwalk
p135
aVoff
p136
ag22
aVwe
p137
aVjust
p138
aVsit
p139
aVin
p140
aVthe
p141
aVaudience
p142
aVand
p143
aVgo
p144
ag16
aVthat
p145
aVwas
p146
aVnice
p147
ag22
ag13
aVcould
p148
aVwear
p149
aVthat
p150
ag22
aaa(lp151
Vjerry
p152
a(lp153
g13
aVthink
p154
ag13
aV've
p155
aVseen
p156
aVenough
p157
ag22
aaa(lp158
Vsalesman
p159
a(lp160
Vwell
p161
ag16
ag13
aVmight
p162
aVhave
p163
aVsomething
p164
aVin
p165
aVthe
p166
aVback
p167
ag22
aaa(lp168
Velaine
p169
a(lp170
Vthe
p171
aVback
p172
ag18
aVthey
p173
aVnever
p174
aVfind
p175
aVanything
p176
aVin
p177
aVthe
p178
aVback
p179
ag22
aVif
p180
aVthey
p181
aVhad
p182
aVanything
p183
aVgood
p184
aVin
p185
aVthe
p186
aVback
p187
ag16
aVthey
p188
aV'd
p189
aVput
p190
aVit
p191
aVout
p192
aVin
p193
aVthe
p194
aVfront
p195
ag22
aaa(lp196
Vjerry
p197
a(lp198
Vwhy
p199
aVdo
p200
aVn't
p201
aVthey
p202
aVopen
p203
aVup
p204
aVan
p205
aVentire
p206
aVstore
p207
aVfor
p208
aVthe
p209
aVback
p210
ag18
aVcall
p211
aVit
p212
ag16
aVjust
p213
aVback
p214
ag22
aVall
p215
aVback
p216
ag22
aVno
p217
aVfront
p218
ag22
aVyou
p219
aVwalk
p220
aVin
p221
aVthe
p222
aVfront
p223
ag16
aVyou
p224
aV're
p225
aVimmediately
p226
aVin
p227
aVthe
p228
aVback
p229
ag22
aVlook
p230
ag16
aVelaine
p231
ag16
aVtie
p232
aVcar
p233
aVwash
p234
ag22
aaa(lp235
Vcustomer
p236
a(lp237
Voh
p238
ag16
ag13
aVjust
p239
aVread
p240
aVthat
p241
ag22
aVthat
p242
aV's
p243
aVterrific
p244
ag22
aaa(lp245
Vjerry
p246
a(lp247
Vher
p248
aVfather
p249
aVwrote
p250
aVthat
p251
ag22
aaa(lp252
Vcustomer
p253
a(lp254
Valton
p255
aVbenes
p256
aVis
p257
aVyour
p258
aVfather
p259
ag18
aaa(lp260
Velaine
p261
a(lp262
Vyeah
p263
ag22
aaa(lp264
Vcustomer
p265
a(lp266
g13
aValways
p267
aVfelt
p268
aVhe
p269
aVdeserved
p270
ag67
aVwider
p271
aVaudience
p272
ag22
aaa(lp273
Velaine
p274
a(lp275
g13
aV'm
p276
aVnot
p277
aVso
p278
aVsure
p279
aVhe
p280
aVwants
p281
aVone
p282
ag22
aVhey
p283
ag16
aVdo
p284
aVn't
p285
aVforget
p286
aVsunday
p287
ag16
aVokay
p288
ag18
aVyou
p289
aVand
p290
aVgeorge
p291
aVare
p292
aVcoming
p293
ag16
aVright
p294
ag18
aVhotel
p295
aVwestbury
p296
ag16
aVeight
p297
aVo
p298
aV'
p299
aVclock
p300
ag22
aaa(lp301
Vjerry
p302
a(lp303
g13
aVguess
p304
ag13
aV'm
p305
aVcoming
p306
ag13
aVmean
p307
aaa(lp308
Velaine
p309
a(lp310
Vwhat
p311
ag18
aVwhat
p312
ag16
aVyou
p313
aVdo
p314
aVn't
p315
aVwant
p316
aVto
p317
aVgo
p318
aVnow
p319
ag18
aaa(lp320
Vjerry
p321
a(lp322
Vno
p323
ag16
ag13
aV'll
p324
aVgo
p325
ag22
ag13
aV'm
p326
aVgoing
p327
ag22
aaa(lp328
Velaine
p329
a(lp330
Vno
p331
ag16
aVjerry
p332
ag16
aVyou
p333
aVhave
p334
aVto
p335
ag22
ag13
aVneed
p336
ag67
aVbuffer
p337
ag22
aVyou
p338
aVknow
p339
ag16
ag13
aVhave
p340
aVn't
p341
aVseen
p342
aVmy
p343
aVfather
p344
aVin
p345
ag67
aVwhile
p346
aVand
p347
aVyou
p348
aVknow
p349
ag22
aaa(lp350
Vjerry
p351
a(lp352
g13
aV'm
p353
aVworried
p354
ag13
aVwo
p355
aVn't
p356
aVbe
p357
aVable
p358
aVto
p359
aVtalk
p360
aVto
p361
aVhim
p362
ag22
aVhe
p363
aV's
p364
aVsuch
p365
ag67
aVgreat
p366
aVwriter
p367
ag22
aVfrankly
p368
ag16
ag13
aVperfer
p369
aVthe
p370
aVcompany
p371
aVof
p372
aVnitwits
p373
ag22
aaa(lp374
Velaine
p375
a(lp376
Vso
p377
ag16
aVthat
p378
aV's
p379
aVwhy
p380
aVwe
p381
aV're
p382
aVnot
p383
aVtogeter
p384
aVanymore
p385
ag22
aaa(lp386
Vjerry
p387
a(lp388
Vwhat
p389
aVis
p390
aVthis
p391
ag18
aVthis
p392
aVis
p393
aVbeautiful
p394
aVbut
p395
aVthese
p396
aVjackets
p397
aVnever
p398
aVfit
p399
aVme
p400
aVright
p401
ag22
aaa(lp402
Velaine
p403
a(lp404
Vtry
p405
aVit
p406
aVon
p407
ag22
aVwow
p408
ag16
aVthis
p409
aVis
p410
aVsoft
p411
aVsuede
p412
ag22
aaa(lp413
Vjerry
p414
a(lp415
Vthis
p416
aVmay
p417
aVbe
p418
aVthe
p419
aVmost
p420
aVperfect
p421
aVjacket
p422
ag13
aVhave
p423
aVever
p424
aVput
p425
aVon
p426
ag22
aVhow
p427
aVmuch
p428
aVis
p429
aVit
p430
ag18
aaa(lp431
Velaine
p432
a(lp433
Voh
p434
aVmy
p435
aVgod
p436
ag22
aaa(lp437
Vjerry
p438
a(lp439
Vbad
p440
ag18
aVvery
p441
aVbad
p442
ag18
aaa(lp443
Velaine
p444
a(lp445
Vyou
p446
aVhave
p447
aVno
p448
aVidea
p449
ag22
aaa(lp450
Vjerry
p451
a(lp452
g13
aVhave
p453
aVsome
p454
aVidea
p455
ag22
aaa(lp456
Velaine
p457
a(lp458
Vno
p459
aVidea
p460
ag22
aaa(lp461
Vjerry
p462
a(lp463
g13
aV've
p464
aVgot
p465
ag67
aVballpark
p466
ag22
aaa(lp467
Velaine
p468
a(lp469
Vthere
p470
aVis
p471
aVno
p472
aVpark
p473
aVand
p474
aVthe
p475
aVteam
p476
aVhas
p477
aVrelocated
p478
ag22
aaa(lp479
Vjerry
p480
a(lp481
Vthat
p482
aVis
p483
aVhigh
p484
ag22
aaa(lp485
Velaine
p486
a(lp487
Voh
p488
aVman
p489
ag16
aVthat
p490
aVis
p491
ag67
aVbeautiful
p492
aVjacket
p493
ag16
aVthough
p494
ag22
aaa(lp495
Vjerry
p496
a(lp497
Vwhat
p498
aV's
p499
aVwith
p500
aVthe
p501
aVpink
p502
aVlining
p503
aVand
p504
aVthe
p505
aVcandy
p506
aVstripes
p507
ag18
aaa(lp508
Velaine
p509
a(lp510
Vwell
p511
ag16
aVit
p512
aV's
p513
aVjust
p514
ag67
aVlining
p515
ag22
aVyou
p516
aVcan
p517
aValways
p518
aVhave
p519
aVit
p520
aVchanged
p521
ag22
aaa(lp522
Vjerry
p523
a(lp524
Vshould
p525
ag13
aVget
p526
aVit
p527
ag18
ag13
aVhate
p528
aVthese
p529
aVmoments
p530
ag22
ag13
aV'm
p531
aVhearing
p532
aVthe
p533
aVdual
p534
aVvoices
p535
aVnow
p536
ag16
aVyou
p537
aVknow
p538
ag22
aVwhat
p539
aVabout
p540
aVthe
p541
aVmoney
p542
ag18
aVwhat
p543
aV's
p544
aVmoney
p545
ag18
aaa(lp546
Vsalesman
p547
a(lp548
Vit
p549
aVlooks
p550
aVwonderful
p551
aVon
p552
aVyou
p553
ag22
aaa(lp554
Vjerry
p555
a(lp556
Vhey
p557
ag22
aaa(lp558
Vkramer
p559
a(lp560
Vhey
p561
ag22
aVnew
p562
aVjacket
p563
ag18
aaa(lp564
Vjerry
p565
a(lp566
Vwhat
p567
aVdo
p568
aVyou
p569
aVthink
p570
ag18
aaa(lp571
Vkramer
p572
a(lp573
Vit
p574
aV's
p575
aVbeautiful
p576
ag22
aaa(lp577
Vjerry
p578
a(lp579
Vis
p580
aVit
p581
aVme
p582
ag18
aaa(lp583
Vkramer
p584
a(lp585
Vthat
p586
aV's
p587
aVdefinitely
p588
aVyou
p589
ag22
aaa(lp590
Vjerry
p591
a(lp592
Vreally
p593
ag18
aaa(lp594
Vkramer
p595
a(lp596
Vthat
p597
aV's
p598
aVmore
p599
aVyou
p600
aVthan
p601
aVyou
p602
aV've
p603
aVever
p604
aVbeen
p605
ag22
aVwhat
p606
aVis
p607
aVwith
p608
aVthe
p609
aVpink
p610
aVlining
p611
ag18
aaa(lp612
Vjerry
p613
a(lp614
g13
aVdo
p615
aVn't
p616
aVknow
p617
ag22
aVit
p618
aV's
p619
aVgot
p620
ag67
aVpink
p621
aVlining
p622
ag22
aaa(lp623
Vkramer
p624
a(lp625
Voh
p626
aVso
p627
ag16
aVwhat
p628
aVdid
p629
aVyou
p630
aVpay
p631
aVfor
p632
aVthis
p633
ag18
aaa(lp634
Vjerry
p635
a(lp636
g13
aVpaid
p637
aVwhat
p638
aVit
p639
aVcosts
p640
ag22
aaa(lp641
Vkramer
p642
a(lp643
Vhow
p644
aVmuch
p645
ag18
aaa(lp646
Vjerry
p647
a(lp648
Vwhat
p649
aV's
p650
aVthe
p651
aVdifference
p652
ag18
aaa(lp653
Vkramer
p654
a(lp655
Vwhat
p656
ag16
aVyou
p657
aV're
p658
aVnot
p659
aVgon
p660
aVna
p661
aVtell
p662
aVme
p663
ag18
aaa(lp664
Vjerry
p665
a(lp666
g13
aV'd
p667
aVrather
p668
aVnot
p669
aVsay
p670
aVit
p671
aVout
p672
aVloud
p673
ag22
aVit
p674
aV's
p675
aVembarrassing
p676
ag22
aaa(lp677
Vkramer
p678
a(lp679
Vover
p680
aVthree
p681
aVhundred
p682
ag18
aaa(lp683
Vjerry
p684
a(lp685
Vyes
p686
ag16
aVbut
p687
aVlet
p688
aV's
p689
aVjust
p690
aVstop
p691
aVit
p692
aVright
p693
aVthere
p694
ag22
aaa(lp695
Vkramer
p696
a(lp697
Vit
p698
aV's
p699
aVover
p700
aVfour
p701
aVhundred
p702
ag18
aaa(lp703
Vjerry
p704
a(lp705
Vreally
p706
ag16
ag13
aV'm
p707
aVnot
p708
aVanswering
p709
aVanymore
p710
ag22
aaa(lp711
Vkramer
p712
a(lp713
Vis
p714
aVit
p715
aVover
p716
aVfour
p717
aVhundred
p718
ag18
aaa(lp719
Vjerry
p720
a(lp721
Vwould
p722
aVyou
p723
ag18
aaa(lp724
Vkramer
p725
a(lp726
Vwoah
p727
ag16
aVnelson
p728
aV!
p729
aaa(lp730
Vjerry
p731
a(lp732
g13
aVknow
p733
ag16
ag13
aVknow
p734
ag22
aaa(lp735
Vkramer
p736
a(lp737
Vwhat
p738
aVare
p739
aVyou
p740
aVgon
p741
aVna
p742
aVdo
p743
aVwith
p744
aVthe
p745
aVleather
p746
aVone
p747
ag18
aaa(lp748
Vjerry
p749
a(lp750
g13
aVdo
p751
aVn't
p752
aVknow
p753
ag22
aaa(lp754
Vkramer
p755
a(lp756
Vwell
p757
ag16
aVare
p758
aVyou
p759
aVgon
p760
aVna
p761
aVwear
p762
aVit
p763
ag18
aaa(lp764
Vjerry
p765
a(lp766
Vmaybe
p767
ag22
aaa(lp768
Vkramer
p769
a(lp770
Vyou
p771
aV're
p772
aVnot
p773
aVgoing
p774
aVto
p775
aVwear
p776
aVthis
p777
ag22
aaa(lp778
Vjerry
p779
a(lp780
Vdo
p781
aVyou
p782
aVwant
p783
aVit
p784
ag18
aaa(lp785
Vkramer
p786
a(lp787
Vwell
p788
ag16
aVyeah
p789
ag22
aVokay
p790
ag22
ag13
aV'll
p791
aVtake
p792
aVit
p793
ag13
aVlike
p794
aVthe
p795
aVjacket
p796
ag22
aaa(lp797
Vjerry
p798
a(lp799
Vokay
p800
ag16
aVtake
p801
aVit
p802
ag22
aaa(lp803
Vkramer
p804
a(lp805
Vgood
p806
aVkarma
p807
aVfor
p808
aVyou
p809
ag22
aVoh
p810
aVbaby
p811
ag22
aaa(lp812
Vgeorge
p813
a(lp814
Vmaster
p815
aVof
p816
aVthe
p817
aVhouse
p818
aVdoling
p819
aVout
p820
aVthe
p821
aVcharm
p822
ag16
aVready
p823
aVwith
p824
ag67
aVhandshake
p825
aVand
p826
aVan
p827
aVopen
p828
aVpalm
p829
ag22
aVtells
p830
ag67
aVsaucy
p831
aVtalke
p832
ag16
aVloves
p833
aVto
p834
aVmake
p835
ag67
aVstir
p836
aVeveryone
p837
aVappreciates
p838
ag67
aaa(lp839
Vjerry
p840
a(lp841
Vwhat
p842
aVis
p843
aVthat
p844
aVsong
p845
ag18
aaa(lp846
Vgeorge
p847
a(lp848
Voh
p849
ag16
aVit
p850
aV's
p851
aVfrom
p852
aVles
p853
aVmiserables
p854
ag22
ag13
aVwent
p855
aVto
p856
aVsee
p857
aVit
p858
aVlast
p859
aVwee
p860
ag22
ag13
aVca
p861
aVn't
p862
aVget
p863
aVit
p864
aVout
p865
aVof
p866
aVmy
p867
aVhead
p868
ag22
ag13
aVjust
p869
aVkeep
p870
aVsinging
p871
aVit
p872
aVover
p873
aVand
p874
aVover
p875
ag22
aVit
p876
aVjust
p877
aVcomes
p878
aVout
p879
ag22
ag13
aVhave
p880
aVno
p881
aVcontrol
p882
aVover
p883
aVit
p884
ag22
ag13
aV'm
p885
aVsinging
p886
aVit
p887
aVon
p888
aVelevators
p889
ag16
aVbuses
p890
ag22
ag13
aVsing
p891
aVit
p892
aVinfront
p893
aVof
p894
aVclients
p895
ag22
aVit
p896
aV's
p897
aVtaking
p898
aVover
p899
aVmy
p900
aVlife
p901
ag22
aaa(lp902
Vjerry
p903
a(lp904
Vyou
p905
aVknow
p906
ag16
aVschumann
p907
aVwent
p908
aVmad
p909
aVfrom
p910
aVthat
p911
ag22
aaa(lp912
Vgeorge
p913
a(lp914
Vartie
p915
aVschumann
p916
ag18
aVfrom
p917
aVcamp
p918
aVhatchapee
p919
ag18
aaa(lp920
Vjerry
p921
a(lp922
Vno
p923
ag16
aVyou
p924
aVidiot
p925
ag22
aaa(lp926
Vgeorge
p927
a(lp928
Vwhat
p929
aVare
p930
aVyou
p931
ag16
aVbud
p932
aVabbott
p933
ag18
aVwhat
p934
ag16
aVare
p935
aVyou
p936
aVcalling
p937
aVmy
p938
aVan
p939
aVidiot
p940
ag18
aaa(lp941
Vjerry
p942
a(lp943
Vyou
p944
aVdo
p945
aVn't
p946
aVknow
p947
aVrober
p948
aVschumann
p949
ag18
aVthe
p950
aVcomposer
p951
ag18
aaa(lp952
Vgeorge
p953
a(lp954
Voh
p955
ag16
aVschumann
p956
ag22
aVof
p957
aVcourse
p958
ag22
aaa(lp959
Vjerry
p960
a(lp961
Vhe
p962
aVwent
p963
aVcrazy
p964
aVfrom
p965
aVone
p966
aVnote
p967
ag22
aVhe
p968
aVcould
p969
aVn't
p970
aVget
p971
aVit
p972
aVout
p973
aVof
p974
aVhis
p975
aVhead
p976
ag22
ag13
aVthink
p977
aVit
p978
aVwas
p979
aVan
p980
aVa.
p981
aVhe
p982
aVkept
p983
aVrepeating
p984
aVit
p985
aVover
p986
aVand
p987
aVover
p988
aVagain
p989
ag22
aVhe
p990
aVhad
p991
aVto
p992
aVbe
p993
aVinstitutionalized
p994
ag22
aaa(lp995
Vgeorge
p996
a(lp997
Vreally
p998
ag18
aVwell
p999
ag16
aVwhat
p1000
aVif
p1001
aVit
p1002
aVdoes
p1003
aVn't
p1004
aVstop
p1005
ag18
aVoh
p1006
ag16
aVthat
p1007
ag13
aVreally
p1008
aVneeded
p1009
aVto
p1010
aVhear
p1011
ag22
aVthat
p1012
aVhelps
p1013
ag67
aVlot
p1014
ag729
aValright
p1015
ag16
aVjust
p1016
aVsay
p1017
aVsomething
p1018
ag22
aVjust
p1019
aVstart
p1020
aVtalking
p1021
ag22
aVchange
p1022
aVthe
p1023
aVsubject
p1024
aVlet
p1025
aV's
p1026
aVjust
p1027
aVgo
p1028
ag16
aValright
p1029
ag18
ag13
aVca
p1030
aVn't
p1031
aVbelieve
p1032
aVwe
p1033
aV're
p1034
aVhaving
p1035
aVdinner
p1036
aVwith
p1037
aValton
p1038
aVbenes
p1039
ag22
aaa(lp1040
Vjerry
p1041
a(lp1042
g13
aVknow
p1043
aVexactly
p1044
aVwhat
p1045
aV's
p1046
aVgoin
p1047
aVto
p1048
aVhappen
p1049
aVtonight
p1050
ag22
ag13
aV'm
p1051
aVgon
p1052
aVna
p1053
aVtry
p1054
aVand
p1055
aVact
p1056
aVlike
p1057
ag13
aV'm
p1058
aVnot
p1059
aVimpressed
p1060
ag16
aVhe
p1061
aV's
p1062
aVgon
p1063
aVna
p1064
aVsee
p1065
aVright
p1066
aVthrough
p1067
aVit
p1068
ag22
aaa(lp1069
Vgeorge
p1070
a(lp1071
Vyeah
p1072
ag16
aVhe
p1073
aV'll
p1074
aVbe
p1075
aVlooking
p1076
aVat
p1077
aVus
p1078
aVlike
p1079
aVhe
p1080
aV's
p1081
aVbackstage
p1082
aVat
p1083
ag67
aVpuppet
p1084
aVshow
p1085
ag22
aaa(lp1086
Vjerry
p1087
a(lp1088
Vlet
p1089
aVme
p1090
aVjust
p1091
aVget
p1092
aVmy
p1093
aVjacket
p1094
ag22
aaa(lp1095
Vgeorge
p1096
a(lp1097
Vmaster
p1098
aVof
p1099
aVthe
p1100
aVhouse
p1101
ag16
aVkeeper
p1102
aVof
p1103
aVthe
p1104
aVinn
p1105
aVthis
p1106
aVis
p1107
aVhuge
p1108
ag729
aVwhen
p1109
aVdid
p1110
aVthis
p1111
aVhappen
p1112
ag18
aaa(lp1113
Vjerry
p1114
a(lp1115
Vwednesday
p1116
ag22
aVthis
p1117
aVjacket
p1118
aVhas
p1119
aVcompletely
p1120
aVchanged
p1121
aVmy
p1122
aVlife
p1123
ag22
aVwhen
p1124
ag13
aVleave
p1125
aVthe
p1126
aVhouse
p1127
aVin
p1128
aVthis
p1129
ag16
aVit
p1130
aV's
p1131
aVwith
p1132
ag67
aVwhole
p1133
aVdifferent
p1134
aVconfidence
p1135
ag22
aVlike
p1136
aVtonight
p1137
ag16
ag13
aVmight
p1138
aV've
p1139
aVbeen
p1140
ag67
aVlittle
p1141
aVnervous
p1142
ag22
aVbut
p1143
ag16
aVinside
p1144
aVthis
p1145
aVjacket
p1146
ag16
ag13
aVam
p1147
aVcomposed
p1148
ag16
aVgrounded
p1149
ag16
aVsecure
p1150
aVthat
p1151
ag13
aVcan
p1152
aVmeet
p1153
aVan
p1154
aVsocial
p1155
aVchallenge
p1156
ag22
aaa(lp1157
Vgeorge
p1158
a(lp1159
Vcan
p1160
ag13
aVsay
p1161
aVone
p1162
aVthing
p1163
aVto
p1164
aVyou
p1165
ag18
aVand
p1166
ag13
aVsay
p1167
aVthis
p1168
aVwiht
p1169
aVan
p1170
aVunblemished
p1171
aVrecord
p1172
aVof
p1173
aVstaunch
p1174
aVheterosexuality
p1175
ag22
aaa(lp1176
Vjerry
p1177
a(lp1178
Vabsolutely
p1179
ag22
aaa(lp1180
Vgeorge
p1181
a(lp1182
Vit
p1183
aV's
p1184
aVfabulous
p1185
ag22
aaa(lp1186
Vjerry
p1187
a(lp1188
g13
aVknow
p1189
ag22
aaa(lp1190
Vgeorge
p1191
a(lp1192
Vand
p1193
ag13
aV'll
p1194
aVtell
p1195
aVyou
p1196
aVsomething
p1197
aVelse
p1198
ag16
ag13
aV'm
p1199
aVnot
p1200
aVeven
p1201
aVgoing
p1202
aVto
p1203
aVask
p1204
aVyou
p1205
ag22
ag13
aVwant
p1206
aVto
p1207
aVknow
p1208
ag22
aVbut
p1209
ag13
aV'm
p1210
aVnot
p1211
aVgoing
p1212
aVto
p1213
aVask
p1214
ag22
aVyou
p1215
aV'll
p1216
aVtell
p1217
aVme
p1218
aVwhen
p1219
aVyou
p1220
aVfeel
p1221
aVcomfortable
p1222
aVso
p1223
aVwhat
p1224
aVwas
p1225
aVit
p1226
ag18
aVfour
p1227
aVhundred
p1228
ag18
aVfive
p1229
aVhundred
p1230
ag18
aVdid
p1231
aVyou
p1232
aVpay
p1233
aVfive
p1234
aVhundred
p1235
aVfor
p1236
aVthis
p1237
ag18
aVover
p1238
aVsix
p1239
ag18
aVca
p1240
aVn't
p1241
aVbe
p1242
aVseven
p1243
ag22
aVdo
p1244
aVn't
p1245
aVtell
p1246
aVmy
p1247
aVyou
p1248
aVpaid
p1249
aVseven
p1250
aVhundred
p1251
aVdollars
p1252
aVfor
p1253
aVthis
p1254
aVjacket
p1255
ag729
aVdid
p1256
aVyou
p1257
aVpay
p1258
aVseven
p1259
aVhundred
p1260
aVdollars
p1261
aVfor
p1262
aVthis
p1263
aVjacket
p1264
ag18
aVis
p1265
aVthat
p1266
aVwhat
p1267
aVyou
p1268
aV're
p1269
aVsaying
p1270
aVto
p1271
aVme
p1272
ag18
ag729
aVyou
p1273
aVare
p1274
aVsick
p1275
ag729
aVis
p1276
aVthat
p1277
aVwhat
p1278
aVyou
p1279
aVpaid
p1280
aVfor
p1281
aVthis
p1282
aVjacket
p1283
ag18
ag729
aVover
p1284
aVseven
p1285
aVhundred
p1286
ag18
aVwhat
p1287
aVdid
p1288
aVyou
p1289
aVpay
p1290
aVfor
p1291
aVthis
p1292
aVjacket
p1293
ag18
ag13
aVwo
p1294
aVn't
p1295
aVsay
p1296
aVanything
p1297
ag22
ag13
aVwan
p1298
aVna
p1299
aVknow
p1300
aVwhat
p1301
aVyou
p1302
aVpaid
p1303
aVfor
p1304
aVthis
p1305
aVjacket
p1306
ag729
aVoh
p1307
aVmy
p1308
aVgod
p1309
ag729
ag67
aVthousand
p1310
aVdollars
p1311
ag18
ag729
aVyou
p1312
aVpaid
p1313
ag67
aVthousand
p1314
aVdollars
p1315
aVfor
p1316
aVthis
p1317
aVjacket
p1318
ag18
ag729
aValright
p1319
ag16
aVfine
p1320
ag22
ag13
aV'm
p1321
aVwalking
p1322
aVout
p1323
aVof
p1324
aVhere
p1325
aVright
p1326
aVnow
p1327
aVthinking
p1328
aVyou
p1329
aVpaid
p1330
ag67
aVthousand
p1331
aVdollars
p1332
aVfor
p1333
aVthis
p1334
aVjacket
p1335
ag16
aVunless
p1336
aVyou
p1337
aVtell
p1338
aVme
p1339
aVdifferent
p1340
ag22
aVoh
p1341
ag16
aVho
p1342
ag729
aValright
p1343
ag729
ag13
aV'll
p1344
aVtell
p1345
aVyou
p1346
aVwhat
p1347
ag16
aVif
p1348
aVyou
p1349
aVdo
p1350
aVn't
p1351
aVsay
p1352
aVanything
p1353
aVin
p1354
aVthe
p1355
aVnext
p1356
aVfive
p1357
aVseconds
p1358
ag16
ag13
aV'll
p1359
aVknow
p1360
aVit
p1361
aVwas
p1362
aVover
p1363
ag67
aVthousand
p1364
aaa(lp1365
Vkramer
p1366
a(lp1367
Vhey
p1368
ag22
aVhey
p1369
ag16
aVwould
p1370
aVyou
p1371
aVdo
p1372
aVme
p1373
ag67
aVsolid
p1374
ag18
aaa(lp1375
Vjerry
p1376
a(lp1377
Vwell
p1378
ag16
aVwhat
p1379
aVkind
p1380
aVof
p1381
aVsolid
p1382
ag18
aaa(lp1383
Vkramer
p1384
a(lp1385
g13
aVneed
p1386
aVyou
p1387
aVto
p1388
aVsit
p1389
aVin
p1390
aVthe
p1391
aVcar
p1392
aVfor
p1393
aVtwo
p1394
aVminutes
p1395
aVwhile
p1396
aVit
p1397
aV's
p1398
aVdouble-parked
p1399
ag22
ag13
aVgot
p1400
aVta
p1401
aVpick
p1402
aVup
p1403
aVsome
p1404
aVbirds
p1405
ag22
aaa(lp1406
Vjerry
p1407
a(lp1408
Vbirds
p1409
ag18
aaa(lp1410
Vkramer
p1411
a(lp1412
Vyeah
p1413
ag22
ag67
aVfriend
p1414
aVof
p1415
aVmine
p1416
ag16
aVhe
p1417
aV's
p1418
ag67
aVmagician
p1419
ag22
aVhe
p1420
aV's
p1421
aVgoing
p1422
aVaway
p1423
aVon
p1424
aVvacation
p1425
ag22
aVhe
p1426
aVasked
p1427
aVme
p1428
aVto
p1429
aVtake
p1430
aVcare
p1431
aVof
p1432
aVhis
p1433
aVdoves
p1434
ag22
aaa(lp1435
Vjerry
p1436
a(lp1437
Vso
p1438
aVtake
p1439
ag67
aVcab
p1440
ag22
aaa(lp1441
Vkramer
p1442
a(lp1443
Vthey
p1444
aVwo
p1445
aVn't
p1446
aVtake
p1447
ag67
aVcage
p1448
aVfull
p1449
aVof
p1450
aVbirds
p1451
ag22
aaa(lp1452
Vjerry
p1453
a(lp1454
g13
aVca
p1455
aVn't
p1456
ag22
ag13
aV'm
p1457
aVon
p1458
aVmy
p1459
aVway
p1460
aVout
p1461
ag22
aVthere
p1462
aV's
p1463
aVno
p1464
aVway
p1465
ag13
aVcan
p1466
aVdo
p1467
aVit
p1468
ag22
aaa(lp1469
Vkramer
p1470
a(lp1471
Vgeorge
p1472
ag16
aVdo
p1473
aVme
p1474
ag67
aVsolid
p1475
ag18
aVtwo
p1476
aVminutes
p1477
ag22
aaa(lp1478
Vgeorge
p1479
a(lp1480
Vwell
p1481
ag16
ag13
aV'm
p1482
aVgoing
p1483
aVwith
p1484
aVhim
p1485
ag22
ag13
aV'd
p1486
aVlike
p1487
aVto
p1488
ag16
ag13
aV've
p1489
aVnever
p1490
aVdone
p1491
ag67
aVsolid
p1492
aVbefore
p1493
ag22
aaa(lp1494
Vkramer
p1495
a(lp1496
Valright
p1497
aVyeah
p1498
aValright
p1499
ag16
aVhave
p1500
ag67
aVgood
p1501
aVone
p1502
ag22
aaa(lp1503
Vjerry
p1504
a(lp1505
Vtwo
p1506
aVminutes
p1507
ag22
aVbelieve
p1508
aVme
p1509
ag16
ag13
aVknow
p1510
aVhis
p1511
aVtwo
p1512
aVminutes
p1513
aVby
p1514
aVhis
p1515
aVconception
p1516
aVof
p1517
aVtime
p1518
ag16
aVhis
p1519
aVlife
p1520
aVwill
p1521
aVlast
p1522
aVover
p1523
aVtwo
p1524
aVthousand
p1525
aVyears
p1526
ag22
aaa(lp1527
Vgeorge
p1528
a(lp1529
Vmaster
p1530
aVof
p1531
aVthe
p1532
aVhouse
p1533
ag22
aVquick
p1534
aVto
p1535
aVcatch
p1536
aVyour
p1537
aVeye
p1538
ag16
aVnever
p1539
aVwants
p1540
ag67
aVpasserby
p1541
aVto
p1542
aVpass
p1543
aVhim
p1544
aVby
p1545
ag22
aaa(lp1546
Vjerry
p1547
a(lp1548
Vschumann
p1549
ag22
aVwhere
p1550
aVare
p1551
aVthey
p1552
ag18
aaa(lp1553
Vgeorge
p1554
a(lp1555
Vmaybe
p1556
aVhe
p1557
aVdid
p1558
aVn't
p1559
aVshow
p1560
aVup
p1561
ag22
aaa(lp1562
Vjerry
p1563
a(lp1564
Vwhat
p1565
ag16
aVyou
p1566
aVdo
p1567
aVn't
p1568
aVwant
p1569
aVto
p1570
aVdo
p1571
aVthis
p1572
ag18
aaa(lp1573
Vgeorge
p1574
a(lp1575
g13
aVdo
p1576
aVn't
p1577
aVthink
p1578
aVthere
p1579
aV's
p1580
aVever
p1581
aVbeen
p1582
aVan
p1583
aVappointment
p1584
aVin
p1585
aVmy
p1586
aVlife
p1587
aVwhere
p1588
ag13
aVwanted
p1589
aVthe
p1590
aVother
p1591
aVguy
p1592
aVto
p1593
aVshow
p1594
aVup
p1595
ag22
aaa(lp1596
Vgeorge
p1597
a(lp1598
Vwait
p1599
ag67
aVsecond
p1600
ag16
aVis
p1601
aVthat
p1602
aVhim
p1603
ag18
aaa(lp1604
Vjerry
p1605
a(lp1606
Vyeah
p1607
ag16
ag13
aVthink
p1608
aVit
p1609
aVis
p1610
ag22
aVwhere
p1611
aV's
p1612
aVelaine
p1613
ag18
aaa(lp1614
Vgeorge
p1615
a(lp1616
g13
aV'm
p1617
aVnervous
p1618
ag22
aaa(lp1619
Vjerry
p1620
a(lp1621
Vexcuse
p1622
aVme
p1623
aVmister
p1624
aVbenes
p1625
ag18
aaa(lp1626
Valton
p1627
a(lp1628
Vyeah
p1629
ag18
aaa(lp1630
Vjerry
p1631
a(lp1632
g13
aV'm
p1633
aVjerry
p1634
ag22
aVelaine
p1635
aV's
p1636
aVfriend
p1637
aVand
p1638
aVthis
p1639
aVis
p1640
aVgeorge
p1641
ag22
aaa(lp1642
Vgeorge
p1643
a(lp1644
Vit
p1645
aV's
p1646
ag67
aVgreat
p1647
aVthrill
p1648
aVto
p1649
aVmeet
p1650
aVyou
p1651
ag16
aVsir
p1652
ag22
aaa(lp1653
Valton
p1654
a(lp1655
Vsit
p1656
aVdown
p1657
ag22
aVwant
p1658
ag67
aVdrink
p1659
ag18
aaa(lp1660
Vjerry
p1661
a(lp1662
Vsure
p1663
ag22
aaa(lp1664
Valton
p1665
a(lp1666
Vwhat
p1667
aVdo
p1668
aVyou
p1669
aVhave
p1670
ag18
aaa(lp1671
Vjerry
p1672
a(lp1673
g13
aV'll
p1674
aVhave
p1675
ag67
aVcranberry
p1676
aVjuice
p1677
aVwith
p1678
aVtwo
p1679
aVlimes
p1680
ag22
aaa(lp1681
Vgeorge
p1682
a(lp1683
Vand
p1684
ag16
ag13
aV'll
p1685
aVhave
p1686
ag67
aVclub
p1687
aVsoda
p1688
aVwith
p1689
aVno
p1690
aVice
p1691
ag22
aaa(lp1692
Vbenes
p1693
a(lp1694
g13
aV'll
p1695
aVhave
p1696
aVanother
p1697
aVscotch
p1698
aVwith
p1699
aVplenty
p1700
aVof
p1701
aVice
p1702
ag22
aaa(lp1703
Vgeorge
p1704
a(lp1705
Vyou
p1706
aVlike
p1707
aVice
p1708
ag18
aaa(lp1709
Valton
p1710
a(lp1711
Vhuh
p1712
ag18
aaa(lp1713
Vgeorge
p1714
a(lp1715
g13
aVsaid
p1716
ag16
aVdo
p1717
aVyou
p1718
aVlike
p1719
aVice
p1720
ag18
aaa(lp1721
Valton
p1722
a(lp1723
Vlike
p1724
aVit
p1725
ag18
aaa(lp1726
Vgeorge
p1727
a(lp1728
Vdo
p1729
aVn't
p1730
aVyou
p1731
aVthink
p1732
aVyou
p1733
aVget
p1734
aVmore
p1735
aVwithout
p1736
aVit
p1737
ag18
aaa(lp1738
Valton
p1739
a(lp1740
Vwhere
p1741
aV's
p1742
aVelaine
p1743
ag18
aaa(lp1744
Vjerry
p1745
a(lp1746
Vwell
p1747
ag16
aVwe
p1748
aVthought
p1749
aVshe
p1750
aVwas
p1751
aVmeeting
p1752
aVyou
p1753
aVearlier
p1754
ag22
aVshe
p1755
aV's
p1756
aVusually
p1757
aVpretty
p1758
aVpunctual
p1759
ag22
aVdo
p1760
aVn't
p1761
aVyou
p1762
aVfind
p1763
aVthat
p1764
ag16
aVgeorge
p1765
ag18
aaa(lp1766
Vgeorge
p1767
a(lp1768
Vyeah
p1769
ag16
aVyeah
p1770
ag22
aVshe
p1771
aV's
p1772
aVpunctual
p1773
aVand
p1774
aVshe
p1775
aV's
p1776
aVbeen
p1777
aVlate
p1778
aVsometimes
p1779
ag22
aaa(lp1780
Vjerry
p1781
a(lp1782
Vyeah
p1783
ag16
aVyeah
p1784
ag22
aVsometimes
p1785
aVshe
p1786
aV's
p1787
aVon
p1788
aVtime
p1789
ag16
aVand
p1790
aVsometimes
p1791
aVshe
p1792
aV's
p1793
aVlate
p1794
ag22
aaa(lp1795
Vgeorge
p1796
a(lp1797
g13
aVguess
p1798
aVtoday
p1799
aVshe
p1800
aV's
p1801
aVlate
p1802
ag22
aaa(lp1803
Vjerry
p1804
a(lp1805
Vit
p1806
aVappears
p1807
aVthat
p1808
aVway
p1809
ag22
aaa(lp1810
Vgeorge
p1811
a(lp1812
Vyep
p1813
ag22
aaa(lp1814
Vjerry
p1815
a(lp1816
Vyep
p1817
ag22
aaa(lp1818
Valton
p1819
a(lp1820
Vlooks
p1821
aVlike
p1822
aVrain
p1823
ag22
aaa(lp1824
Vgeorge
p1825
a(lp1826
g13
aVknow
p1827
ag16
ag13
aVknow
p1828
ag16
aVthat
p1829
aV's
p1830
aVwhat
p1831
aVthey
p1832
aVsaid
p1833
ag22
aaa(lp1834
Valton
p1835
a(lp1836
Vwho
p1837
aVsaid
p1838
ag18
aaa(lp1839
Vgeorge
p1840
a(lp1841
Vthe
p1842
aVweather
p1843
aVguy
p1844
ag16
aVdr.
p1845
aVwaldo
p1846
ag22
aaa(lp1847
Valton
p1848
a(lp1849
g13
aVdo
p1850
aVn't
p1851
aVneed
p1852
aVanybody
p1853
aVto
p1854
aVtell
p1855
aVme
p1856
aVit
p1857
aV's
p1858
aVgon
p1859
aVna
p1860
aVrain
p1861
ag22
aaa(lp1862
Vgeorge
p1863
a(lp1864
Vno
p1865
ag16
aVof
p1866
aVcourse
p1867
aVnot
p1868
ag22
ag13
aVdid
p1869
aVn't
p1870
aaa(lp1871
Valton
p1872
a(lp1873
Vall
p1874
ag13
aVhave
p1875
aVto
p1876
aVdo
p1877
aVis
p1878
aVstick
p1879
aVmy
p1880
aVhead
p1881
aVout
p1882
aVthe
p1883
aVwindow
p1884
ag22
aVwhich
p1885
aVone
p1886
aV's
p1887
aVsuppose
p1888
aVto
p1889
aVbe
p1890
aVthe
p1891
aVfunny
p1892
aVguy
p1893
ag18
aaa(lp1894
Vgeorge
p1895
a(lp1896
Voh
p1897
ag16
aVhe
p1898
aV's
p1899
aVthe
p1900
aVcomedian
p1901
ag22
aaa(lp1902
Vjerry
p1903
a(lp1904
g13
aV'm
p1905
aVjust
p1906
ag67
aVregular
p1907
aVperson
p1908
ag22
aaa(lp1909
Vgeorge
p1910
a(lp1911
Vno
p1912
ag16
aVno
p1913
ag22
aVhe
p1914
aV's
p1915
aVjust
p1916
aVbeing
p1917
aVmodest
p1918
ag22
aaa(lp1919
Valton
p1920
a(lp1921
Vwe
p1922
aVhad
p1923
ag67
aVfunny
p1924
aVguy
p1925
aVwith
p1926
aVus
p1927
aVin
p1928
aVkorea
p1929
ag22
ag67
aVtailgunner
p1930
ag22
aVthey
p1931
aVblew
p1932
aVhis
p1933
aVbrains
p1934
aVout
p1935
aVall
p1936
aVover
p1937
aVthe
p1938
aVpacific
p1939
ag22
aVthere
p1940
aV's
p1941
aVnothing
p1942
aVfunny
p1943
aVabout
p1944
aVthat
p1945
ag22
aaa(lp1946
Vjerry
p1947
a(lp1948
Vwould
p1949
aVyou
p1950
aVexcuse
p1951
aVme
p1952
ag67
aVminute
p1953
ag18
ag13
aV'm
p1954
aVgon
p1955
aVna
p1956
aVgo
p1957
aVto
p1958
aVthe
p1959
aVbathroom
p1960
ag22
ag13
aV'll
p1961
aVbe
p1962
aVright
p1963
aVback
p1964
ag22
aaa(lp1965
Vgeorge
p1966
a(lp1967
g13
aVjust
p1968
aVwanted
p1969
aVto
p1970
aVtell
p1971
aVyou
p1972
aVthat
p1973
ag13
aVreally
p1974
aVenjoyed
p1975
aVfair
p1976
aVgame
p1977
ag22
ag13
aVthought
p1978
aVit
p1979
aVwas
p1980
aVjust
p1981
aVbrilliant
p1982
ag22
aaa(lp1983
Valton
p1984
a(lp1985
Vdrivel
p1986
ag22
aaa(lp1987
Vgeorge
p1988
a(lp1989
Vmaybe
p1990
aVsome
p1991
aVparts
p1992
ag22
aaa(lp1993
Valton
p1994
a(lp1995
Vwhat
p1996
aVparts
p1997
ag18
aaa(lp1998
Vgeorge
p1999
a(lp2000
Vthe
p2001
aVdrivel
p2002
aVparts
p2003
aVoh
p2004
aVmy
p2005
aVgosh
p2006
ag16
ag13
aVjust
p2007
aVrealized
p2008
aV-
p2009
ag13
aVhave
p2010
aVto
p2011
aVmake
p2012
ag67
aVphone
p2013
aVcall
p2014
ag22
ag13
aVcan
p2015
aVbelieve
p2016
aVwould
p2017
aVyou
p2018
aaa(lp2019
Vgeorge
p2020
a(lp2021
Vthank
p2022
aVyou
p2023
aVfor
p2024
aVleaving
p2025
aVme
p2026
aValone
p2027
aVwith
p2028
aVhim
p2029
ag729
aaa(lp2030
Vjerry
p2031
a(lp2032
Vthat
p2033
aVwas
p2034
aVbrutal
p2035
ag22
ag13
aVca
p2036
aVn't
p2037
aVgo
p2038
aVback
p2039
aVout
p2040
aVthere
p2041
ag22
aaa(lp2042
Vgeorge
p2043
a(lp2044
Vwell
p2045
ag16
aVlet
p2046
aV's
p2047
aVjust
p2048
aVleave
p2049
ag22
aaa(lp2050
Vjerry
p2051
a(lp2052
Velaine
p2053
aV'll
p2054
aVkill
p2055
aVme
p2056
ag22
aaa(lp2057
Vgeorge
p2058
a(lp2059
Vwhere
p2060
aVis
p2061
aVshe
p2062
ag18
aaa(lp2063
Vjerry
p2064
a(lp2065
Vshe
p2066
aV's
p2067
aVgot
p2068
aVta
p2069
aVbe
p2070
aVhere
p2071
aVsoon
p2072
ag22
aaa(lp2073
Vgeorge
p2074
a(lp2075
Vhow
p2076
aVcould
p2077
aVshe
p2078
aVleave
p2079
aVus
p2080
aValone
p2081
aVwith
p2082
aVthis
p2083
aVlunatic
p2084
ag18
aVten
p2085
aVmore
p2086
aVminutes
p2087
ag16
aVand
p2088
aVthat
p2089
aV's
p2090
aVit
p2091
ag729
ag13
aV'm
p2092
aVleaving
p2093
ag22
ag13
aVhave
p2094
aVto
p2095
aVtell
p2096
aVyou
p2097
ag16
aVthis
p2098
aVguy
p2099
aVscares
p2100
aVme
p2101
ag22
aaa(lp2102
Vjerry
p2103
a(lp2104
Vthe
p2105
aVwaiter
p2106
aVwas
p2107
aVtrembling
p2108
ag22
aaa(lp2109
Vgeorge
p2110
a(lp2111
Vif
p2112
aVshe
p2113
aVdoes
p2114
aVn't
p2115
aVshow
p2116
aVup
p2117
ag16
aVwe
p2118
aVca
p2119
aVn't
p2120
aVpossibly
p2121
aVhave
p2122
aVdinner
p2123
aVwith
p2124
aVhim
p2125
aValone
p2126
ag22
aaa(lp2127
Vjerry
p2128
a(lp2129
Vhow
p2130
aVare
p2131
aVwe
p2132
aVgon
p2133
aVna
p2134
aVget
p2135
aVout
p2136
aVof
p2137
aVit
p2138
ag18
aaa(lp2139
Vgeorge
p2140
a(lp2141
Vwe
p2142
aV'll
p2143
aVsay
p2144
aVwe
p2145
aV're
p2146
aVfrightened
p2147
aVand
p2148
aVwe
p2149
aVhave
p2150
aVto
p2151
aVgo
p2152
aVhome
p2153
ag22
aaa(lp2154
Vjerry
p2155
a(lp2156
Vyeah
p2157
ag16
aVthat
p2158
aV's
p2159
aVgood
p2160
ag22
aVhe
p2161
aV'd
p2162
aVclunk
p2163
aVour
p2164
aVheads
p2165
aVtogether
p2166
aVlike
p2167
aVmoe
p2168
ag22
aaa(lp2169
Vgeorge
p2170
a(lp2171
g13
aVdo
p2172
aVn't
p2173
aVknow
p2174
ag22
aVjust
p2175
aVstart
p2176
aVscratching
p2177
ag22
aVtell
p2178
aVhim
p2179
aVyou
p2180
aVhave
p2181
aVthe
p2182
aVcrabs
p2183
ag22
aVhe
p2184
aVwas
p2185
aVin
p2186
aVthe
p2187
aVmilitary
p2188
ag22
aVhe
p2189
aV'll
p2190
aVunderstand
p2191
aVthat
p2192
ag22
aaa(lp2193
Vjerry
p2194
a(lp2195
Vall
p2196
aVfathers
p2197
aVare
p2198
aVintimidating
p2199
ag22
aVthey
p2200
aV're
p2201
aVintimidating
p2202
aVbecause
p2203
aVthey
p2204
aVare
p2205
aVfathers
p2206
ag22
aVonce
p2207
ag67
aVman
p2208
aVhas
p2209
aVchildren
p2210
ag16
aVfor
p2211
aVthe
p2212
aVrest
p2213
aVof
p2214
aVhis
p2215
aVlife
p2216
ag16
aVhis
p2217
aVattitude
p2218
aVis
p2219
ag16
aVto
p2220
aVhell
p2221
aVwith
p2222
aVthe
p2223
aVworld
p2224
ag16
ag13
aVcan
p2225
aVmake
p2226
aVmy
p2227
aVown
p2228
aVpeople
p2229
ag22
ag13
aV'll
p2230
aVeat
p2231
aVwhatever
p2232
ag13
aVwant
p2233
ag22
ag13
aV'll
p2234
aVwear
p2235
aVwhatever
p2236
ag13
aVwant
p2237
ag16
aVand
p2238
ag13
aV'll
p2239
aVcreate
p2240
aVwhoever
p2241
ag13
aVwant
p2242
ag22
aaa(lp2243
Valton
p2244
a(lp2245
Vwho
p2246
aV'd
p2247
aVyou
p2248
aVcall
p2249
ag18
aaa(lp2250
Vgeorge
p2251
a(lp2252
Vmy
p2253
aVuncle
p2254
aVis
p2255
aVhaving
p2256
aVan
p2257
aVoperation
p2258
ag22
ag13
aVjust
p2259
aVwanted
p2260
aVto
p2261
aVsee
p2262
aVhow
p2263
aVhe
p2264
aVwas
p2265
ag22
aaa(lp2266
Valton
p2267
a(lp2268
Vwhat
p2269
aVkind
p2270
aVof
p2271
aVoperation
p2272
ag18
aaa(lp2273
Vgeorge
p2274
a(lp2275
Vbone
p2276
aVmarrow
p2277
ag22
aaa(lp2278
Vmanager
p2279
a(lp2280
Vmister
p2281
aVbenes
p2282
ag18
aaa(lp2283
Valton
p2284
a(lp2285
Vyes
p2286
ag18
aaa(lp2287
Vmanager
p2288
a(lp2289
g67
aVmessage
p2290
aVfor
p2291
aVyou
p2292
ag22
aaa(lp2293
Valton
p2294
a(lp2295
Vfrom
p2296
aVelaine
p2297
ag22
aVshe
p2298
aVgot
p2299
aVtied
p2300
aVup
p2301
ag22
aVshe
p2302
aV'll
p2303
aVbe
p2304
aVhere
p2305
aVin
p2306
aVthirty
p2307
aVminutes
p2308
ag22
aaa(lp2309
Valton
p2310
a(lp2311
Vyeah
p2312
ag16
aVthey
p2313
aVshould
p2314
aV've
p2315
aVtaken
p2316
aVcare
p2317
aVof
p2318
aVcastro
p2319
aVwhen
p2320
aVthey
p2321
aVhad
p2322
aVthe
p2323
aVchance
p2324
ag22
aVlike
p2325
aVwe
p2326
aVdid
p2327
aVin
p2328
aVguatamala
p2329
aVin
p2330
aV'fifty-three
p2331
ag22
aaa(lp2332
Vjerry
p2333
a(lp2334
Vwell
p2335
ag16
aVguatamala
p2336
ag22
aaa(lp2337
Vgeorge
p2338
a(lp2339
Vsure
p2340
ag16
aVguatamala
p2341
ag22
aaa(lp2342
Valton
p2343
a(lp2344
Valright
p2345
ag16
aVyou
p2346
aVboys
p2347
aVget
p2348
aVyourselves
p2349
aVtogether
p2350
ag22
aVwe
p2351
aV'll
p2352
aVhead
p2353
aVup
p2354
aVto
p2355
aVthe
p2356
aVrestaurant
p2357
ag22
ag13
aV'll
p2358
aVleave
p2359
ag67
aVnote
p2360
aVfor
p2361
aVelaine
p2362
ag22
ag13
aV'm
p2363
aVgoing
p2364
aVto
p2365
aVthe
p2366
aVbathroom
p2367
ag22
aaa(lp2368
Vgeorge
p2369
a(lp2370
Vcome
p2371
aVon
p2372
ag16
aVlet
p2373
aV's
p2374
aVgo
p2375
ag729
aaa(lp2376
Vjerry
p2377
a(lp2378
Vwhat
p2379
aVabout
p2380
aVelaine
p2381
ag18
aaa(lp2382
Vgeorge
p2383
a(lp2384
Vto
p2385
aVhell
p2386
aVwith
p2387
aVelaine
p2388
ag729
aaa(lp2389
Vjerry
p2390
a(lp2391
Vshe
p2392
aV'll
p2393
aVbe
p2394
aVfurious
p2395
ag22
aaa(lp2396
Vgeorge
p2397
a(lp2398
Vwe
p2399
aV're
p2400
aVdying
p2401
aVhere
p2402
ag729
aaa(lp2403
Vjerry
p2404
a(lp2405
Vthat
p2406
aV's
p2407
aVher
p2408
ag729
aVshe
p2409
aV's
p2410
aVhere
p2411
ag729
aaa(lp2412
Velaine
p2413
a(lp2414
g13
aV'm
p2415
aVsorry
p2416
ag22
ag13
aV'm
p2417
aVso
p2418
aVsorry
p2419
ag22
aVwhere
p2420
aVis
p2421
aVdad
p2422
ag18
aaa(lp2423
Vgeorge
p2424
a(lp2425
Vhe
p2426
aV's
p2427
aVin
p2428
aVthe
p2429
aVbathroom
p2430
ag22
aaa(lp2431
Vjerry
p2432
a(lp2433
Vwhere
p2434
aVhave
p2435
aVyou
p2436
aVbeen
p2437
ag18
ag729
aaa(lp2438
Velaine
p2439
a(lp2440
Vkramer
p2441
ag16
aVthat
p2442
aVkramer
p2443
ag729
ag13
aV'm
p2444
aVjust
p2445
aVabout
p2446
aVto
p2447
aVleave
p2448
ag16
aVhe
p2449
aVcalls
p2450
aVme
p2451
aVup
p2452
ag22
aVhe
p2453
aVbegs
p2454
aVme
p2455
aVto
p2456
aVsit
p2457
aVin
p2458
aVhis
p2459
aVcar
p2460
aVfor
p2461
aVtwo
p2462
aVminutes
p2463
ag16
aVso
p2464
aVhe
p2465
aVcan
p2466
aVpick
p2467
aVup
p2468
aVthese
p2469
aVbirds
p2470
aaa(lp2471
Vjerry
p2472
a(lp2473
Voh
p2474
ag16
aVyou
p2475
aVdid
p2476
aVn't
p2477
aaa(lp2478
Velaine
p2479
a(lp2480
Vwell
p2481
ag16
aVhe
p2482
aVsaid
p2483
aVhe
p2484
aV'd
p2485
aVdrive
p2486
aVme
p2487
aVhere
p2488
aVright
p2489
aVafter
p2490
ag22
aVso
p2491
ag16
ag13
aVam
p2492
aVsitting
p2493
aVin
p2494
aVhis
p2495
aVcar
p2496
aVtwenty
p2497
aVminutes
p2498
ag729
aVhe
p2499
aVdoes
p2500
aVn't
p2501
aVcome
p2502
aVdown
p2503
ag22
ag13
aVam
p2504
aVfreezing
p2505
ag22
aVthen
p2506
ag67
aVcop
p2507
aVcomes
p2508
aVby
p2509
ag16
aVtells
p2510
aVme
p2511
aVto
p2512
aVget
p2513
aVout
p2514
aVof
p2515
aVthe
p2516
aVcar
p2517
ag22
aVhe
p2518
aV's
p2519
ag67
aVcity
p2520
aVmarshal
p2521
ag22
aVhe
p2522
aV's
p2523
aVtowing
p2524
aVthe
p2525
aVcar
p2526
aVaway
p2527
ag22
aVkramer
p2528
aVowes
p2529
aVthousands
p2530
aVof
p2531
aVdollars
p2532
aVin
p2533
aVback
p2534
aVtickets
p2535
ag22
aVhe
p2536
aVwas
p2537
aVgoing
p2538
aVto
p2539
aVtow
p2540
aVit
p2541
aVwith
p2542
aVme
p2543
aVin
p2544
aVthe
p2545
aVcar
p2546
ag729
aVso
p2547
ag16
aVthey
p2548
aVtow
p2549
aVthe
p2550
aVcar
p2551
ag22
aVnow
p2552
ag16
ag13
aVam
p2553
aVstanding
p2554
aVoutside
p2555
ag16
aVand
p2556
ag13
aVam
p2557
aVfreezing
p2558
ag16
aVbut
p2559
ag13
aVcan
p2560
aVnot
p2561
aVleave
p2562
aVbecause
p2563
ag13
aVhave
p2564
aVto
p2565
aVtell
p2566
aVhim
p2567
aVwhat
p2568
aVhappened
p2569
aVto
p2570
aVthe
p2571
aVcar
p2572
aVso
p2573
ag16
aVfinally
p2574
ag16
aVhe
p2575
aVfinally
p2576
aVcomes
p2577
aVdown
p2578
aVwith
p2579
aVhis
p2580
aVgiant
p2581
aVcage
p2582
aVfilled
p2583
aVwith
p2584
aVdoves
p2585
ag22
aVhe
p2586
aVsaid
p2587
aVhe
p2588
aVwas
p2589
aVgetting
p2590
aVspecial
p2591
aVinstructions
p2592
ag16
aVthat
p2593
aVeach
p2594
aVdove
p2595
aVhas
p2596
ag67
aVdifferent
p2597
aVdiet
p2598
ag22
aVso
p2599
ag16
aVwe
p2600
aV're
p2601
aVwandering
p2602
aVaround
p2603
aVtrying
p2604
aVto
p2605
aVget
p2606
ag67
aVcab
p2607
ag16
aVwhen
p2608
aVtwo
p2609
aVof
p2610
aVthese
p2611
aVdoves
p2612
aVfly
p2613
aVout
p2614
ag729
aVnow
p2615
aVwe
p2616
aV're
p2617
aVrunning
p2618
aVdown
p2619
aVthe
p2620
aVstreet
p2621
aVafter
p2622
aVthese
p2623
aVdoves
p2624
ag22
ag13
aValmost
p2625
aVgot
p2626
aVhit
p2627
aVby
p2628
ag67
aVbus
p2629
ag22
aVso
p2630
aVhow
p2631
aV's
p2632
aVeverything
p2633
aVgoing
p2634
aVover
p2635
aVhere
p2636
ag18
aaa(lp2637
Vjerry
p2638
a(lp2639
Vgreat
p2640
ag22
aaa(lp2641
Vgeorge
p2642
a(lp2643
Vcould
p2644
aVn't
p2645
aVbe
p2646
aVbetter
p2647
ag22
aaa(lp2648
Velaine
p2649
a(lp2650
Vgood
p2651
ag22
aV'cause
p2652
aVdad
p2653
aVcan
p2654
aVmake
p2655
aVsome
p2656
aVpeople
p2657
ag67
aVlittle
p2658
aVuncomfortable
p2659
ag22
aaa(lp2660
Vjerry
p2661
a(lp2662
Voh
p2663
ag16
aVno
p2664
ag16
aVno
p2665
ag22
aaa(lp2666
Vgeorge
p2667
a(lp2668
Vget
p2669
aVoutta
p2670
aVhere
p2671
aaa(lp2672
Velaine
p2673
a(lp2674
Vman
p2675
ag16
aVkramer
p2676
ag729
ag13
aVcould
p2677
aVkill
p2678
aVhim
p2679
ag22
aaa(lp2680
Vjerry
p2681
a(lp2682
g13
aVca
p2683
aVn't
p2684
aVbelieve
p2685
aVit
p2686
ag22
aVyou
p2687
aVknow
p2688
aVbetter
p2689
aVthan
p2690
aVto
p2691
aVget
p2692
aVinvolved
p2693
aVwith
p2694
aVkramer
p2695
ag22
aaa(lp2696
Velaine
p2697
a(lp2698
Vhe
p2699
aVsaid
p2700
aVhe
p2701
aV'd
p2702
aVgive
p2703
aVme
p2704
ag67
aVlift
p2705
ag22
aaa(lp2706
Vjerry
p2707
a(lp2708
Vah
p2709
ag16
aVthe
p2710
aVlift
p2711
ag22
aVlike
p2712
aVthe
p2713
aVlure
p2714
aVof
p2715
aVthe
p2716
aVsiren
p2717
aV's
p2718
aVsong
p2719
ag22
aVnever
p2720
aVwhat
p2721
aVit
p2722
aVseems
p2723
aVto
p2724
aVbe
p2725
ag16
aVyet
p2726
aVwho
p2727
aVamong
p2728
aVus
p2729
aVcan
p2730
aVresist
p2731
ag18
aaa(lp2732
Vgeorge
p2733
a(lp2734
Vwhere
p2735
aVdo
p2736
aVyou
p2737
aVcome
p2738
aVup
p2739
aVwith
p2740
aVthis
p2741
aVstuff
p2742
ag18
aaa(lp2743
Valton
p2744
a(lp2745
Vwell
p2746
ag16
aVlook
p2747
aVwho
p2748
aV's
p2749
aVhere
p2750
ag22
aaa(lp2751
Velaine
p2752
a(lp2753
Voh
p2754
ag16
aVhi
p2755
ag16
aVdad
p2756
ag22
aaa(lp2757
Valton
p2758
a(lp2759
Vhello
p2760
ag16
aVdear
p2761
ag22
aVwho
p2762
aV's
p2763
aVthe
p2764
aVlipstick
p2765
aVfor
p2766
ag18
aaa(lp2767
Velaine
p2768
a(lp2769
Vno
p2770
aVone
p2771
ag22
aaa(lp2772
Valton
p2773
a(lp2774
Vhow
p2775
aV's
p2776
aVyour
p2777
aVmother
p2778
ag18
aaa(lp2779
Velaine
p2780
a(lp2781
Vfine
p2782
ag22
aaa(lp2783
Valton
p2784
a(lp2785
Vhow
p2786
aVabout
p2787
aVyou
p2788
ag18
aVare
p2789
aVyou
p2790
aVworking
p2791
ag18
aaa(lp2792
Velaine
p2793
a(lp2794
Vyeah
p2795
ag16
ag13
aV'm
p2796
aVreading
p2797
aVmanuscripts
p2798
aVfor
p2799
aVpendant
p2800
aVpublishing
p2801
ag22
ag13
aVtold
p2802
aVyou
p2803
aVten
p2804
aVtimes
p2805
ag22
aaa(lp2806
Valton
p2807
a(lp2808
Vpendant
p2809
ag16
aVthose
p2810
aVbastards
p2811
aValright
p2812
ag16
aVboys
p2813
ag22
aVwe
p2814
aV'll
p2815
aVgo
p2816
aVto
p2817
aVthat
p2818
aVpakistani
p2819
aVrestaurant
p2820
aVon
p2821
aV46th
p2822
aVstreet
p2823
ag22
aVyou
p2824
aV're
p2825
aVnot
p2826
aVafraid
p2827
aVof
p2828
ag67
aVlittle
p2829
aVspice
p2830
ag16
aVare
p2831
aVyou
p2832
ag18
aaa(lp2833
Vgeorge
p2834
a(lp2835
Vmaster
p2836
aVof
p2837
aVthe
p2838
aVhouse
p2839
ag16
aVdoling
p2840
aVout
p2841
aVthe
p2842
aVcharm
p2843
ag22
aVready
p2844
aVwith
p2845
ag67
aVhandshake
p2846
aVand
p2847
aVan
p2848
aVopen
p2849
aaa(lp2850
Valton
p2851
a(lp2852
Vpipe
p2853
aVdown
p2854
ag16
aVchorus
p2855
aVboy
p2856
ag22
aaa(lp2857
Velaine
p2858
a(lp2859
Vohh
p2860
aVit
p2861
aV's
p2862
aVsnowing
p2863
ag22
aVit
p2864
aV's
p2865
aVbeautiful
p2866
ag22
aaa(lp2867
Vjerry
p2868
a(lp2869
Vsnow
p2870
aVsnow
p2871
ag16
aVthat
p2872
aVca
p2873
aVn't
p2874
aVbe
p2875
aVgood
p2876
aVfor
p2877
aVsuede
p2878
ag16
aVcan
p2879
aVit
p2880
ag18
aaa(lp2881
Vgeorge
p2882
a(lp2883
g13
aVwould
p2884
aVn't
p2885
aVthink
p2886
aVso
p2887
ag22
aaa(lp2888
Vjerry
p2889
a(lp2890
Vwhat
p2891
aVshould
p2892
ag13
aVdo
p2893
ag18
aVwe
p2894
aV're
p2895
aVtaking
p2896
ag67
aVcab
p2897
ag16
aVare
p2898
aVn't
p2899
aVwe
p2900
ag18
aaa(lp2901
Valton
p2902
a(lp2903
Vcab
p2904
ag18
aVit
p2905
aV's
p2906
aVonly
p2907
aVfive
p2908
aVblocks
p2909
ag22
aaa(lp2910
Vgeorge
p2911
a(lp2912
Vwhy
p2913
aVdo
p2914
aVn't
p2915
aVyou
p2916
aVjust
p2917
aVturn
p2918
aVit
p2919
aVinside
p2920
aVout
p2921
ag18
aaa(lp2922
Vjerry
p2923
a(lp2924
Vinside
p2925
aVout
p2926
ag729
aVgreat
p2927
ag22
aaa(lp2928
Valton
p2929
a(lp2930
Vwait
p2931
ag67
aVminute
p2932
ag22
aVwhat
p2933
aVthe
p2934
aVhell
p2935
aVdo
p2936
aVyou
p2937
aVcall
p2938
aVthis
p2939
ag18
aaa(lp2940
Vjerry
p2941
a(lp2942
Voh
p2943
ag16
ag13
aVturned
p2944
aVmy
p2945
aVjacket
p2946
aVinside
p2947
aVout
p2948
ag22
aaa(lp2949
Valton
p2950
a(lp2951
Vwell
p2952
ag16
aVyou
p2953
aVlook
p2954
aVlike
p2955
ag67
aVdamn
p2956
aVfool
p2957
ag729
aaa(lp2958
Vjerry
p2959
a(lp2960
Vwell
p2961
ag16
aVit
p2962
aV's
p2963
ag67
aVnew
p2964
aVsuede
p2965
aVjacket
p2966
ag22
aVit
p2967
aVmight
p2968
aVget
p2969
aVruined
p2970
ag22
aaa(lp2971
Valton
p2972
a(lp2973
Vwell
p2974
ag16
aVyou
p2975
aV're
p2976
aVnot
p2977
aVgoing
p2978
aVto
p2979
aVwalk
p2980
aVdown
p2981
aVthe
p2982
aVstreet
p2983
aVwith
p2984
aVmy
p2985
aVand
p2986
aVmy
p2987
aVdaughter
p2988
aVdressed
p2989
aVlike
p2990
aVthat
p2991
ag729
aVthat
p2992
aV's
p2993
aVfor
p2994
aVdamn
p2995
aVsure
p2996
ag729
aaa(lp2997
Vgeorge
p2998
a(lp2999
Vit
p3000
aV's
p3001
aVonly
p3002
ag67
aVfew
p3003
aVblocks
p3004
ag22
aaa(lp3005
Vjerry
p3006
a(lp3007
Velaine
p3008
ag18
aaa(lp3009
Velaine
p3010
a(lp3011
Vyeah
p3012
ag22
aaa(lp3013
Vjerry
p3014
a(lp3015
Vcome
p3016
aVon
p3017
aVup
p3018
ag22
aaa(lp3019
Vkramer
p3020
a(lp3021
Vhey
p3022
ag22
aaa(lp3023
Vjerry
p3024
a(lp3025
Vhey
p3026
ag22
aaa(lp3027
Vkramer
p3028
a(lp3029
g13
aV've
p3030
aVgot
p3031
aVta
p3032
aVfeed
p3033
aVthe
p3034
aVbirds
p3035
ag22
aaa(lp3036
Vjerry
p3037
a(lp3038
Vso
p3039
ag18
aaa(lp3040
Vkramer
p3041
a(lp3042
Vyou
p3043
aVgot
p3044
aVany
p3045
aVof
p3046
aVthose
p3047
aVmini
p3048
aVritzes
p3049
ag18
aaa(lp3050
Vjerry
p3051
a(lp3052
g13
aVca
p3053
aVn't
p3054
aVbelieve
p3055
ag13
aVdo
p3056
ag22
aaa(lp3057
Vkramer
p3058
a(lp3059
Vyeah
p3060
ag729
aVwell
p3061
ag16
aVare
p3062
aVyou
p3063
aVgoing
p3064
aVout
p3065
ag18
aaa(lp3066
Vjerry
p3067
a(lp3068
Vyeah
p3069
ag22
aaa(lp3070
Vkramer
p3071
a(lp3072
Vhey
p3073
ag16
aVwhere
p3074
aV's
p3075
aVyour
p3076
aVnew
p3077
aVjacket
p3078
ag18
aVwhat
p3079
ag18
aVohhh
p3080
ag22
aVwhat
p3081
aVdid
p3082
aVyou
p3083
aVdo
p3084
aVto
p3085
aVit
p3086
ag18
aaa(lp3087
Vjerry
p3088
a(lp3089
g13
aVwas
p3090
aVout
p3091
aVin
p3092
aVthe
p3093
aVsnow
p3094
aVlast
p3095
aVnight
p3096
ag22
aaa(lp3097
Vkramer
p3098
a(lp3099
Vdo
p3100
aVn't
p3101
aVyouk
p3102
aVnow
p3103
aVwhat
p3104
aVthat
p3105
aVdoes
p3106
aVto
p3107
aVsuede
p3108
ag18
aaa(lp3109
Vjerry
p3110
a(lp3111
g13
aVhave
p3112
aVan
p3113
aVidea
p3114
ag22
aVwe
p3115
aVcan
p3116
aVmake
p3117
aVthe
p3118
aVnine-thirty
p3119
aVat
p3120
aVcinema
p3121
aViii
p3122
ag22
aaa(lp3123
Velaine
p3124
a(lp3125
Vokay
p3126
aVhello
p3127
ag22
aVlisten
p3128
ag16
aVthanks
p3129
aVagain
p3130
aVfor
p3131
aVcoming
p3132
aVlast
p3133
aVnight
p3134
ag22
aVdad
p3135
aVsaid
p3136
aVhe
p3137
aVhad
p3138
ag67
aVgreat
p3139
aVtime
p3140
ag22
aaa(lp3141
Vjerry
p3142
a(lp3143
Vis
p3144
aVhe
p3145
aVstill
p3146
aVin
p3147
aVtown
p3148
ag18
aaa(lp3149
Velaine
p3150
a(lp3151
Vno
p3152
ag16
aVhe
p3153
aV's
p3154
aVdriving
p3155
aVback
p3156
aVto
p3157
aVmaryland
p3158
aVtonight
p3159
ag22
aaa(lp3160
Vkramer
p3161
a(lp3162
Vso
p3163
ag16
aVuh
p3164
aVwhat
p3165
aVare
p3166
aVyou
p3167
aVgon
p3168
aVna
p3169
aVdo
p3170
aVwith
p3171
aVthat
p3172
aVone
p3173
aVnow
p3174
ag18
aaa(lp3175
Vjerry
p3176
a(lp3177
g13
aVdo
p3178
aVn't
p3179
aVknow
p3180
ag22
aaa(lp3181
Vkramer
p3182
a(lp3183
Vwell
p3184
ag18
aaa(lp3185
Velaine
p3186
a(lp3187
g13
aVdid
p3188
aVn't
p3189
aVwant
p3190
aVto
p3191
aVtell
p3192
aVyou
p3193
aVthis
p3194
ag16
aVbut
p3195
aVusually
p3196
aVhe
p3197
aVhates
p3198
aVeveryone
p3199
ag22
aaa(lp3200
Vjerry
p3201
a(lp3202
Vreally
p3203
ag18
aaa(lp3204
Vkramer
p3205
a(lp3206
Vyou
p3207
aVgon
p3208
aVna
p3209
aVthrow
p3210
aVthis
p3211
aVout
p3212
ag18
aaa(lp3213
Vjerry
p3214
a(lp3215
Vwell
p3216
ag16
ag13
aVca
p3217
aVn't
p3218
aVwear
p3219
aVit
p3220
ag22
aaa(lp3221
Velaine
p3222
a(lp3223
Vyeah
p3224
ag16
aVhe
p3225
aVlike
p3226
aVyou
p3227
aVthough
p3228
ag22
aVsaid
p3229
aVyou
p3230
aVreminded
p3231
aVhim
p3232
aVof
p3233
aVsomebody
p3234
aVhe
p3235
aVknew
p3236
aVin
p3237
aVkorea
p3238
ag22
aaa(lp3239
Vkramer
p3240
a(lp3241
Vwell
p3242
ag16
aVif
p3243
aVyou
p3244
aV're
p3245
aVjust
p3246
aVgon
p3247
aVna
p3248
aVthrow
p3249
aVit
p3250
aVout
p3251
ag16
aVyou
p3252
aVknow
p3253
ag16
ag13
aVcould
p3254
aVtake
p3255
aVit
p3256
ag22
aaa(lp3257
Vjerry
p3258
a(lp3259
Vyeah
p3260
ag16
aVgo
p3261
aVahead
p3262
ag16
aVtake
p3263
aVit
p3264
ag22
aaa(lp3265
Velaine
p3266
a(lp3267
Vdad
p3268
aVthinks
p3269
aVgeorge
p3270
aVis
p3271
aVgay
p3272
ag22
aaa(lp3273
Vjerry
p3274
a(lp3275
Voh
p3276
ag16
aVbecause
p3277
aVof
p3278
aVall
p3279
aVthat
p3280
aVsinging
p3281
ag18
aaa(lp3282
Velaine
p3283
a(lp3284
Vno
p3285
ag16
aVhe
p3286
aVpretty
p3287
aVmuch
p3288
aVthinks
p3289
aVeveryone
p3290
aVis
p3291
aVgay
p3292
ag22
aaa(lp3293
Vkramer
p3294
a(lp3295
Vhey
p3296
ag16
aVsee
p3297
ag16
ag13
aVlike
p3298
aVit
p3299
aVlike
p3300
aVthis
p3301
ag22
aaa(lp3302
Velaine
p3303
a(lp3304
Visnt
p3305
ag299
aVthat
p3306
ag18
aVoh
p3307
ag16
aVis
p3308
aVthis
p3309
aVfromt
p3310
aVhe
p3311
aVsnow
p3312
aVlast
p3313
aVnight
p3314
ag18
aVugh
p3315
aVyou
p3316
aVknow
p3317
aVwhat
p3318
aVyou
p3319
aVshould
p3320
aV've
p3321
aVdone
p3322
ag18
aVyou
p3323
aVshould
p3324
aV've
p3325
aVturned
p3326
aVit
p3327
aVinside
p3328
aVout
p3329
ag22
aaa(lp3330
Vjerry
p3331
a(lp3332
g13
aV'll
p3333
aVtry
p3334
aVand
p3335
aVremember
p3336
aVthat
p3337
ag22
aaa(lp3338
Vkramer
p3339
a(lp3340
Vboy
p3341
ag16
aVit
p3342
aV's
p3343
aVtoo
p3344
aVbad
p3345
aVyou
p3346
aVgave
p3347
aVme
p3348
aVthis
p3349
aVone
p3350
aVtoo
p3351
ag22
aaa(lp3352
Vjerry
p3353
a(lp3354
Vyeah
p3355
ag16
aVtoo
p3356
aVbad
p3357
ag22
aaa(lp3358
Vkramer
p3359
a(lp3360
g13
aV'm
p3361
aVgon
p3362
aVna
p3363
aVhave
p3364
aVto
p3365
aVdo
p3366
aVsomething
p3367
aVabout
p3368
aVthis
p3369
aVlining
p3370
ag22
aaa(lp3371
Valton
p3372
a(lp3373
Vmaster
p3374
aVof
p3375
aVthe
p3376
aVhouse
p3377
aVdoling
p3378
aVout
p3379
aVthe
p3380
aVcharm
p3381
ag16
aVready
p3382
aVwith
p3383
ag67
aVhandshake
p3384
aVand
p3385
aVan
p3386
aVopen
p3387
aVpalm
p3388
aaa.