(lp0
(lp1
Vgeorge
p2
a(lp3
Vthe
p4
aVphone
p5
aVmessage
p6
aVwritten
p7
aVby
p8
aVlarry
p9
aVdavid
p10
aV&
p11
aVjerry
p12
aVseinfeld
p13
aVthe
p14
aVbad
p15
aVthing
p16
aVabout
p17
aVtelevision
p18
aVis
p19
aVthat
p20
aVeverybody
p21
aVyou
p22
aVsee
p23
aVon
p24
aVtelevision
p25
aVis
p26
aVdoing
p27
aVsomething
p28
aVbetter
p29
aVthan
p30
aVwhat
p31
aVyou
p32
aV're
p33
aVdoing
p34
aV.
p35
aVdid
p36
aVyou
p37
aVever
p38
aVsee
p39
aVanybody
p40
aVon
p41
aVtv
p42
aVlike
p43
aVjust
p44
aVsliding
p45
aVoff
p46
aVthe
p47
aVfront
p48
aVof
p49
aVthe
p50
aVsofa
p51
aVwith
p52
aVpotato
p53
aVchip
p54
aVcrumbs
p55
aVon
p56
aVtheir
p57
aVcommercial
p58
aVpeople
p59
aV-
p60
aVwhere
p61
aVdo
p62
aVthey
p63
aVsummon
p64
aVthis
p65
aVenthusiasm
p66
aV?
p67
aVhave
p68
aVyou
p69
aVseen
p70
aVthem
p71
ag67
aVwe
p72
aVhave
p73
aVsoda
p74
aV,
p75
aVwe
p76
aVhave
p77
aVsoda
p78
ag75
aVwe
p79
aVhave
p80
aVsoda
p81
ag75
aVjumping
p82
ag75
aVlaughing
p83
ag75
aVflying
p84
aVthrough
p85
aVthe
p86
aVair
p87
ag60
aVit
p88
aV's
p89
aVa
p90
aVcan
p91
aVof
p92
aVsoda
p93
ag35
aVhave
p94
aVyou
p95
aVever
p96
aVbeen
p97
aVstanding
p98
aVthere
p99
aVand
p100
aVyou
p101
aV're
p102
aVwatching
p103
aVtv
p104
aVand
p105
aVyou
p106
aV're
p107
aVdrinking
p108
aVthe
p109
aVexact
p110
aVsame
p111
aVproduct
p112
aVthat
p113
aVthey
p114
aV're
p115
aVadvertising
p116
aVright
p117
aVthere
p118
aVon
p119
aVtv
p120
ag75
aVand
p121
aVit
p122
aV's
p123
aVlike
p124
ag75
aVyou
p125
aVknow
p126
ag75
aVthey
p127
aV're
p128
aVspiking
p129
aVvolleyballs
p130
ag75
aVjetskiing
p131
ag75
aVgirls
p132
aVin
p133
aVbikinis
p134
aVand
p135
aVi
p136
aV'm
p137
aVstanding
p138
aVthere
p139
ag60
aVmaybe
p140
ag136
aV'm
p141
aVputting
p142
aVtoo
p143
aVmuch
p144
aVice
p145
aVin
p146
aVmine
p147
ag35
aVso
p148
aVthen
p149
ag75
aVas
p150
aVwe
p151
aVwere
p152
aVleaving
p153
ag75
aVwe
p154
aVwere
p155
aVjust
p156
aVkind
p157
aVof
p158
aVstanding
p159
aVthere
p160
ag75
aVand
p161
aVshe
p162
aVwas
p163
aVsort
p164
aVof
p165
aVsmiling
p166
aVat
p167
aVme
p168
ag75
aVand
p169
ag136
aVwas
p170
aVn't
p171
aVsure
p172
aVif
p173
aVshe
p174
aVwanted
p175
aVme
p176
aVto
p177
aVask
p178
aVher
p179
aVout
p180
ag75
aVbecause
p181
aVwhen
p182
aVwomen
p183
aVsmile
p184
aVat
p185
aVme
p186
ag136
aVdo
p187
aVn't
p188
aVknow
p189
aVwhat
p190
aVit
p191
aVmeans
p192
ag35
aVsometimes
p193
ag136
aVinterpret
p194
aVit
p195
aVlike
p196
aVthey
p197
aV're
p198
aVpsychotic
p199
aVor
p200
aVsomething
p201
aVand
p202
ag136
aVdo
p203
aVn't
p204
aVknow
p205
aVif
p206
ag136
aV'm
p207
aVsupposed
p208
aVto
p209
aVsmile
p210
aVback
p211
ag75
ag136
aVdo
p212
aVn't
p213
aVknow
p214
aVwhat
p215
aVto
p216
aVdo
p217
ag35
aVso
p218
ag136
aVjust
p219
aVstood
p220
aVthere
p221
aVlike
p222
ag60
aVremember
p223
aVhow
p224
aVquayle
p225
aVlooked
p226
aVwhen
p227
aVbenson
p228
aVgave
p229
aVhim
p230
aVthat
p231
aVkennedy
p232
aVline
p233
ag67
ag60
aVthat
p234
aV's
p235
aVwhat
p236
ag136
aVlooked
p237
aVlike
p238
ag35
aaa(lp239
Vjerry
p240
a(lp241
Vso
p242
aVyou
p243
aVdid
p244
aVn't
p245
aVask
p246
ag67
aaa(lp247
Vgeorge
p248
a(lp249
Vno
p250
ag75
ag136
aVfroze
p251
ag35
aaa(lp252
Vjerry
p253
a(lp254
Vcounter
p255
ag35
aaa(lp256
Vgeorge
p257
a(lp258
Voh
p259
aVyeah
p260
ag35
aVso
p261
aVwait
p262
ag75
aVwait
p263
ag35
ag90
aVhalf-hour
p264
aVlater
p265
ag136
aV'm
p266
aVback
p267
aVin
p268
aVthe
p269
aVoffice
p270
ag75
ag136
aVtell
p271
aVlloyd
p272
aVthe
p273
aVwhole
p274
aVstory
p275
ag35
aVhe
p276
aVsays
p277
aVso
p278
aVwhy
p279
aVdo
p280
aVn't
p281
aVyou
p282
aVcall
p283
aVher
p284
ag35
ag136
aVsays
p285
ag136
aVca
p286
aVn't
p287
ag35
ag136
aVcould
p288
aVn't
p289
ag75
ag136
aVcould
p290
aVn't
p291
aVdo
p292
aVit
p293
aVright
p294
aVthen
p295
ag35
aVfor
p296
aVme
p297
aVto
p298
aVask
p299
ag90
aVwoman
p300
aVout
p301
ag136
aVgot
p302
aVta
p303
aVget
p304
aVinto
p305
ag90
aVmental
p306
aVstate
p307
aVlike
p308
aVthe
p309
aVkarate
p310
aVguys
p311
aVbefore
p312
aVthey
p313
aVbreak
p314
aVthe
p315
aVbricks
p316
ag35
aVso
p317
aVlloyd
p318
aVcalls
p319
aVme
p320
ag90
aVwuss
p321
ag35
aaa(lp322
Vjerry
p323
a(lp324
Vhe
p325
aVsaid
p326
aVwuss
p327
ag67
aaa(lp328
Vgeorge
p329
a(lp330
Vyeah
p331
ag35
aVanyway
p332
ag75
aVhe
p333
aVshamed
p334
aVme
p335
aVinto
p336
aVit
p337
ag35
aaa(lp338
Vjerry
p339
a(lp340
Vso
p341
aVyou
p342
aVcalled
p343
ag35
aaa(lp344
Vgeorge
p345
a(lp346
Vright
p347
ag35
aVand
p348
ag75
aVand
p349
aVto
p350
aVcover
p351
aVmy
p352
aVnervousness
p353
ag136
aVstarted
p354
aVeating
p355
aVan
p356
aVapple
p357
ag75
aVbecause
p358
ag136
aVthink
p359
aVif
p360
aVthey
p361
aVhear
p362
aVyou
p363
aVchewing
p364
aVon
p365
aVthe
p366
aVother
p367
aVend
p368
aVof
p369
aVthe
p370
aVphone
p371
ag75
aVit
p372
aVmakes
p373
aVyou
p374
aVsound
p375
aVcasual
p376
ag35
aaa(lp377
Vjerry
p378
a(lp379
Vyeah
p380
ag75
aVlike
p381
ag90
aVfarm
p382
aVboy
p383
ag35
aaa(lp384
Vgeorge
p385
a(lp386
Vright
p387
ag35
aVso
p388
ag136
aVcall
p389
aVher
p390
aVup
p391
ag75
ag136
aVtell
p392
aVher
p393
aVit
p394
aV's
p395
aVme
p396
ag75
aVshe
p397
aVgives
p398
aVme
p399
aVan
p400
aVenthusiastic
p401
aV'hi
p402
aV!
p403
aV'
p404
aaa(lp405
Vjerry
p406
a(lp407
Vwow
p408
ag35
aVenthusiastic
p409
aV'hi
p410
ag403
ag404
ag75
aVthat
p411
aV's
p412
aVbeautiful
p413
ag35
aaa(lp414
Vgeorge
p415
a(lp416
Voh
p417
ag75
ag136
aVdo
p418
aVn't
p419
aVget
p420
aVthe
p421
aVenthusiastic
p422
aV'hi
p423
ag403
ag404
ag75
ag136
aV'm
p424
aVoutta
p425
aVthere
p426
ag35
aaa(lp427
Vjerry
p428
a(lp429
Valright
p430
ag75
aVso
p431
aVyou
p432
aV're
p433
aVchewing
p434
aVyour
p435
aVapple
p436
ag75
aVyou
p437
aVgot
p438
aVyour
p439
aVenthusiastic
p440
aV'hi
p441
ag403
ag404
aVgo
p442
aVahead
p443
ag35
aaa(lp444
Vgeorge
p445
a(lp446
Vso
p447
ag75
aVwe
p448
aV're
p449
aVtalking
p450
ag75
aVand
p451
ag136
aVdo
p452
aVn't
p453
aVlike
p454
aVto
p455
aVgo
p456
aVtoo
p457
aVlong
p458
aVbefore
p459
ag136
aVask
p460
aVthem
p461
aVout
p462
ag75
ag136
aVwan
p463
aVna
p464
aVget
p465
aVit
p466
aVover
p467
aVwith
p468
aVright
p469
aVaway
p470
ag75
aVso
p471
ag136
aVjust
p472
aVblurt
p473
aVout
p474
aVwhat
p475
aVare
p476
aVyou
p477
aVdoing
p478
aVsaturday
p479
aVnight
p480
ag67
aaa(lp481
Vjerry
p482
a(lp483
Vand
p484
ag67
aaa(lp485
Vgeorge
p486
a(lp487
Vshe
p488
aVbought
p489
ag35
aaa(lp490
Vjerry
p491
a(lp492
Vgreat
p493
aVday
p494
aVin
p495
aVthe
p496
aVmorning
p497
ag35
aaa(lp498
Vgeorge
p499
a(lp500
Vthen
p501
ag136
aVgot
p502
aVoff
p503
aVthe
p504
aVphone
p505
aVright
p506
aVaway
p507
ag35
aaa(lp508
Vjerry
p509
a(lp510
Vsure
p511
ag75
aVit
p512
aV's
p513
aVlike
p514
aVrobbing
p515
ag90
aVbank
p516
aVyou
p517
aVdo
p518
aVn't
p519
aVloiter
p520
aVaround
p521
aVin
p522
aVfront
p523
aVof
p524
aVthe
p525
aVteller
p526
aVholding
p527
aVthat
p528
aVbig
p529
aVbag
p530
aVof
p531
aVmoney
p532
ag35
aVyou
p533
aVcome
p534
aVin
p535
ag75
aVyou
p536
aVhit
p537
aVand
p538
aVget
p539
aVout
p540
ag35
aaa(lp541
Vgeorge
p542
a(lp543
Vit
p544
aV's
p545
aVamazing
p546
aVwe
p547
ag75
aVwe
p548
aVboth
p549
aVhave
p550
aVdates
p551
aVon
p552
aVthe
p553
aVsame
p554
aVnight
p555
ag35
ag136
aVca
p556
aVn't
p557
aVremember
p558
aVthe
p559
aVlast
p560
aVtime
p561
aVthat
p562
aVhappened
p563
ag35
aVgeorge
p564
aV's
p565
aVcar
p566
ag75
aVparked
p567
aVoutside
p568
aVapartment
p569
aVbuilding
p570
ag75
aVnight
p571
ag35
aVgeorge
p572
aVand
p573
aVhis
p574
aVdate
p575
aaa(lp576
Vcarol
p577
a(lp578
aa(lp579
Vgeorge
p580
a(lp581
g136
aVca
p582
aVn't
p583
aVstand
p584
aVdoing
p585
aVlaundry
p586
ag35
aVthat
p587
aV's
p588
aVwhy
p589
ag136
aVhave
p590
aVforty
p591
aVpairs
p592
aVof
p593
aVunderwear
p594
ag35
aaa(lp595
Vcarol
p596
a(lp597
Vyou
p598
aVdo
p599
aVnot
p600
ag35
aaa(lp601
Vgeorge
p602
a(lp603
Vabsolutely
p604
ag35
aVbecause
p605
aVinstead
p606
aVof
p607
aVdoing
p608
ag90
aVwash
p609
ag75
ag136
aVjust
p610
aVkeep
p611
aVbuying
p612
aVunderwear
p613
ag35
aVmy
p614
aVgoal
p615
aVis
p616
aVto
p617
aVhave
p618
aVover
p619
aVthree
p620
aVhundred
p621
aVand
p622
aVsixty
p623
aVpair
p624
ag35
aVthat
p625
aVway
p626
ag75
ag136
aVonly
p627
aVhave
p628
aVto
p629
aVdo
p630
aVwash
p631
aVonce
p632
ag90
aVyear
p633
ag35
aVjerry
p634
aV's
p635
aVcar
p636
ag75
aValso
p637
aVparked
p638
aVoutside
p639
aVan
p640
aVapartment
p641
aVbuilding
p642
ag35
aVjerry
p643
aVand
p644
aVhis
p645
aVgirlfriend
p646
aVdonna
p647
aaa(lp648
Vjerry
p649
a(lp650
Vcome
p651
aVon
p652
ag75
aVtry
p653
aVit
p654
ag35
aVlet
p655
aVme
p656
aVhear
p657
aVyou
p658
aVtry
p659
ag90
aVscottish
p660
aVaccent
p661
ag35
aaa(lp662
Vdonna
p663
a(lp664
Vthat
p665
aV's
p666
aVirish
p667
ag35
aaa(lp668
Vjerry
p669
a(lp670
Virish
p671
ag75
aVscottish
p672
ag75
aVwhat
p673
aV's
p674
aVthe
p675
aVdifference
p676
ag75
aVlassie
p677
ag67
aaa(lp678
Vdonna
p679
a(lp680
Vso
p681
ag75
aVer
p682
ag75
aVthanks
p683
aVfor
p684
aVdinner
p685
ag35
aVit
p686
aVwas
p687
aVgreat
p688
ag35
aaa(lp689
Vgeorge
p690
a(lp691
Vyeah
p692
ag35
aVwe
p693
aVshould
p694
aVdo
p695
aVthis
p696
aVagain
p697
ag35
aaa(lp698
Vdonna
p699
a(lp700
Vwould
p701
aVyou
p702
aVlike
p703
aVto
p704
aVcome
p705
aVupstairs
p706
aVfor
p707
aVsome
p708
aVcoffee
p709
ag67
aaa(lp710
Vgeorge
p711
a(lp712
Voh
p713
ag75
aVno
p714
ag75
aVthanks
p715
ag35
ag136
aVca
p716
aVn't
p717
aVdrink
p718
aVcoffee
p719
aVlate
p720
aVat
p721
aVnight
p722
ag75
aVit
p723
aVkeeps
p724
aVme
p725
aVup
p726
ag35
aaa(lp727
Vdonna
p728
a(lp729
Vso
p730
ag75
aVum
p731
ag75
aVok
p732
ag35
aaa(lp733
Vgeorge
p734
a(lp735
Vok
p736
ag35
aaa(lp737
Vdonna
p738
a(lp739
Vgoodnight
p740
ag35
aaa(lp741
Vgeorge
p742
a(lp743
Vyeah
p744
ag75
aVtake
p745
aVit
p746
aVeasy
p747
ag35
aaa(lp748
Vdonna
p749
a(lp750
Vthanks
p751
aVagain
p752
aVfor
p753
aVthe
p754
aVmovie
p755
ag35
aaa(lp756
Vjerry
p757
a(lp758
Vyou
p759
aV're
p760
aVwelcome
p761
ag35
aaa(lp762
Vdonna
p763
a(lp764
g136
aV'd
p765
aVinvite
p766
aVyou
p767
aVup
p768
ag75
aVbut
p769
aVthe
p770
aVplace
p771
aVis
p772
aVbeing
p773
aVpainted
p774
ag35
aaa(lp775
Vjerry
p776
a(lp777
Voh
p778
ag75
aVthat
p779
aV's
p780
aVok
p781
ag35
aaa(lp782
Vdonna
p783
a(lp784
Vunless
p785
aVyou
p786
aVwant
p787
aVto
p788
aVgo
p789
aVto
p790
aVyour
p791
aVplace
p792
ag35
aaa(lp793
Vjerry
p794
a(lp795
Vok
p796
ag75
aVbut
p797
aVthere
p798
aV's
p799
aVno
p800
aVcake
p801
aVor
p802
aVanything
p803
ag75
aVif
p804
aVthat
p805
aV's
p806
aVwhat
p807
aVyou
p808
aV're
p809
aVlooking
p810
aVfor
p811
ag35
aaa(lp812
Vgeorge
p813
a(lp814
Vtake
p815
aVit
p816
aVeasy
p817
ag75
aVhuh
p818
ag75
aVtake
p819
aVit
p820
aVeasy
p821
ag35
aaa(lp822
Vjerry
p823
a(lp824
g136
aVthink
p825
aVif
p826
aVone
p827
aV's
p828
aVgoing
p829
aVto
p830
aVkill
p831
aVoneself
p832
ag75
aVthe
p833
aVleast
p834
aVyou
p835
aVcould
p836
aVdo
p837
aVis
p838
aVleave
p839
ag90
aVnote
p840
ag60
aVit
p841
aV's
p842
aVcommon
p843
aVcourtesy
p844
ag35
ag136
aVdo
p845
aVn't
p846
aVknow
p847
ag75
aVthat
p848
aV's
p849
aVjust
p850
aVthe
p851
aVway
p852
ag136
aVwas
p853
aVbrought
p854
aVup
p855
ag35
aaa(lp856
Vdonna
p857
a(lp858
Vvalues
p859
aVare
p860
aVvery
p861
aVimportant
p862
ag35
aaa(lp863
Vjerry
p864
a(lp865
Voh
p866
ag75
aVso
p867
aVimportant
p868
ag35
aVso
p869
aVwhat
p870
aVare
p871
aVyou
p872
aVdoing
p873
aVthursday
p874
aVnight
p875
ag60
aVyou
p876
aVwan
p877
aVna
p878
aVhave
p879
aVdinner
p880
ag67
aaa(lp881
Vdonna
p882
a(lp883
Vthursday
p884
aV's
p885
aVgreat
p886
ag35
aaa(lp887
Vjerry
p888
a(lp889
Vtan
p890
aVpants
p891
ag35
aVwhy
p892
aVdo
p893
ag136
aVbuy
p894
aVtan
p895
aVpants
p896
ag75
aVdonna
p897
ag67
ag136
aVdo
p898
aVn't
p899
aVfeel
p900
aVcomfortable
p901
aVin
p902
aVthem
p903
ag35
aaa(lp904
Vdonna
p905
a(lp906
Vare
p907
aVthose
p908
aVcotton
p909
aVdockers
p910
ag67
aaa(lp911
Vjerry
p912
a(lp913
Voh
p914
ag75
ag136
aVca
p915
aVn't
p916
aVbegin
p917
aVto
p918
aVtell
p919
aVyou
p920
aVhow
p921
aVmuch
p922
ag136
aVhate
p923
aVthat
p924
aVcommercial
p925
ag35
aaa(lp926
Vdonna
p927
a(lp928
Vreally
p929
ag67
ag136
aVlike
p930
aVthat
p931
aVcommercial
p932
ag35
aaa(lp933
Vjerry
p934
a(lp935
Vyou
p936
aVlike
p937
aVthat
p938
aVcommercial
p939
ag67
aaa(lp940
Vdonna
p941
a(lp942
Vyeah
p943
ag75
aVit
p944
aV's
p945
aVclever
p946
ag35
aaa(lp947
Vjerry
p948
a(lp949
Vnow
p950
aVwait
p951
ag90
aVsecond
p952
ag75
aVyou
p953
aVmean
p954
aVthe
p955
aVone
p956
aVwhere
p957
aVthe
p958
aVguys
p959
aVare
p960
aVall
p961
aVstanding
p962
aVaround
p963
ag75
aVsupposedly
p964
aVbeing
p965
aVvery
p966
aVcasual
p967
aVand
p968
aVwitty
p969
ag67
aaa(lp970
Vdonna
p971
a(lp972
Vyeah
p973
ag75
aVthat
p974
aV's
p975
aVthe
p976
aVone
p977
ag35
aaa(lp978
Vjerry
p979
a(lp980
Vwhat
p981
aVcould
p982
aVyou
p983
aVpossibly
p984
aVlike
p985
aVabout
p986
aVthat
p987
ag67
aaa(lp988
Vdonna
p989
a(lp990
g136
aVdo
p991
aVn't
p992
aVknow
p993
ag75
ag136
aVlike
p994
aVthe
p995
aVguys
p996
ag35
aaa(lp997
Vjerry
p998
a(lp999
Vyeah
p1000
ag75
aVthey
p1001
aV're
p1002
aVso
p1003
aVfunny
p1004
aVand
p1005
aVso
p1006
aVcomfortable
p1007
aVwith
p1008
aVeach
p1009
aVother
p1010
ag75
aVand
p1011
ag136
aVcould
p1012
aVbe
p1013
aVcomfortable
p1014
aVtoo
p1015
ag75
aVif
p1016
ag136
aVhad
p1017
aVpants
p1018
aVlike
p1019
aVthat
p1020
ag35
ag136
aVcould
p1021
aVsit
p1022
aVon
p1023
ag90
aVporch
p1024
aVand
p1025
aVwrestle
p1026
aVaround
p1027
ag75
aVand
p1028
aVmaybe
p1029
aVeven
p1030
aVbe
p1031
aVpart
p1032
aVof
p1033
ag90
aVreal
p1034
aVbull
p1035
aVsession
p1036
ag35
aaa(lp1037
Vdonna
p1038
a(lp1039
Vhey
p1040
ag75
ag136
aVknow
p1041
aVguys
p1042
aVlike
p1043
aVthat
p1044
ag35
aVto
p1045
aVme
p1046
aVthe
p1047
aVdialogue
p1048
aVrings
p1049
aVtrue
p1050
ag35
aaa(lp1051
Vjerry
p1052
a(lp1053
Veven
p1054
aVif
p1055
aVthe
p1056
aVdialogue
p1057
aVdid
p1058
aVring
p1059
aVtrue
p1060
ag35
aVeven
p1061
aVif
p1062
aVsomehow
p1063
aVsomewhere
p1064
aVmen
p1065
aVactually
p1066
aVtalk
p1067
aVlike
p1068
aVthat
p1069
ag75
aVwhat
p1070
aVdoes
p1071
aVthat
p1072
aVhave
p1073
aVto
p1074
aVdo
p1075
aVwith
p1076
aVthe
p1077
aVpants
p1078
ag67
aVdoes
p1079
aVn't
p1080
aVthat
p1081
aVbother
p1082
aVyou
p1083
ag67
aaa(lp1084
Vdonna
p1085
a(lp1086
Vthat
p1087
aV's
p1088
aVthe
p1089
aVidea
p1090
ag35
aVthat
p1091
aV's
p1092
aVwhat
p1093
aV's
p1094
aVclever
p1095
aVabout
p1096
aVit
p1097
ag75
aVthat
p1098
aVthey
p1099
aV're
p1100
aVnot
p1101
aVtalking
p1102
aVabout
p1103
aVthe
p1104
aVpants
p1105
ag35
aaa(lp1106
Vjerry
p1107
a(lp1108
Vbut
p1109
aVthey
p1110
aV're
p1111
aVtalking
p1112
aVabout
p1113
aVnothing
p1114
ag35
aaa(lp1115
Vdonna
p1116
a(lp1117
Vthat
p1118
aV's
p1119
aVthe
p1120
aVpoint
p1121
ag35
aaa(lp1122
Vjerry
p1123
a(lp1124
g136
aVknow
p1125
aVthe
p1126
aVpoint
p1127
ag35
aaa(lp1128
Vdonna
p1129
a(lp1130
Vno
p1131
aVone
p1132
aVis
p1133
aVtelling
p1134
aVyou
p1135
aVto
p1136
aVlike
p1137
aVit
p1138
ag35
aaa(lp1139
Vjerry
p1140
a(lp1141
g136
aVmean
p1142
ag75
aVall
p1143
aVthose
p1144
aVquick
p1145
aVshots
p1146
aVof
p1147
aVthe
p1148
aVpants
p1149
ag75
aVjust
p1150
aVpants
p1151
ag75
aVpants
p1152
ag75
aVpants
p1153
ag75
aVpants
p1154
ag75
aVpants
p1155
ag75
aVpants
p1156
ag75
aVpants
p1157
ag35
aVwhat
p1158
aVis
p1159
aVthat
p1160
aVsupposed
p1161
aVto
p1162
aVbe
p1163
ag67
aVjerry
p1164
aVmonologue
p1165
aVwhat
p1166
aV's
p1167
aVbrutal
p1168
aVabout
p1169
aVthe
p1170
aVdate
p1171
aVis
p1172
aVthe
p1173
aVscrutiny
p1174
aVthat
p1175
aVyou
p1176
aVput
p1177
aVeach
p1178
aVother
p1179
aVthrough
p1180
ag35
aVbecause
p1181
aVwhenever
p1182
aVyou
p1183
aVthink
p1184
aVabout
p1185
aVthis
p1186
aVperson
p1187
aVin
p1188
aVterms
p1189
aVof
p1190
aVthe
p1191
aVfuture
p1192
ag75
aVyou
p1193
aVhave
p1194
aVto
p1195
aVmagnify
p1196
aVeverything
p1197
aVabout
p1198
aVthem
p1199
ag35
aVyou
p1200
aVknow
p1201
ag75
aVlike
p1202
aVthe
p1203
aVguy
p1204
aV'll
p1205
aVbe
p1206
aVlike
p1207
aV'i
p1208
aVdo
p1209
aVn't
p1210
aVthink
p1211
aVher
p1212
aVeyebrows
p1213
aVare
p1214
aVeven
p1215
ag35
aVcould
p1216
ag136
aVlook
p1217
aVat
p1218
aVuneven
p1219
aVeyebrows
p1220
aVfor
p1221
aVthe
p1222
aVrest
p1223
aVof
p1224
aVmy
p1225
aVlife
p1226
ag67
ag404
aVand
p1227
aVof
p1228
aVcourse
p1229
aVthe
p1230
aVwoman
p1231
aV's
p1232
aVlooking
p1233
aVat
p1234
aVthe
p1235
aVguy
p1236
ag75
aVthinking
p1237
aV'what
p1238
aVis
p1239
aVhe
p1240
aVlooking
p1241
aVat
p1242
ag67
aVdo
p1243
ag136
aVwant
p1244
aVsomebody
p1245
aVlooking
p1246
aVat
p1247
aVme
p1248
aVlike
p1249
aVthis
p1250
aVfor
p1251
aVthe
p1252
aVrest
p1253
aVof
p1254
aVmy
p1255
aVlife
p1256
ag67
ag404
aaa(lp1257
Vjerry
p1258
a(lp1259
g136
aV'm
p1260
aVsupposed
p1261
aVto
p1262
aVsee
p1263
aVher
p1264
aVagain
p1265
aVon
p1266
aVthursday
p1267
ag75
aVbut
p1268
aVcan
p1269
ag136
aVgo
p1270
aVout
p1271
aVwith
p1272
aVsomeone
p1273
aVwho
p1274
aVactually
p1275
aVlikes
p1276
aVthis
p1277
aVcommercial
p1278
ag67
aaa(lp1279
Velaine
p1280
a(lp1281
g136
aVonce
p1282
aVbroke
p1283
aVup
p1284
aVwith
p1285
ag90
aVguy
p1286
aVbecause
p1287
aVhe
p1288
aVdid
p1289
aVn't
p1290
aVkeep
p1291
aVhis
p1292
aVbathroom
p1293
aVclean
p1294
aVenough
p1295
ag35
aaa(lp1296
Vjerry
p1297
a(lp1298
Vno
p1299
aVkidding
p1300
ag35
aVdid
p1301
aVyou
p1302
aVtell
p1303
aVhim
p1304
aVthat
p1305
aVwas
p1306
aVthe
p1307
aVreason
p1308
ag67
aaa(lp1309
Velaine
p1310
a(lp1311
Voh
p1312
aVyeah
p1313
ag75
ag136
aVtold
p1314
aVhim
p1315
aVall
p1316
aVthe
p1317
aVtime
p1318
ag35
aVyou
p1319
aVwould
p1320
aVnot
p1321
aVhave
p1322
aVbelieved
p1323
aVhis
p1324
aaa(lp1325
Vtub
p1326
a(lp1327
Vgerms
p1328
aVwere
p1329
aVbuilding
p1330
ag90
aVtown
p1331
aVin
p1332
aVthere
p1333
ag60
aVthey
p1334
aVwere
p1335
aVconstructing
p1336
aVoffices
p1337
ag35
aVhouses
p1338
aVnear
p1339
aVthe
p1340
aVdrain
p1341
aVwere
p1342
aVgoing
p1343
aVfor
p1344
aV$
p1345
aV150,000
p1346
ag35
aaa(lp1347
Velaine
p1348
a(lp1349
Vhi
p1350
ag35
aaa(lp1351
Vjerry
p1352
a(lp1353
Vyou
p1354
aV're
p1355
aVstill
p1356
aVthinking
p1357
aVabout
p1358
aVthis
p1359
ag67
aaa(lp1360
Vgeorge
p1361
a(lp1362
Vshe
p1363
aVinvites
p1364
aVme
p1365
aVup
p1366
aVat
p1367
aVtwelve
p1368
aVo
p1369
aVclock
p1370
aVat
p1371
aVnight
p1372
ag75
aVfor
p1373
aVcoffee
p1374
ag35
aVand
p1375
ag136
aVdo
p1376
aVn't
p1377
aVgo
p1378
aVup
p1379
ag35
aVno
p1380
aVthank
p1381
aVyou
p1382
ag75
ag136
aVdo
p1383
aVn't
p1384
aVwant
p1385
aVcoffee
p1386
ag75
aVit
p1387
aVkeeps
p1388
aVme
p1389
aVup
p1390
ag35
aVtoo
p1391
aVlate
p1392
aVfor
p1393
aVme
p1394
aVto
p1395
aVdrink
p1396
aVcoffee
p1397
ag35
ag136
aVsaid
p1398
aVthis
p1399
aVto
p1400
aVher
p1401
ag35
aVpeople
p1402
aVthis
p1403
aVstupid
p1404
aVshould
p1405
aVn't
p1406
aVbe
p1407
aVallowed
p1408
aVto
p1409
aVlive
p1410
ag35
ag136
aVca
p1411
aVn't
p1412
aVimagine
p1413
aVwhat
p1414
aVshe
p1415
aVmust
p1416
aVthink
p1417
aVof
p1418
aVme
p1419
ag35
aaa(lp1420
Vjerry
p1421
a(lp1422
Vshe
p1423
aVthinks
p1424
aVyou
p1425
aV're
p1426
ag90
aVguy
p1427
aVthat
p1428
aVdoes
p1429
aVn't
p1430
aVlike
p1431
aVcoffee
p1432
ag35
aaa(lp1433
Vgeorge
p1434
a(lp1435
Vshe
p1436
aVinvited
p1437
aVme
p1438
aVup
p1439
ag35
aVcoffee
p1440
aV's
p1441
aVnot
p1442
aVcoffee
p1443
ag75
aVcoffee
p1444
aVis
p1445
aVsex
p1446
ag35
aaa(lp1447
Velaine
p1448
a(lp1449
Vmaybe
p1450
aVcoffee
p1451
aVwas
p1452
aVcoffee
p1453
ag35
aaa(lp1454
Vgeorge
p1455
a(lp1456
Vcoffee
p1457
aV's
p1458
aVcoffee
p1459
aVin
p1460
aVthe
p1461
aVmorning
p1462
ag75
aVit
p1463
aV's
p1464
aVnot
p1465
aVcoffee
p1466
aVat
p1467
aVtwelve
p1468
ag1369
aVclock
p1469
aVat
p1470
aVnight
p1471
ag35
aaa(lp1472
Velaine
p1473
a(lp1474
Vwell
p1475
aVsome
p1476
aVpeople
p1477
aVdrink
p1478
aVcoffee
p1479
aVthat
p1480
aVlate
p1481
ag35
aaa(lp1482
Vgeorge
p1483
a(lp1484
Vyeah
p1485
ag75
aVpeople
p1486
aVwho
p1487
aVwork
p1488
aVat
p1489
aVnorad
p1490
ag75
aVwho
p1491
aV're
p1492
aVon
p1493
aVtwenty-four
p1494
aVhour
p1495
aVmissile
p1496
aVkept
p1497
aVsaying
p1498
aVto
p1499
aVmyself
p1500
aVkeep
p1501
aVit
p1502
aVup
p1503
ag75
aVdo
p1504
aVn't
p1505
aVblow
p1506
aVit
p1507
ag75
aVyou
p1508
aV're
p1509
aVdoing
p1510
aVgreat
p1511
ag35
aaa(lp1512
Velaine
p1513
a(lp1514
Vit
p1515
aV's
p1516
aVall
p1517
aVin
p1518
aVyour
p1519
aVhead
p1520
ag35
aVall
p1521
aVshe
p1522
aVknows
p1523
aVis
p1524
aVshe
p1525
aVhad
p1526
ag90
aVgood
p1527
aVtime
p1528
ag35
ag136
aVthink
p1529
aVyou
p1530
aVshould
p1531
aVcall
p1532
aVher
p1533
ag35
aaa(lp1534
Vgeorge
p1535
a(lp1536
g136
aVca
p1537
aVn't
p1538
aVcall
p1539
aVher
p1540
aVnow
p1541
ag75
aVit
p1542
aV's
p1543
aVtoo
p1544
aVsoon
p1545
ag35
ag136
aV'm
p1546
aVplanning
p1547
ag90
aVwednesday
p1548
aVcall
p1549
ag35
aaa(lp1550
Velaine
p1551
a(lp1552
Voh
p1553
ag75
aVwhy
p1554
ag67
ag136
aVlove
p1555
aVit
p1556
aVwhen
p1557
aVguys
p1558
aVcall
p1559
aVme
p1560
aVthe
p1561
aVnext
p1562
aVday
p1563
ag35
aaa(lp1564
Vgeorge
p1565
a(lp1566
Vof
p1567
aVcourse
p1568
aVyou
p1569
aVdo
p1570
ag75
aVbut
p1571
aVyou
p1572
aV're
p1573
aVimagining
p1574
ag90
aVguy
p1575
aVyou
p1576
aVlike
p1577
ag75
aVnot
p1578
ag90
aVguy
p1579
aVwho
p1580
aVgoes
p1581
aVoh
p1582
aVno
p1583
ag75
ag136
aVdo
p1584
aVn't
p1585
aVdrink
p1586
aVcoffee
p1587
aVlate
p1588
aVat
p1589
aVnight
p1590
ag35
aVif
p1591
ag136
aVcall
p1592
aVher
p1593
aVnow
p1594
ag75
aVshe
p1595
aV's
p1596
aVgon
p1597
aVna
p1598
aVthink
p1599
ag136
aV'm
p1600
aVtoo
p1601
aVneedy
p1602
ag35
aVwomen
p1603
aVdo
p1604
aVn't
p1605
aVwan
p1606
aVna
p1607
aVsee
p1608
aVneed
p1609
ag35
aVthey
p1610
aVwant
p1611
ag90
aVtake-charge
p1612
aVguy
p1613
ag60
ag90
aVcolonel
p1614
ag75
ag90
aVkaiser
p1615
ag75
ag90
aVtsar
p1616
ag35
aaa(lp1617
Velaine
p1618
a(lp1619
Vall
p1620
aVshe
p1621
aV'll
p1622
aVthink
p1623
aVis
p1624
aVthat
p1625
aVyou
p1626
aVlike
p1627
aVher
p1628
ag35
aaa(lp1629
Vgeorge
p1630
a(lp1631
Vyes
p1632
ag75
aVshe
p1633
aVwants
p1634
aVme
p1635
aVto
p1636
aVlike
p1637
aVher
p1638
ag75
aVif
p1639
aVshe
p1640
aVlikes
p1641
aVme
p1642
ag75
aVbut
p1643
aVshe
p1644
aVdoes
p1645
aVn't
p1646
aVlike
p1647
aVme
p1648
ag403
aaa(lp1649
Velaine
p1650
a(lp1651
g136
aVdo
p1652
aVn't
p1653
aVknow
p1654
aVwhat
p1655
aVyour
p1656
aVparents
p1657
aVdid
p1658
aVto
p1659
aVyou
p1660
ag35
aaa(lp1661
Vkramer
p1662
a(lp1663
Vhey
p1664
ag75
ag136
aVjust
p1665
aVthought
p1666
aVof
p1667
ag90
aVreally
p1668
aVfunny
p1669
aVthing
p1670
aVfor
p1671
aVyour
p1672
aVact
p1673
ag35
aValright
p1674
ag75
aVyou
p1675
aV're
p1676
aVup
p1677
aVthere
p1678
ag75
aVyou
p1679
aV're
p1680
aVon
p1681
aVthe
p1682
aVstage
p1683
aVand
p1684
aVyou
p1685
aVgo
p1686
aVhey
p1687
ag75
aVyou
p1688
aVever
p1689
aVnotice
p1690
aVhow
p1691
aVcars
p1692
aVhere
p1693
aVin
p1694
aVnew
p1695
aVyork
p1696
ag75
aVthey
p1697
aVnever
p1698
aVget
p1699
aVout
p1700
aVof
p1701
aVthe
p1702
aVway
p1703
aVof
p1704
aVambulances
p1705
aVanymore
p1706
ag35
aVsomeone
p1707
aV's
p1708
aVin
p1709
ag90
aVlife-and-death
p1710
aVsituation
p1711
ag75
aVand
p1712
aVwe
p1713
aV're
p1714
aVthinking
p1715
aV'well
p1716
ag75
aVsorry
p1717
aVbuddy
p1718
ag75
aVyou
p1719
aVshould
p1720
aV've
p1721
aVthought
p1722
aVof
p1723
aVthat
p1724
aVwhen
p1725
aVyou
p1726
aVwere
p1727
aVeating
p1728
aVcheese
p1729
aVomelettes
p1730
aVand
p1731
aVsauages
p1732
aVfor
p1733
aVbreakfast
p1734
aVevery
p1735
aVmorning
p1736
aVfor
p1737
aVthe
p1738
aVlast
p1739
aVthirty
p1740
aVyears
p1741
ag35
ag404
aVso
p1742
aVyou
p1743
aVgon
p1744
aVna
p1745
aVuse
p1746
aVit
p1747
ag67
aaa(lp1748
Vjerry
p1749
a(lp1750
g136
aVdo
p1751
aVn't
p1752
aVthink
p1753
aVso
p1754
ag35
aaa(lp1755
Vkramer
p1756
a(lp1757
Vit
p1758
aV's
p1759
aVfunny
p1760
ag35
aaa(lp1761
Velaine
p1762
a(lp1763
Vit
p1764
aVis
p1765
aVfunny
p1766
ag35
aaa(lp1767
Vkramer
p1768
a(lp1769
Vthat
p1770
aV's
p1771
aVas
p1772
aVgood
p1773
aVas
p1774
aVanything
p1775
aVyou
p1776
aVdo
p1777
ag35
aaa(lp1778
Vgeorge
p1779
a(lp1780
Valright
p1781
ag75
ag136
aVgot
p1782
aVta
p1783
aVmake
p1784
ag90
aVcall
p1785
ag35
aVeverybody
p1786
aVout
p1787
ag75
aVcome
p1788
aVon
p1789
ag35
aaa(lp1790
Vjerry
p1791
a(lp1792
Vwhy
p1793
aVdo
p1794
aVwe
p1795
aVhave
p1796
aVto
p1797
aVleave
p1798
ag67
aaa(lp1799
Vgeorge
p1800
a(lp1801
Vbecause
p1802
ag136
aVca
p1803
aVn't
p1804
aVcall
p1805
ag90
aVwoman
p1806
aVwith
p1807
aVother
p1808
aVpeople
p1809
aVin
p1810
aVthe
p1811
aVroom
p1812
ag35
aVcome
p1813
aVon
p1814
ag75
aVlet
p1815
aV's
p1816
aVgo
p1817
ag35
aaa(lp1818
Velaine
p1819
a(lp1820
Voh
p1821
ag75
aVsee
p1822
ag75
aVthis
p1823
aVis
p1824
aVthe
p1825
aVproblem
p1826
ag35
aaa(lp1827
Vjerry
p1828
a(lp1829
Vyou
p1830
aV're
p1831
aVkicking
p1832
aVme
p1833
aVout
p1834
aVof
p1835
aVmy
p1836
aVhouse
p1837
ag67
aaa(lp1838
Vgeorge
p1839
a(lp1840
Vyes
p1841
ag35
aaa(lp1842
Velaine
p1843
a(lp1844
Vdo
p1845
aVn't
p1846
aVforget
p1847
ag35
aaa(lp1848
Vgeorge
p1849
a(lp1850
Voh
p1851
aVjerry
p1852
ag75
aVdo
p1853
aVyou
p1854
aVhave
p1855
aVany
p1856
aVapples
p1857
ag67
aaa(lp1858
Vjerry
p1859
a(lp1860
Vdo
p1861
aVn't
p1862
aVdo
p1863
aVthe
p1864
aVapples
p1865
ag35
aVthat
p1866
aV's
p1867
aVenough
p1868
aValready
p1869
aVwith
p1870
aVthe
p1871
aVapples
p1872
ag35
aaa(lp1873
Vphone
p1874
a(lp1875
Vhi
p1876
ag75
aVit
p1877
aV's
p1878
aVcarol
p1879
ag75
ag136
aV'll
p1880
aVget
p1881
aVback
p1882
aVto
p1883
aVyou
p1884
ag35
aaa(lp1885
Vgeorge
p1886
a(lp1887
Vuhm
p1888
ag75
aVhi
p1889
ag75
aVit
p1890
aV's
p1891
aVgeorge
p1892
ag75
aVgeorge
p1893
aVcostanza
p1894
ag75
aVremember
p1895
aVme
p1896
ag67
aVthe
p1897
aVguy
p1898
aVthat
p1899
aVdid
p1900
aVn't
p1901
aVcome
p1902
aVup
p1903
aVfor
p1904
aVcoffee
p1905
ag35
aVyou
p1906
aVsee
p1907
ag75
ag136
aVdid
p1908
aVn't
p1909
aVrealise
p1910
aVthat
p1911
aVcoffee
p1912
aVdid
p1913
aVn't
p1914
aVreally
p1915
aVmean
p1916
aVwell
p1917
ag75
aVwhatever
p1918
ag35
aVanyway
p1919
ag75
aVit
p1920
aVwas
p1921
aVfun
p1922
ag35
aVit
p1923
aVwas
p1924
ag75
aVerm
p1925
ag75
aVit
p1926
aVwas
p1927
aVfun
p1928
ag75
aVso
p1929
ag75
aVoh
p1930
aVboy
p1931
ag75
aVuhm
p1932
ag75
aVso
p1933
ag75
aVyou
p1934
aVcall
p1935
aVme
p1936
aVback
p1937
ag35
aVif
p1938
aVyou
p1939
aVwant
p1940
ag75
aVit
p1941
aV's
p1942
aVup
p1943
aVto
p1944
aVyou
p1945
ag75
aVyou
p1946
aVknow
p1947
ag75
aVwhatever
p1948
aVyou
p1949
aVwan
p1950
aVna
p1951
aVdo
p1952
ag35
aVeither
p1953
aVway
p1954
ag35
aVthe
p1955
aVball
p1956
aV's
p1957
aVin
p1958
aVyour
p1959
aVcourt
p1960
ag35
aVso
p1961
ag75
aVer
p1962
ag75
aVtake
p1963
aVit
p1964
aVeasy
p1965
ag35
aaa(lp1966
Vjerry
p1967
a(lp1968
g136
aV'm
p1969
aVjust
p1970
aVgon
p1971
aVna
p1972
aVget
p1973
aVmy
p1974
aVjacket
p1975
ag75
ag136
aV'll
p1976
aVmeet
p1977
aVyou
p1978
aVdownstairs
p1979
ag35
aVwhat
p1980
aV's
p1981
aVthe
p1982
aVmatter
p1983
ag75
aVdid
p1984
aVyou
p1985
aVcall
p1986
ag67
aaa(lp1987
Vgeorge
p1988
a(lp1989
Vgot
p1990
aVher
p1991
aVmachine
p1992
ag35
ag136
aV'm
p1993
aVdead
p1994
ag75
ag136
aV'm
p1995
ag90
aVdead
p1996
aVman
p1997
ag35
aVthat
p1998
aV's
p1999
aVit
p2000
ag35
ag136
aV'm
p2001
aVdead
p2002
ag75
ag136
aV'm
p2003
ag90
aVdead
p2004
aVman
p2005
ag35
aVdead
p2006
aVman
p2007
ag35
aaa(lp2008
Vjerry
p2009
a(lp2010
Vwhat
p2011
aVdid
p2012
aVyou
p2013
aVsay
p2014
ag67
aaa(lp2015
Vgeorge
p2016
a(lp2017
g136
aVdo
p2018
aVn't
p2019
aVknow
p2020
aVwhat
p2021
aVthe
p2022
aVhell
p2023
ag136
aVsaid
p2024
ag35
ag136
aVgave
p2025
aVher
p2026
aVan
p2027
aVultimatum
p2028
aVand
p2029
aVthere
p2030
aV's
p2031
aVnothing
p2032
ag136
aVcan
p2033
aVdo
p2034
ag35
aVit
p2035
aV's
p2036
ag90
aVmachine
p2037
ag35
aVthe
p2038
aVlittle
p2039
aVlight
p2040
aVis
p2041
aVblinking
p2042
aVright
p2043
aaa(lp2044
Vnow
p2045
a(lp2046
V'come
p2047
aVand
p2048
aVlisten
p2049
aVto
p2050
aVthe
p2051
aVidiot
p2052
ag35
aVhey
p2053
aVeverybody
p2054
ag75
aVthe
p2055
aVidiot
p2056
aV's
p2057
aVon
p2058
ag403
ag404
aaa(lp2059
Vjerry
p2060
a(lp2061
Vafter
p2062
aVone
p2063
aVdate
p2064
aVyou
p2065
aVtry
p2066
aVand
p2067
aVimprovise
p2068
aVon
p2069
aVher
p2070
aVmachine
p2071
ag67
aaa(lp2072
Vgeorge
p2073
a(lp2074
Vnow
p2075
ag136
aV'm
p2076
aVin
p2077
aVthe
p2078
aVworst
p2079
aVposition
p2080
aVof
p2081
aVall
p2082
ag35
aaa(lp2083
Velaine
p2084
a(lp2085
Vy'know
p2086
ag75
aVmy
p2087
aVbrother-in-law
p2088
aVonce
p2089
aVleft
p2090
ag90
aVmessage
p2091
aVon
p2092
aVthis
p2093
aVguy
p2094
aV's
p2095
aVmachine
p2096
ag75
aVand
p2097
aVhe
p2098
aVblurted
p2099
aVout
p2100
aVsome
p2101
aVbusiness
p2102
aVinformation
p2103
aVhe
p2104
aVwas
p2105
aVn't
p2106
aVsupposed
p2107
aVto
p2108
ag75
aVand
p2109
aVit
p2110
aVwould
p2111
aVhave
p2112
aVcost
p2113
aVhim
p2114
ag1345
aV15,000
p2115
ag75
aVso
p2116
aVhe
p2117
aVwaited
p2118
aVoutside
p2119
aVthe
p2120
aVguy
p2121
aV's
p2122
aVhouse
p2123
aVand
p2124
aVwhen
p2125
aVthe
p2126
aVguy
p2127
aVcame
p2128
aVhome
p2129
aVhe
p2130
aVwent
p2131
aVupstairs
p2132
aVwith
p2133
aVhim
p2134
aVand
p2135
aVhe
p2136
aVswitched
p2137
aVthe
p2138
aVtape
p2139
ag35
aaa(lp2140
Vgeorge
p2141
a(lp2142
Vhe
p2143
aVdid
p2144
aVthat
p2145
ag67
aaa(lp2146
Velaine
p2147
a(lp2148
Vyeah
p2149
ag35
aaa(lp2150
Vgeorge
p2151
a(lp2152
Vsomebody
p2153
aVdid
p2154
aVthat
p2155
ag67
aaa(lp2156
Vjerry
p2157
a(lp2158
Vshe
p2159
aV'll
p2160
aVcall
p2161
aVyou
p2162
aVback
p2163
ag35
aVyou
p2164
aV're
p2165
aVoverreacting
p2166
ag35
aaa(lp2167
Vjerry
p2168
a(lp2169
Vnot
p2170
aVonce
p2171
ag35
aaa(lp2172
Vdonna
p2173
a(lp2174
Vnever
p2175
ag67
aaa(lp2176
Vjerry
p2177
a(lp2178
g136
aVhave
p2179
aVnever
p2180
aVseen
p2181
aVone
p2182
aVepisode
p2183
aVof
p2184
aV'i
p2185
aVlove
p2186
aVlucy
p2187
ag404
aVin
p2188
aVmy
p2189
aVlife
p2190
aVever
p2191
ag35
aaa(lp2192
Vdonna
p2193
a(lp2194
Vthat
p2195
aV's
p2196
aVamazing
p2197
ag35
aaa(lp2198
Vjerry
p2199
a(lp2200
Vthank
p2201
aVyou
p2202
ag35
aaa(lp2203
Vdonna
p2204
a(lp2205
Vis
p2206
aVthere
p2207
aVanything
p2208
aVelse
p2209
aVabout
p2210
aVyou
p2211
ag136
aVshould
p2212
aVknow
p2213
ag67
aaa(lp2214
Vjerry
p2215
a(lp2216
Vyes
p2217
ag75
ag136
aV'm
p2218
aVlactose
p2219
aVintolerant
p2220
ag35
aaa(lp2221
Vdonna
p2222
a(lp2223
Vreally
p2224
ag67
aaa(lp2225
Vjerry
p2226
a(lp2227
g136
aVhave
p2228
aVno
p2229
aVpatience
p2230
aVfor
p2231
aVlactose
p2232
ag35
aVand
p2233
ag136
aVwo
p2234
aVn't
p2235
aVstand
p2236
aVfor
p2237
aVit
p2238
ag35
aVuhm
p2239
ag75
ag136
aV'll
p2240
aVbe
p2241
aVright
p2242
aVback
p2243
ag35
aaa(lp2244
Vgeorge
p2245
a(lp2246
Vwait
p2247
aVtill
p2248
aVyou
p2249
aVhear
p2250
aVthis
p2251
ag35
aVwhoa
p2252
ag75
aVah
p2253
ag75
ag136
aV'm
p2254
aVsorry
p2255
ag75
ag136
aVdid
p2256
aVn't
p2257
ag75
ag136
aVhad
p2258
aVno
p2259
aVidea
p2260
ag35
aaa(lp2261
Vdonna
p2262
a(lp2263
Vwait
p2264
ag75
aVwait
p2265
ag35
aVhe
p2266
aV's
p2267
aVin
p2268
aVthe
p2269
aVbathroom
p2270
ag35
aaa(lp2271
Vgeorge
p2272
a(lp2273
g136
aVjust
p2274
aVwanted
p2275
aVto
p2276
aVtalk
p2277
aVto
p2278
aVhim
p2279
aVfor
p2280
ag90
aVminute
p2281
ag75
aVbut
p2282
ag136
aV'll
p2283
aVcome
p2284
aVback
p2285
ag35
aaa(lp2286
Vdonna
p2287
a(lp2288
Vyou
p2289
aVdo
p2290
aVn't
p2291
aVhave
p2292
aVto
p2293
aVleave
p2294
ag35
aaa(lp2295
Vgeorge
p2296
a(lp2297
Vyou
p2298
aVsure
p2299
ag67
aaa(lp2300
Vdonna
p2301
a(lp2302
Vyes
p2303
ag35
aaa(lp2304
Vgeorge
p2305
a(lp2306
Vok
p2307
ag35
aaa(lp2308
Vdonna
p2309
a(lp2310
g136
aV'm
p2311
aVdonna
p2312
ag35
aaa(lp2313
Vgeorge
p2314
a(lp2315
Vdonna
p2316
ag35
aVoh
p2317
ag75
aVyou
p2318
aV're
p2319
aVthe
p2320
aVone
p2321
aVthat
p2322
aVlikes
p2323
aVthat
p2324
aVcommercial
p2325
ag403
aaa(lp2326
Vdonna
p2327
a(lp2328
Vhe
p2329
aVtold
p2330
aVyou
p2331
aVabout
p2332
aVthat
p2333
ag35
aaa(lp2334
Vgeorge
p2335
a(lp2336
Vno
p2337
ag75
aVhe
p2338
ag75
aVhe
p2339
aVdid
p2340
aVn't
p2341
aVactually
p2342
aVtell
p2343
aVme
p2344
aVthat
p2345
ag75
aVuh
p2346
ag75
aVwe
p2347
aVwere
p2348
aVtalking
p2349
aVabout
p2350
aVthat
p2351
aVcommercial
p2352
ag75
aVin
p2353
aVfact
p2354
ag136
aVthink
p2355
ag136
aVbrought
p2356
aVit
p2357
aVup
p2358
aVbecause
p2359
ag136
aVlike
p2360
aVthat
p2361
aVcommercial
p2362
ag35
aVno
p2363
ag75
aVhe
p2364
ag75
aVhe
p2365
aVwould
p2366
aVnever
p2367
aVtell
p2368
aVme
p2369
aVanything
p2370
aVlike
p2371
aVthat
p2372
ag35
aVhe
p2373
aVnever
p2374
aVdiscusses
p2375
aVanything
p2376
ag35
aVhe
p2377
aV's
p2378
ag75
aVhe
p2379
aV's
p2380
aVlike
p2381
ag90
aVclam
p2382
ag35
aVyou
p2383
aV're
p2384
aVnot
p2385
aVgon
p2386
aVna
p2387
aVmention
p2388
aVthis
p2389
ag75
aVto
p2390
aVhim
p2391
aaa(lp2392
Vdonna
p2393
a(lp2394
Vso
p2395
aVyou
p2396
aVgo
p2397
aVaround
p2398
aVtelling
p2399
aVyour
p2400
aVfriends
p2401
ag136
aV'm
p2402
aVnot
p2403
aVhip
p2404
aVbecause
p2405
ag136
aVlike
p2406
aVthat
p2407
aVcommercial
p2408
ag35
aaa(lp2409
Vjerry
p2410
a(lp2411
Vwhat
p2412
ag67
aVwhat
p2413
aVdid
p2414
ag75
aVwhat
p2415
aVdid
p2416
aVyou
p2417
aVsay
p2418
ag67
aaa(lp2419
Vgeorge
p2420
a(lp2421
Vsay
p2422
ag67
aVwhat
p2423
ag67
aVnothing
p2424
ag75
ag136
aaa(lp2425
Vdonna
p2426
a(lp2427
Vyou
p2428
aVtold
p2429
aVhim
p2430
aVhow
p2431
ag136
aVlike
p2432
aVthe
p2433
aVcommercial
p2434
ag35
aaa(lp2435
Vjerry
p2436
a(lp2437
Vwell
p2438
ag75
aVso
p2439
aVwhat
p2440
aVif
p2441
ag136
aVsaid
p2442
aVthat
p2443
ag67
aaa(lp2444
Vdonna
p2445
a(lp2446
Vwell
p2447
ag75
aVso
p2448
ag75
aVyou
p2449
aVdid
p2450
aVn't
p2451
aVhave
p2452
aVto
p2453
aVtell
p2454
aVyour
p2455
aVfriends
p2456
ag35
aaa(lp2457
Vjerry
p2458
a(lp2459
Vno
p2460
ag75
ag136
aVhad
p2461
aVto
p2462
aVtell
p2463
aVmy
p2464
aVfriends
p2465
ag75
aVmy
p2466
aVfriends
p2467
aVdid
p2468
aVn't
p2469
aVhave
p2470
aVto
p2471
aVtell
p2472
aVyou
p2473
ag35
aaa(lp2474
Vgeorge
p2475
a(lp2476
Vwhy
p2477
aVdid
p2478
aVyou
p2479
aVhave
p2480
aVto
p2481
aVget
p2482
aVme
p2483
aVin
p2484
aVtrouble
p2485
ag67
aaa(lp2486
Vdonna
p2487
a(lp2488
g136
aVdo
p2489
aVn't
p2490
aVlike
p2491
aVyou
p2492
aVtalking
p2493
aVabout
p2494
aVme
p2495
aVwith
p2496
aVyour
p2497
aVfriends
p2498
aVbehind
p2499
aVmy
p2500
aVback
p2501
ag35
aaa(lp2502
Vgeorge
p2503
a(lp2504
Vboy
p2505
aVoh
p2506
aVboy
p2507
ag35
aaa(lp2508
Vjerry
p2509
a(lp2510
g136
aVsaid
p2511
ag136
aVcould
p2512
aVn't
p2513
aVbelieve
p2514
aVyou
p2515
aVliked
p2516
aVthat
p2517
aVcommercial
p2518
ag35
aVso
p2519
aVwhat
p2520
ag67
aaa(lp2521
Vdonna
p2522
a(lp2523
g136
aVasked
p2524
aVsome
p2525
aVfriends
p2526
aVof
p2527
aVmine
p2528
aVthis
p2529
aVweek
p2530
ag75
aVand
p2531
aVall
p2532
aVof
p2533
aVthem
p2534
aVliked
p2535
aVthe
p2536
aVcommercial
p2537
ag35
aaa(lp2538
Vjerry
p2539
a(lp2540
Vboy
p2541
ag75
ag136
aVbet
p2542
aVyou
p2543
aVgot
p2544
ag90
aVregular
p2545
aValgonquin
p2546
aVround
p2547
aVtable
p2548
aVthere
p2549
ag35
aVk
p2550
aVhey
p2551
ag35
aaa(lp2552
Vjerry
p2553
a(lp2554
Voh
p2555
ag75
aVkramer
p2556
ag75
aVthis
p2557
aVis
p2558
aVdonna
p2559
ag35
ag2550
aVoh
p2560
ag35
aVcotton
p2561
aVdockers
p2562
ag403
aaa(lp2563
Vgeorge
p2564
a(lp2565
Vhello
p2566
ag403
aValright
p2567
ag75
aVwe
p2568
aVshould
p2569
aVbe
p2570
aVgoing
p2571
ag35
aVcome
p2572
aVon
p2573
ag35
ag2550
aVwhat
p2574
ag67
aVwhere
p2575
aVare
p2576
aVwe
p2577
aVgoing
p2578
ag67
aaa(lp2579
Vgeorge
p2580
a(lp2581
Vcome
p2582
aVon
p2583
ag403
aaa(lp2584
Vdonna
p2585
a(lp2586
Vdo
p2587
aVn't
p2588
aVbother
p2589
ag75
ag136
aV'm
p2590
aVleaving
p2591
ag35
aaa(lp2592
Vjerry
p2593
a(lp2594
Vdonna
p2595
ag75
aVreally
p2596
ag75
aVyou
p2597
aV're
p2598
aVmaking
p2599
aVtoo
p2600
aVmuch
p2601
aVof
p2602
aVthis
p2603
ag35
ag2550
aVone
p2604
aVhundred
p2605
aVpercent
p2606
aVcotton
p2607
aVdockers
p2608
ag75
aVif
p2609
aVthey
p2610
aV're
p2611
aVnot
p2612
aVdockers
p2613
ag75
aVthey
p2614
aV're
p2615
aVjust
p2616
aVpants
p2617
ag403
aaa(lp2618
Vjerry
p2619
a(lp2620
Vplease
p2621
ag75
aVdonna
p2622
ag35
aaa(lp2623
Vdonna
p2624
a(lp2625
g136
aVdo
p2626
aVn't
p2627
aVwan
p2628
aVna
p2629
aVhear
p2630
aVit
p2631
ag35
aaa(lp2632
Vgeorge
p2633
a(lp2634
g136
aVca
p2635
aVn't
p2636
aVbelieve
p2637
ag136
aVsaid
p2638
aVthat
p2639
ag35
aVyou
p2640
aVknow
p2641
aVme
p2642
ag75
ag136
aV'm
p2643
ag90
aVvault
p2644
ag35
aaa(lp2645
Vjerry
p2646
a(lp2647
Vdo
p2648
aVn't
p2649
aVworry
p2650
aVabout
p2651
aVit
p2652
ag75
aVit
p2653
aVwas
p2654
aVn't
p2655
aVworking
p2656
aVanyway
p2657
ag35
ag2550
aVwhat
p2658
aVhappened
p2659
aVthere
p2660
ag67
aaa(lp2661
Vjerry
p2662
a(lp2663
g136
aV'll
p2664
aVtell
p2665
aVyou
p2666
aVlater
p2667
ag35
aaa(lp2668
Vgeorge
p2669
a(lp2670
Vyou
p2671
aVare
p2672
aVnot
p2673
aVgon
p2674
aVna
p2675
aVbelieve
p2676
aVwhat
p2677
aV's
p2678
aVgoing
p2679
aVon
p2680
aVwith
p2681
aVthis
p2682
aVwoman
p2683
ag35
aaa(lp2684
Vgeorge
p2685
a(lp2686
Vok
p2687
ag75
aVso
p2688
aVyou
p2689
aVremember
p2690
ag136
aVmade
p2691
aVthe
p2692
aVinitial
p2693
aVcall
p2694
aVsunday
p2695
ag75
aVshe
p2696
aVdoes
p2697
aVn't
p2698
aVcall
p2699
aVback
p2700
ag35
ag136
aVcall
p2701
aVagain
p2702
aVmonday
p2703
ag75
ag136
aVleave
p2704
aVanother
p2705
aVmessage
p2706
ag35
ag136
aVcall
p2707
aVtuesday
p2708
ag75
ag136
aVget
p2709
aVthe
p2710
aVmachine
p2711
aVagain
p2712
ag136
aVknow
p2713
aVyou
p2714
aV're
p2715
aVthere
p2716
ag75
ag136
aVdo
p2717
aVn't
p2718
aVknow
p2719
aVwhat
p2720
aVyour
p2721
aVstory
p2722
aVis
p2723
ag35
aVyesterday
p2724
ag75
ag136
aV'm
p2725
ag90
aVvolcano
p2726
ag60
ag136
aVtry
p2727
aVone
p2728
aVmore
p2729
aVcall
p2730
ag75
aVthe
p2731
aVmachine
p2732
aVcomes
p2733
aVon
p2734
ag75
aVand
p2735
aVfly
p2736
aVlike
p2737
aVmussolini
p2738
aVfrom
p2739
aVthe
p2740
aVbalcony-
p2741
aVwhere
p2742
aVthe
p2743
aVhell
p2744
aVdo
p2745
aVyou
p2746
aVget
p2747
aVthe
p2748
aVnerve
p2749
ag67
aVyou
p2750
aVinvite
p2751
aVme
p2752
aVup
p2753
aVfor
p2754
aVcoffee
p2755
aVand
p2756
aVthen
p2757
aVyou
p2758
aVdo
p2759
aVn't
p2760
aVcall
p2761
aVme
p2762
aVback
p2763
aVfor
p2764
aVfour
p2765
aVdays
p2766
ag67
ag136
aVdo
p2767
aVn't
p2768
aVlike
p2769
aVcoffee
p2770
ag75
ag136
aVdo
p2771
aVn't
p2772
aVhave
p2773
aVto
p2774
aVcome
p2775
aVup
p2776
ag35
ag136
aV'd
p2777
aVlike
p2778
aVto
p2779
aVget
p2780
aVone
p2781
aVmore
p2782
aVshot
p2783
aVat
p2784
aVthe
p2785
aVcoffee
p2786
aVjust
p2787
aVso
p2788
ag136
aVcould
p2789
aVspit
p2790
aVit
p2791
aVin
p2792
aVyour
p2793
aVface
p2794
ag35
aaa(lp2795
Vjerry
p2796
a(lp2797
Vyou
p2798
aVsaid
p2799
aVthat
p2800
ag67
aaa(lp2801
Vgeorge
p2802
a(lp2803
g136
aVlost
p2804
aVit
p2805
ag35
aaa(lp2806
Vjerry
p2807
a(lp2808
g136
aVca
p2809
aVn't
p2810
aVblame
p2811
aVyou
p2812
ag35
ag136
aVca
p2813
aVn't
p2814
aVbelieve
p2815
aVshe
p2816
aVnever
p2817
aVcalled
p2818
aVyou
p2819
aVback
p2820
ag35
aaa(lp2821
Vgeorge
p2822
a(lp2823
Vshe
p2824
aVdid
p2825
ag35
aVtoday
p2826
ag35
aaa(lp2827
Vjerry
p2828
a(lp2829
Vwhat
p2830
ag67
aaa(lp2831
Vgeorge
p2832
a(lp2833
Vshe
p2834
aVcalled
p2835
aVmy
p2836
aVoffice
p2837
ag35
aVshe
p2838
aVsaid
p2839
aVshe
p2840
aV's
p2841
aVbeen
p2842
aVin
p2843
aVthe
p2844
aVhamptons
p2845
aVsince
p2846
aVsunday
p2847
ag35
aVshe
p2848
aVdid
p2849
aVn't
p2850
aVknow
p2851
aVif
p2852
ag136
aVwas
p2853
aVtrying
p2854
aVto
p2855
aVget
p2856
aVin
p2857
aVtouch
p2858
aVwith
p2859
aVher
p2860
ag35
aVher
p2861
aVmachine
p2862
aVbroke
p2863
ag75
aVand
p2864
aVshe
p2865
aV's
p2866
aVbeen
p2867
aVusing
p2868
aVher
p2869
aVold
p2870
aVmachine
p2871
aVand
p2872
aVshe
p2873
aVdoes
p2874
aVn't
p2875
aVhave
p2876
aVthe
p2877
aVbeeper
p2878
aVfor
p2879
aVit
p2880
ag35
aaa(lp2881
Vjerry
p2882
a(lp2883
Vso
p2884
aVshe
p2885
aVdid
p2886
aVn't
p2887
aVget
p2888
aVthe
p2889
aVmessages
p2890
ag35
aaa(lp2891
Vgeorge
p2892
a(lp2893
Vexactly
p2894
ag75
aVbut
p2895
aVthey
p2896
aV're
p2897
aVon
p2898
aVthere
p2899
aVwaiting
p2900
ag35
aVshe
p2901
aVsaid
p2902
aVshe
p2903
aVca
p2904
aVn't
p2905
aVwait
p2906
aVto
p2907
aVsee
p2908
aVme
p2909
ag75
aVwe
p2910
aV're
p2911
aVhaving
p2912
aVdinner
p2913
aVtonight
p2914
ag35
aVshe
p2915
aV's
p2916
aVsupposed
p2917
aVto
p2918
aVcall
p2919
aVme
p2920
aVas
p2921
aVsoon
p2922
aVas
p2923
aVshe
p2924
aVgets
p2925
aVhome
p2926
ag35
aaa(lp2927
Vjerry
p2928
a(lp2929
Vbut
p2930
aVwhat
p2931
aVabout
p2932
aVthe
p2933
aVmessages
p2934
ag67
aaa(lp2935
Vjerry
p2936
a(lp2937
Velaine
p2938
aV's
p2939
aVthing
p2940
ag67
aVhow
p2941
aVyou
p2942
aVgon
p2943
aVna
p2944
aVget
p2945
aVin
p2946
ag67
aaa(lp2947
Vgeorge
p2948
a(lp2949
g136
aV'll
p2950
aVmeet
p2951
aVher
p2952
aVoutside
p2953
aVthe
p2954
aVbuilding
p2955
ag35
aaa(lp2956
Vjerry
p2957
a(lp2958
Vbut
p2959
aVyou
p2960
aVknow
p2961
aVas
p2962
aVsoon
p2963
aVas
p2964
aVshe
p2965
aVgets
p2966
aVin
p2967
aVthe
p2968
aVapartment
p2969
aVshe
p2970
aV's
p2971
aVgoing
p2972
aVright
p2973
aVfor
p2974
aVthat
p2975
aVmachine
p2976
ag35
aaa(lp2977
Vgeorge
p2978
a(lp2979
Vor
p2980
aVshe
p2981
aVgoes
p2982
aVfor
p2983
aVthe
p2984
aVbathroom
p2985
ag35
aVthat
p2986
aV's
p2987
aVmy
p2988
aVonly
p2989
aVchance
p2990
ag35
aVwho
p2991
aVam
p2992
ag136
aVkidding
p2993
ag67
ag136
aVca
p2994
aVn't
p2995
aVdo
p2996
aVthis
p2997
ag75
ag136
aVca
p2998
aVn't
p2999
aVdo
p3000
aVthis
p3001
ag35
ag136
aVdo
p3002
aVn't
p3003
aVeven
p3004
aVknow
p3005
aVhow
p3006
aVto
p3007
aVwork
p3008
aVthose
p3009
aVstupid
p3010
aVmachines
p3011
ag35
aaa(lp3012
Vjerry
p3013
a(lp3014
Vthere
p3015
aV's
p3016
aVnothing
p3017
aVto
p3018
aVit
p3019
ag35
aVyou
p3020
aVlift
p3021
aVthe
p3022
aVlid
p3023
ag75
aVit
p3024
aVcomes
p3025
aVright
p3026
aVout
p3027
ag35
aaa(lp3028
Vgeorge
p3029
a(lp3030
Vyou
p3031
aVdo
p3032
aVit
p3033
aVfor
p3034
aVme
p3035
ag35
aaa(lp3036
Vjerry
p3037
a(lp3038
Vwhat
p3039
ag67
aaa(lp3040
Vgeorge
p3041
a(lp3042
Vcome
p3043
aVon
p3044
ag75
aVit
p3045
aV'll
p3046
aVbe
p3047
aVso
p3048
aVmuch
p3049
aVeasier
p3050
ag35
aaa(lp3051
Vjerry
p3052
a(lp3053
Vhow
p3054
aVyou
p3055
aVgon
p3056
aVna
p3057
aVget
p3058
aVme
p3059
aVup
p3060
aVthere
p3061
ag67
aaa(lp3062
Vgeorge
p3063
a(lp3064
g136
aV'll
p3065
aVtell
p3066
aVher
p3067
ag136
aVbumped
p3068
aVinto
p3069
aVyou
p3070
ag75
ag136
aV'm
p3071
aVgiving
p3072
aVyou
p3073
ag90
aVride
p3074
aVuptown
p3075
ag35
aaa(lp3076
Vjerry
p3077
a(lp3078
Vand
p3079
aVwho
p3080
aVmakes
p3081
aVthe
p3082
aVswitch
p3083
ag67
aaa(lp3084
Vgeorge
p3085
a(lp3086
Vyou
p3087
aVdo
p3088
ag35
aaa(lp3089
Vjerry
p3090
a(lp3091
g136
aVdo
p3092
ag35
aaa(lp3093
Vgeorge
p3094
a(lp3095
g136
aVca
p3096
aVn't
p3097
aVdo
p3098
aVit
p3099
ag35
ag136
aV'll
p3100
ag75
ag136
aV'll
p3101
aVkeep
p3102
aVher
p3103
aVbusy
p3104
ag35
aaa(lp3105
Vjerry
p3106
a(lp3107
g136
aVca
p3108
aVn't
p3109
aVget
p3110
aVinvolved
p3111
aVin
p3112
aVthis
p3113
ag35
aaa(lp3114
Vgeorge
p3115
a(lp3116
g136
aVthink
p3117
ag136
aVmay
p3118
aVbe
p3119
aVin
p3120
aVlove
p3121
aVwith
p3122
aVthis
p3123
aVwoman
p3124
ag35
aaa(lp3125
Vjerry
p3126
a(lp3127
Vwhat
p3128
aVif
p3129
aVshe
p3130
aVsees
p3131
aVme
p3132
ag67
aaa(lp3133
Vgeorge
p3134
a(lp3135
Voh
p3136
ag75
aVyou
p3137
aVare
p3138
aVsuch
p3139
ag90
aVwuss
p3140
ag35
aaa(lp3141
Vjerry
p3142
a(lp3143
g90
aVwuss
p3144
ag67
aaa(lp3145
Vgeorge
p3146
a(lp3147
Vyeah
p3148
ag35
aaa(lp3149
Vjerry
p3150
a(lp3151
Vdid
p3152
aVyou
p3153
aVcall
p3154
aVme
p3155
ag90
aVwuss
p3156
ag67
aaa(lp3157
Vgeorge
p3158
a(lp3159
Vwell
p3160
aVthere
p3161
aVis
p3162
aVtraffic
p3163
ag35
aVit
p3164
aVmight
p3165
aVtake
p3166
aVher
p3167
aVtill
p3168
aVeight-fifteen
p3169
ag35
aaa(lp3170
Vjerry
p3171
a(lp3172
g136
aVgot
p3173
aVone
p3174
aVproblem
p3175
aVyou
p3176
aV're
p3177
aVkeeping
p3178
aVher
p3179
aVbusy
p3180
aVin
p3181
aVthe
p3182
aVother
p3183
aVroom
p3184
ag35
aVnow
p3185
ag75
aVwhat
p3186
aVif
p3187
aVshe
p3188
aVsomehow
p3189
aVgets
p3190
aVaway
p3191
aVfrom
p3192
aVyou
p3193
aVand
p3194
aVis
p3195
aVcoming
p3196
aVin
p3197
ag67
aVyou
p3198
aVhave
p3199
aVto
p3200
aVsignal
p3201
aVme
p3202
aVthat
p3203
aVshe
p3204
aV's
p3205
aVcoming
p3206
ag35
aaa(lp3207
Vgeorge
p3208
a(lp3209
g90
aVsignal
p3210
ag75
aVright
p3211
ag75
aVerm
p3212
ag75
aVok
p3213
ag75
aVer
p3214
aVok
p3215
ag75
aVthe
p3216
aVsignal
p3217
aVis
p3218
ag75
ag136
aV'll
p3219
aVcall
p3220
aVout
p3221
aV'tippy
p3222
aVtoe
p3223
ag403
ag404
aaa(lp3224
Vjerry
p3225
a(lp3226
V'tippy
p3227
aVtoe
p3228
ag67
ag404
ag136
aVdo
p3229
aVn't
p3230
aVthink
p3231
aVso
p3232
ag35
aaa(lp3233
Vgeorge
p3234
a(lp3235
Vyou
p3236
aVdo
p3237
aVn't
p3238
aVlike
p3239
aV'tippy
p3240
aVtoe
p3241
ag67
ag404
aaa(lp3242
Vjerry
p3243
a(lp3244
Vno
p3245
aV'tippy
p3246
aVtoe
p3247
ag35
ag404
aaa(lp3248
Vgeorge
p3249
a(lp3250
Valright
p3251
ag75
aVer
p3252
ag75
aVok
p3253
ag136
aVgot
p3254
aVit
p3255
ag75
aVerm
p3256
ag75
ag136
aV'll
p3257
aVsing
p3258
ag35
aaa(lp3259
Vjerry
p3260
a(lp3261
Vwhat
p3262
aVsong
p3263
ag67
aaa(lp3264
Vgeorge
p3265
a(lp3266
Verm
p3267
ag75
aV'how
p3268
aVdo
p3269
aVyou
p3270
aVsolve
p3271
ag90
aVproblem
p3272
aVlike
p3273
aVmaria
p3274
ag67
ag404
aaa(lp3275
Vjerry
p3276
a(lp3277
Vwhat
p3278
aVis
p3279
aVthat
p3280
ag67
aaa(lp3281
Vgeorge
p3282
a(lp3283
Voh
p3284
ag75
aVit
p3285
aV's
p3286
ag90
aVlovely
p3287
aVsong
p3288
ag35
aVhow
p3289
aVdo
p3290
aVyou
p3291
aVsolve
p3292
ag90
aVproblem
p3293
aVlike
p3294
aVmaria
p3295
ag67
aaa(lp3296
Vjerry
p3297
a(lp3298
Vanything
p3299
aVelse
p3300
ag67
aaa(lp3301
Vgeorge
p3302
a(lp3303
Vyou
p3304
aVpick
p3305
aVit
p3306
ag35
aaa(lp3307
Vjerry
p3308
a(lp3309
V'lemon
p3310
aVtree
p3311
ag404
aaa(lp3312
Vgeorge
p3313
a(lp3314
Vpeter
p3315
ag75
aVpaul
p3316
aVand
p3317
aVmary
p3318
ag35
aaa(lp3319
Vjerry
p3320
a(lp3321
Vno
p3322
ag75
aVtrini
p3323
aVlopez
p3324
ag35
aaa(lp3325
Vboth
p3326
a(lp3327
Vlemon
p3328
aVtree
p3329
aVvery
p3330
aVpretty
p3331
aVand
p3332
ag90
aVlemon
p3333
aVflower
p3334
aaa(lp3335
Vgeorge
p3336
a(lp3337
Vyou
p3338
aVgot
p3339
aVthe
p3340
aVtape
p3341
ag67
aaa(lp3342
Vjerry
p3343
a(lp3344
Vstandard
p3345
ag35
aVmicro
p3346
ag35
aaa(lp3347
Vgeorge
p3348
a(lp3349
Vhow
p3350
aVdo
p3351
aVyou
p3352
aVfeel
p3353
ag67
aVconfident
p3354
ag67
aaa(lp3355
Vjerry
p3356
a(lp3357
Vfeel
p3358
aVgood
p3359
ag35
aaa(lp3360
Vgeorge
p3361
a(lp3362
Vyou
p3363
aVnervous
p3364
ag67
aaa(lp3365
Vjerry
p3366
a(lp3367
Vnot
p3368
aVat
p3369
aVall
p3370
ag35
aaa(lp3371
Vgeorge
p3372
a(lp3373
Vget
p3374
aVup
p3375
ag75
aVget
p3376
aVup
p3377
ag75
aVit
p3378
aV's
p3379
aVher
p3380
ag35
aVoh
p3381
ag75
aVthe
p3382
aVhell
p3383
aVwith
p3384
aVthis
p3385
ag75
ag136
aV'm
p3386
aVscared
p3387
aVto
p3388
aVdeath
p3389
ag75
aVjust
p3390
aVwalk
p3391
aVaway
p3392
ag75
aVit
p3393
aV's
p3394
aVoff
p3395
ag75
aVcancel
p3396
aVeverything
p3397
ag75
aVgo
p3398
ag403
aaa(lp3399
Vgeorge
p3400
a(lp3401
Vhey
p3402
ag403
aVwhat
p3403
aVare
p3404
aVyou
p3405
aVdoing
p3406
aVhere
p3407
ag67
ag136
aVthought
p3408
ag136
aVwas
p3409
aVsupposed
p3410
aVto
p3411
aVcall
p3412
aVyou
p3413
aVwhen
p3414
ag136
aVgot
p3415
aVhome
p3416
ag35
aaa(lp3417
Vgeorge
p3418
a(lp3419
g136
ag75
ag136
aVcould
p3420
aVn't
p3421
aVwait
p3422
ag35
ag136
aVwas
p3423
aVtoo
p3424
aVanxious
p3425
aVto
p3426
aVsee
p3427
aVyou
p3428
ag35
aaa(lp3429
Vcarol
p3430
a(lp3431
Voh
p3432
ag75
aVthat
p3433
aV's
p3434
aVso
p3435
aVsweet
p3436
ag35
aaa(lp3437
Vgeorge
p3438
a(lp3439
Voh
p3440
ag75
aVthis
p3441
aVis
p3442
aVmy
p3443
aVfriend
p3444
ag75
aVjerry
p3445
aVseinfeld
p3446
ag35
ag136
aVjust
p3447
aVbumped
p3448
aVinto
p3449
aVhim
p3450
aVaround
p3451
aVthe
p3452
aVcorner
p3453
ag35
aVis
p3454
aVn't
p3455
aVthat
p3456
ag90
aVcoincidence
p3457
ag67
aVthe
p3458
aVfunny
p3459
aVthing
p3460
aVis
p3461
ag75
ag136
aVsee
p3462
aVhim
p3463
aVall
p3464
aVthe
p3465
aVtime
p3466
ag35
aaa(lp3467
Vjerry
p3468
a(lp3469
Vall
p3470
aVthe
p3471
aVtime
p3472
ag35
aaa(lp3473
Vcarol
p3474
a(lp3475
Vit
p3476
aV's
p3477
aVnice
p3478
aVto
p3479
aVmeet
p3480
aVyou
p3481
ag35
aaa(lp3482
Vjerry
p3483
a(lp3484
Vhi
p3485
ag35
aaa(lp3486
Vcarol
p3487
a(lp3488
Vso
p3489
ag75
ag136
aV'm
p3490
aVstarving
p3491
ag35
aVwhere
p3492
aVare
p3493
aVwe
p3494
aVgon
p3495
aVna
p3496
aVeat
p3497
ag67
aaa(lp3498
Vgeorge
p3499
a(lp3500
Vyou
p3501
aVknow
p3502
ag75
aVwe
p3503
aVcould
p3504
aVgo
p3505
aVuptown
p3506
ag75
aVand
p3507
aVthat
p3508
aVway
p3509
aVwe
p3510
aVcould
p3511
aVgive
p3512
aVjerry
p3513
ag90
aVride
p3514
aVhome
p3515
ag35
aaa(lp3516
Vcarol
p3517
a(lp3518
Vok.
p3519
aVlet
p3520
aV's
p3521
aVgo
p3522
ag75
ag136
aV'm
p3523
aVready
p3524
ag75
aVwhere
p3525
aV'd
p3526
aVyou
p3527
aVpark
p3528
ag67
aaa(lp3529
Vgeorge
p3530
a(lp3531
Vdo
p3532
aVn't
p3533
aVyou
p3534
aVwan
p3535
aVna
p3536
aVgo
p3537
aVupstairs
p3538
aVfirst
p3539
ag67
aaa(lp3540
Vcarol
p3541
a(lp3542
Vno
p3543
ag75
aVwhat
p3544
aVfor
p3545
ag67
ag136
aV'll
p3546
aVjust
p3547
aVgive
p3548
aVmy
p3549
aVbag
p3550
aVto
p3551
aVthe
p3552
aVdoorman
p3553
ag35
aaa(lp3554
Vjerry
p3555
a(lp3556
Vyou
p3557
aVknow
p3558
ag75
ag136
aVreally
p3559
aVneed
p3560
aVto
p3561
aVuse
p3562
aVthe
p3563
aVbathroom
p3564
ag35
aaa(lp3565
Vcarol
p3566
a(lp3567
Voh
p3568
aVwell
p3569
aVthere
p3570
aV's
p3571
ag90
aVbathroom
p3572
aVin
p3573
aVthe
p3574
aVcoffee
p3575
aVshop
p3576
aVjust
p3577
aVnext
p3578
aVdoor
p3579
ag35
aaa(lp3580
Vgeorge
p3581
a(lp3582
Vyes
p3583
ag75
aVyes
p3584
ag75
aVbut
p3585
aVer
p3586
ag75
ag136
aVhave
p3587
aVto
p3588
aVmake
p3589
ag90
aVcall
p3590
ag75
aVso
p3591
aaa(lp3592
Vcarol
p3593
a(lp3594
Vwell
p3595
aVthey
p3596
aVhave
p3597
ag90
aVphone
p3598
ag35
aaa(lp3599
Vgeorge
p3600
a(lp3601
g136
aVknow
p3602
aVjerry
p3603
ag35
aVhe
p3604
aVhas
p3605
aVthis
p3606
aVphobia
p3607
aVabout
p3608
aVpublic
p3609
aVtoilets
p3610
ag35
ag136
aVthink
p3611
aVwe
p3612
aVreally
p3613
aVshould
p3614
aVgo
p3615
aVupstairs
p3616
ag35
aaa(lp3617
Vcarol
p3618
a(lp3619
Vyou
p3620
aVknow
p3621
ag75
ag136
aVthink
p3622
ag136
aVwill
p3623
aVgo
p3624
aVupstairs
p3625
ag35
ag136
aVcan
p3626
aVcheck
p3627
aVmy
p3628
aVmachine
p3629
ag35
aaa(lp3630
Vgeorge
p3631
a(lp3632
Vright
p3633
ag75
aVright
p3634
ag35
aaa(lp3635
Vcarol
p3636
a(lp3637
Vthe
p3638
aVbathroom
p3639
aV's
p3640
aVon
p3641
aVthe
p3642
aVhall
p3643
aVto
p3644
aVthe
p3645
aVright
p3646
ag35
aaa(lp3647
Vjerry
p3648
a(lp3649
Ver
p3650
ag75
aVyou
p3651
aVknow
p3652
ag75
aVwhy
p3653
aVdo
p3654
aVn't
p3655
aVyou
p3656
aVgo
p3657
aVfirst
p3658
ag75
aVyou
p3659
aVjust
p3660
aVhad
p3661
ag90
aVlong
p3662
aVtrip
p3663
ag35
aaa(lp3664
Vcarol
p3665
a(lp3666
Vno
p3667
ag75
ag136
aV'm
p3668
aVfine
p3669
ag35
aaa(lp3670
Vjerry
p3671
a(lp3672
Vuhmmm
p3673
ag75
aVyou
p3674
aVknow
p3675
ag75
aVit
p3676
aV's
p3677
aVthe
p3678
aVdamnedest
p3679
aVthing
p3680
ag75
aVit
p3681
aVwent
p3682
aVaway
p3683
ag35
aaa(lp3684
Vcarol
p3685
a(lp3686
Voh
p3687
aVthat
p3688
aV's
p3689
aVweird
p3690
ag35
aaa(lp3691
Vgeorge
p3692
a(lp3693
Vno
p3694
ag75
aVno
p3695
aVthat
p3696
aVcan
p3697
aVhappen
p3698
ag35
ag136
aV've
p3699
ag75
aVer
p3700
ag75
ag136
aV've
p3701
aVread
p3702
aVabout
p3703
aVthat
p3704
aVin
p3705
aVmedical
p3706
aVjournals
p3707
ag35
aVit
p3708
aV's
p3709
ag90
aVfreak
p3710
aVthing
p3711
ag75
aVbut
p3712
aaa(lp3713
Vcarol
p3714
a(lp3715
Vwell
p3716
ag75
aVlet
p3717
aVme
p3718
aVjust
p3719
aVcheck
p3720
aVmy
p3721
aVmessages
p3722
ag75
aVand
p3723
aVwe
p3724
aV'll
p3725
aVgo
p3726
ag35
aaa(lp3727
Vgeorge
p3728
a(lp3729
Vuh
p3730
ag75
aVcarol
p3731
ag75
aVcan
p3732
ag136
aVtalk
p3733
aVto
p3734
aVyou
p3735
aVfor
p3736
ag90
aVsecond
p3737
ag67
aVright
p3738
aVnow
p3739
ag35
aaa(lp3740
Vcarol
p3741
a(lp3742
Vsure
p3743
ag35
aaa(lp3744
Vgeorge
p3745
a(lp3746
Vplease
p3747
ag75
aVthis
p3748
aVis
p3749
aVvery
p3750
ag75
aVvery
p3751
aVimportant
p3752
ag35
aaa(lp3753
Vgeorge
p3754
a(lp3755
Vuhh
p3756
ag75
aVtippy
p3757
aVtoe
p3758
ag403
aVtippy
p3759
aVtoe
p3760
ag403
aVlemon
p3761
aVtree
p3762
ag403
aaa(lp3763
Vcarol
p3764
a(lp3765
Vnow
p3766
ag136
aVknow
p3767
aVwho
p3768
aVyou
p3769
aVare
p3770
ag35
aVyou
p3771
aV're
p3772
ag90
aVcomedian
p3773
ag35
ag136
aV've
p3774
aVseen
p3775
aVyou
p3776
ag75
aVit
p3777
aV's
p3778
aVdriving
p3779
aVme
p3780
aVcrazy
p3781
ag35
aaa(lp3782
Vjerry
p3783
a(lp3784
Vright
p3785
ag35
ag136
aVam
p3786
ag35
aaa(lp3787
Vgeorge
p3788
a(lp3789
Vcarol
p3790
ag75
aVthat
p3791
aV's
p3792
aVso
p3793
aVrude
p3794
ag35
aVplease
p3795
ag75
ag136
aV'm
p3796
aVserious
p3797
ag75
aVjust
p3798
aVfor
p3799
ag90
aVmoment
p3800
ag75
aVif
p3801
aVyou
p3802
aVwould
p3803
aVn't
p3804
aVmind
p3805
ag75
aVand
p3806
aVthen
p3807
aVwe
p3808
aV'll
p3809
aVtalk
p3810
aVto
p3811
aVjerry
p3812
ag35
aaa(lp3813
Vjerry
p3814
a(lp3815
Vhey
p3816
aVyou
p3817
aVtwo
p3818
ag35
ag136
aV'm
p3819
aVready
p3820
aVto
p3821
aVgo
p3822
ag35
aaa(lp3823
Vcarol
p3824
a(lp3825
Vthat
p3826
aV's
p3827
aVwhat
p3828
aVyou
p3829
aVhad
p3830
aVto
p3831
aVtell
p3832
aVme
p3833
ag67
aVyour
p3834
aVfather
p3835
aVwears
p3836
aVsneakers
p3837
aVin
p3838
aVthe
p3839
aVpool
p3840
ag67
aaa(lp3841
Vgeorge
p3842
a(lp3843
Vdo
p3844
aVn't
p3845
aVyou
p3846
aVfind
p3847
aVthat
p3848
aVstrange
p3849
ag67
aaa(lp3850
Vjerry
p3851
a(lp3852
Vyes
p3853
ag35
aaa(lp3854
Vcarol
p3855
a(lp3856
Vwell
p3857
ag75
ag136
aV'll
p3858
aVjust
p3859
aVcheck
p3860
aVmy
p3861
aVmachine
p3862
aVand
p3863
aVwe
p3864
aV'll
p3865
aVgo
p3866
ag35
aVno
p3867
ag75
aVnothing
p3868
aVhere
p3869
ag75
aVlet
p3870
aV's
p3871
aVgo
p3872
ag35
aVoh
p3873
ag75
ag136
aVforgot
p3874
aVto
p3875
aVtell
p3876
aVyou
p3877
ag35
aVafter
p3878
ag136
aVtalked
p3879
aVto
p3880
aVyou
p3881
aVtoday
p3882
aVmy
p3883
aVneighbour
p3884
aVcalled
p3885
aVme
p3886
aVand
p3887
aVplayed
p3888
aVmy
p3889
aVmessages
p3890
aVto
p3891
aVme
p3892
aVover
p3893
aVthe
p3894
aVphone
p3895
ag35
aaa(lp3896
Vgeorge
p3897
a(lp3898
Voh
p3899
ag75
aVuhhh
p3900
aaa.