(lp0
(lp1
Vjerry
p2
a(lp3
Vthe
p4
aVapartment
p5
aVwritten
p6
aVby
p7
aVpeter
p8
aVmehlman
p9
aVwell
p10
aV,
p11
aVi
p12
aVpainted
p13
aVmy
p14
aVapartment
p15
aVagain
p16
aV.
p17
ag12
aV've
p18
aVbeen
p19
aVliving
p20
aVin
p21
aVthis
p22
aVapartment
p23
aVfor
p24
aVyears
p25
aVand
p26
aVyears
p27
ag11
aVand
p28
aVevery
p29
aVtime
p30
ag12
aVpaint
p31
aVit
p32
ag11
aVit
p33
aVkinda
p34
aVgets
p35
aVme
p36
aVdown
p37
ag17
ag12
aVlook
p38
aVaround
p39
ag11
aVand
p40
ag12
aVthink
p41
ag11
aVwell
p42
ag11
aVit
p43
aV's
p44
aVa
p45
aVlittle
p46
aVbit
p47
aVsmaller
p48
aVnow
p49
ag17
aVyou
p50
aVknow
p51
ag11
ag12
aVrealize
p52
aVit
p53
aV's
p54
aVjust
p55
aVthe
p56
aVthickness
p57
aVof
p58
aVthe
p59
aVpaint
p60
ag11
aVbut
p61
ag12
aV'm
p62
aVaware
p63
aVof
p64
aVit
p65
ag17
aVit
p66
aVkeeps
p67
aVcoming
p68
aVin
p69
aVand
p70
aVcoming
p71
aVin
p72
ag17
aVeverytime
p73
ag12
aVpaint
p74
aVit
p75
ag11
aVit
p76
aV's
p77
aVcloser
p78
aVand
p79
aVcloser
p80
ag17
ag12
aVdo
p81
aVn't
p82
aVeven
p83
aVknow
p84
aVwhere
p85
aVthe
p86
aVwall
p87
aVoutlets
p88
aVare
p89
aVanymore
p90
ag17
ag12
aVjust
p91
aVlook
p92
aVfor
p93
aVlike
p94
ag45
aVlump
p95
aVwith
p96
aVtwo
p97
aVslots
p98
aVin
p99
aVit
p100
ag17
aVkinda
p101
aVlooks
p102
aVlike
p103
ag45
aVpig
p104
aVis
p105
aVtrying
p106
aVto
p107
aVpush
p108
aVhis
p109
aVway
p110
aVthrough
p111
aVfrom
p112
aVthe
p113
aVother
p114
aVside
p115
ag17
aVthat
p116
aV's
p117
aVwhere
p118
ag12
aVplug
p119
aVin
p120
aVmy
p121
aVidea
p122
aVof
p123
aVthe
p124
aVperfect
p125
aVliving
p126
aVroom
p127
aVwould
p128
aVbe
p129
aVthe
p130
aVbridge
p131
aVon
p132
aVthe
p133
aVstarship
p134
aVenterprise
p135
ag17
aVyou
p136
aVknow
p137
aVwhat
p138
ag12
aVmean
p139
aV?
p140
aVbig
p141
aVchair
p142
ag11
aVnice
p143
aVscreen
p144
ag11
aVremote
p145
aVcontrol
p146
aVthat
p147
aV's
p148
aVwhy
p149
aVstar
p150
aVtrek
p151
aVreally
p152
aVwas
p153
aVthe
p154
aVultimate
p155
aVmale
p156
aVfantasy
p157
ag17
aVjust
p158
aVhurling
p159
aVthrough
p160
aVspace
p161
aVin
p162
aVyour
p163
aVliving
p164
aVroom
p165
ag11
aVwatching
p166
aVtv
p167
ag17
aVthat
p168
aV's
p169
aVwhy
p170
aVall
p171
aVthe
p172
aValiens
p173
aVwere
p174
aValways
p175
aVdropping
p176
aVin
p177
ag11
aVbecause
p178
aVkirk
p179
aVwas
p180
aVthe
p181
aVonly
p182
aVone
p183
aVthat
p184
aVhad
p185
ag45
aVbig
p186
aVscreen
p187
ag17
aVthey
p188
aVcame
p189
aVover
p190
aVfriday
p191
aVnight
p192
ag11
aVklingon
p193
aVboxing
p194
aVgot
p195
aVta
p196
aVbe
p197
aVthere
p198
ag17
aaa(lp199
Vjerry
p200
a(lp201
Vwhat
p202
aVdid
p203
aVyou
p204
aVdo
p205
ag140
aaa(lp206
Vkramer
p207
a(lp208
Vmousse
p209
ag17
ag12
aVmoussed
p210
aVup
p211
ag17
aaa(lp212
Velaine
p213
a(lp214
g12
aVguess
p215
aVit
p216
aVwas
p217
aVjust
p218
ag45
aVmatter
p219
aVof
p220
aVtime
p221
ag17
aaa(lp222
Vkramer
p223
a(lp224
Vyou
p225
aVknow
p226
ag11
ag12
aVshould
p227
aV've
p228
aVdone
p229
aVthis
p230
aVyears
p231
aVago
p232
ag17
ag12
aVmean
p233
ag11
ag12
aVfeel
p234
aVlike
p235
ag12
aVhad
p236
aVtwo
p237
aVlives
p238
ag17
aVmy
p239
aVpre-mousse
p240
aVand
p241
aVnow
p242
ag11
ag12
aVbegin
p243
aVmy
p244
aVpost-mousse
p245
ag17
aVhey
p246
ag11
aVtell
p247
aVme
p248
aVthe
p249
aVtruth
p250
ag11
aVhave
p251
aVyou
p252
aVever
p253
aVseen
p254
ag45
aVbetter
p255
aVlooking
p256
aVguy
p257
ag140
aaa(lp258
Vjerry
p259
a(lp260
Voh
p261
ag11
aVlook
p262
ag11
aVits
p263
aVso
p264
aVsubjective
p265
ag17
aaa(lp266
Velaine
p267
a(lp268
g12
aVdo
p269
aVn't
p270
aVmean
p271
aVto
p272
aVinterrupt
p273
aVor
p274
aVanything
p275
ag11
aVbut
p276
aVon
p277
aVsunday
p278
ag11
aVmy
p279
aVfriend
p280
aVis
p281
aVhaving
p282
ag45
aVbrunch
p283
aVfor
p284
aVthe
p285
aVnew
p286
aVyork
p287
aVmarathon
p288
ag17
aaa(lp289
Vkramer
p290
a(lp291
Voh
p292
ag11
ag12
aVkeep
p293
aVforgetting
p294
aVto
p295
aVenter
p296
aVthat
p297
ag17
aaa(lp298
Velaine
p299
a(lp300
Vshe
p301
aVlives
p302
aVright
p303
aVabove
p304
aVfirst
p305
aVavenue
p306
ag11
aVand
p307
aVsays
p308
aVshe
p309
aVhas
p310
ag45
aVperfect
p311
aVview
p312
aVof
p313
aVthe
p314
aVrace
p315
ag17
aVand
p316
aVshe
p317
aVsaid
p318
ag12
aVcan
p319
aVinvite
p320
aVsome
p321
aVfriends
p322
ag17
aaa(lp323
Vjerry
p324
a(lp325
Vmaybe
p326
ag17
aaa(lp327
Vharold
p328
a(lp329
Vno
p330
ag11
ag12
aV'm
p331
aVnot
p332
aVgoing
p333
aVup
p334
aVthere
p335
ag17
aaa(lp336
Vjerry
p337
a(lp338
Vharold
p339
aVand
p340
aVmanny
p341
ag17
aaa(lp342
Vharold
p343
a(lp344
g12
aV'm
p345
aVnot
p346
aVgoing
p347
ag17
aaa(lp348
Vjerry
p349
a(lp350
Vboys
p351
ag11
aVboys
p352
ag17
aaa(lp353
Vharold
p354
a(lp355
Voh
p356
ag11
aVjerry
p357
ag17
aaa(lp358
Vjerry
p359
a(lp360
g12
aVslid
p361
aVthe
p362
aVrent
p363
aVunder
p364
aVyour
p365
aVdoor
p366
ag11
aVharold
p367
ag17
aVdid
p368
aVyou
p369
aVget
p370
aVit
p371
ag140
aaa(lp372
Vharold
p373
a(lp374
Vyeah
p375
ag11
aVyeah
p376
aVhey
p377
ag11
aVjerry
p378
ag11
aVwould
p379
aVyou
p380
aVlike
p381
aVanything
p382
aVfrom
p383
aVmrs.
p384
aVhudwalker
p385
aV's
p386
aVapartment
p387
ag140
ag12
aVwas
p388
aVonly
p389
aVjoking
p390
ag17
aVhe
p391
aVthinks
p392
ag12
aV'm
p393
aVgoing
p394
aVto
p395
aVgive
p396
aVyou
p397
aVmrs.
p398
aVhudwalker
p399
aV's
p400
aVthings
p401
ag17
aVwe
p402
aVhave
p403
aVto
p404
aVgo
p405
aVup
p406
aVthere
p407
aVnow
p408
aVand
p409
aVclean
p410
aVthe
p411
aVapartment
p412
ag17
aVit
p413
aV's
p414
ag45
aVgood
p415
aVthing
p416
aVher
p417
aVrent
p418
aVwas
p419
aVoverdue
p420
ag17
aVshe
p421
aV'd
p422
aVbe
p423
aVrotting
p424
aVup
p425
aVthere
p426
aVfor
p427
ag45
aVmonth
p428
ag17
aaa(lp429
Vjerry
p430
a(lp431
Vshe
p432
aVdied
p433
ag140
aVmrs.
p434
aVhudwalker
p435
aVdied
p436
ag140
aaa(lp437
Vharold
p438
a(lp439
Vninety-four
p440
aVyears
p441
aVold
p442
ag17
ag12
aVfound
p443
aVher
p444
aVyesterday
p445
ag17
aVshe
p446
aVdid
p447
aVn't
p448
aVhave
p449
ag45
aVwig
p450
aVon
p451
ag17
aVit
p452
aVwas
p453
aVhorrifying
p454
ag17
aaa(lp455
Vmanny
p456
a(lp457
Vharold
p458
ag11
aVcome
p459
aVon
p460
ag11
aVhurry
p461
aVup
p462
aV!
p463
aaa(lp464
Vharold
p465
a(lp466
Vwhat
p467
aV's
p468
aVthe
p469
aVmatter
p470
aVwith
p471
aVyou
p472
ag140
ag463
ag12
aV'm
p473
aVtalking
p474
ag17
aVso
p475
ag11
aVjerry
p476
ag11
aVyou
p477
aVknow
p478
aVanyone
p479
aVwho
p480
aVneeds
p481
aVan
p482
aVapartment
p483
ag140
aaa(lp484
Vjerry
p485
a(lp486
Vare
p487
aVyou
p488
aVkidding
p489
ag140
aVyou
p490
aVknow
p491
aVmy
p492
aVfriend
p493
aVelaine
p494
ag140
aaa(lp495
Vharold
p496
a(lp497
Voh
p498
aVyeah
p499
ag11
ag12
aVlike
p500
aVher
p501
ag17
aVshe
p502
aValways
p503
aVsays
p504
aVhello
p505
aVto
p506
aVme
p507
ag17
aaa(lp508
Vjerry
p509
a(lp510
Vit
p511
aV's
p512
aVnot
p513
aVpromised
p514
aVto
p515
aVanybody
p516
ag140
aV'cause
p517
aVshe
p518
aVwould
p519
aVtake
p520
aVit
p521
aVin
p522
ag45
aVsecond
p523
ag17
aaa(lp524
Vharold
p525
a(lp526
Vwell
p527
ag11
aVmanny
p528
aVwanted
p529
aVit
p530
aVfor
p531
aVhis
p532
aVbrother
p533
ag11
aVbut
p534
aVhe
p535
aVgot
p536
aVdeported
p537
ag17
aVwhat
p538
aV's
p539
aVthe
p540
aVdifference
p541
ag140
aVit
p542
aV's
p543
aVtrue
p544
ag17
aaa(lp545
Vjerry
p546
a(lp547
Vso
p548
ag11
aVit
p549
aV's
p550
aVokay
p551
ag140
ag12
aVcould
p552
aVjust
p553
aVtell
p554
aVher
p555
aVshe
p556
aVcan
p557
aVhave
p558
aVit
p559
ag140
aaa(lp560
Vharold
p561
a(lp562
Vsure
p563
ag11
aVsure
p564
ag17
aVshe
p565
aV's
p566
aVgetting
p567
ag45
aVbargain
p568
ag11
aVtoo
p569
ag17
aVit
p570
aV's
p571
aVonly
p572
aVfour
p573
aVhundred
p574
aVdollars
p575
ag45
aVmonth
p576
ag17
aVokay
p577
aVokay
p578
ag17
aaa(lp579
Vkramer
p580
a(lp581
Vhey
p582
ag11
aVharold
p583
ag11
aVwhat
p584
aVdo
p585
aVyou
p586
aVthink
p587
ag140
aaa(lp588
Vharold
p589
a(lp590
Vmanny
p591
ag11
aVlook
p592
ag11
aVkramer
p593
aVput
p594
aVmousse
p595
aVin
p596
aVhis
p597
aVhair
p598
ag17
aaa(lp599
Vmanny
p600
a(lp601
Vit
p602
aVlooks
p603
aVworse
p604
ag17
aaa(lp605
Vkramer
p606
a(lp607
Vthanks
p608
ag17
aaa(lp609
Velaine
p610
a(lp611
Vwhat
p612
aVwas
p613
aVthat
p614
aVall
p615
aVabout
p616
ag140
aaa(lp617
Vjerry
p618
a(lp619
Voh
p620
ag11
aVnothing
p621
aVimportant
p622
ag17
aaa(lp623
Velaine
p624
a(lp625
Vwhat
p626
aV's
p627
aVgoing
p628
aVon
p629
ag140
aVwhat
p630
aVis
p631
aVthat
p632
aVlook
p633
ag140
aaa(lp634
Vjerry
p635
a(lp636
Vwhat
p637
aVlook
p638
ag140
aVnothing
p639
ag17
aaa(lp640
Velaine
p641
a(lp642
Vsomething
p643
aV's
p644
aVgoing
p645
aVon
p646
aVhere
p647
ag17
aaa(lp648
Vjerry
p649
a(lp650
g12
aVdo
p651
aVn't
p652
aVknow
p653
aVif
p654
aVyou
p655
aVshould
p656
aVsit
p657
aVfor
p658
aVthis
p659
aVor
p660
aVnot
p661
ag17
aVsitting
p662
aVis
p663
aVgood
p664
aVif
p665
aVyou
p666
aVfaint
p667
ag11
aVbut
p668
aVstanding
p669
aVis
p670
aVgood
p671
aVfor
p672
aVjumping
p673
aVup
p674
aVand
p675
aVdown
p676
ag12
aVca
p677
aVn't
p678
aVdecide
p679
ag17
aaa(lp680
Velaine
p681
a(lp682
Vjumping
p683
aVup
p684
aVand
p685
aVdown
p686
ag140
aVwhat
p687
aVare
p688
aVyou
p689
aVtalking
p690
aVabout
p691
ag140
aVc'mon
p692
ag17
aVcough
p693
aVit
p694
aVup
p695
ag17
aaa(lp696
Vjerry
p697
a(lp698
Voh
p699
ag11
aVelaine
p700
ag17
aVyou
p701
aVknow
p702
aVthe
p703
aVway
p704
ag12
aVam
p705
aV-
p706
aVrarely
p707
aVever
p708
aVthinking
p709
aVof
p710
aVmyself
p711
ag17
aVmy
p712
aVonly
p713
aVconcern
p714
aVis
p715
aVthe
p716
aVwelfare
p717
aVand
p718
aVhappiness
p719
aVof
p720
aVthose
p721
aVclose
p722
aVto
p723
aVme
p724
ag17
aVsure
p725
ag11
aVit
p726
aVhurts
p727
aVsometimes
p728
ag706
aVto
p729
aVgive
p730
ag11
aVand
p731
aVgive
p732
ag11
aVand
p733
aVgive
p734
aaa(lp735
Velaine
p736
a(lp737
Vwould
p738
aVyou
p739
aVplease
p740
ag140
aaa(lp741
Vjerry
p742
a(lp743
Vwhat
p744
aVwould
p745
aVyou
p746
aVsay
p747
aVif
p748
ag12
aVtold
p749
aVyou
p750
aVthat
p751
aaa(lp752
Velaine
p753
a(lp754
Vtold
p755
aVme
p756
aVwhat
p757
ag140
ag463
aaa(lp758
Vjerry
p759
a(lp760
g12
aVgot
p761
aVyou
p762
aVan
p763
aVapartment
p764
aVin
p765
aVthis
p766
aVbuilding
p767
ag17
aaa(lp768
Velaine
p769
a(lp770
Vno
p771
ag17
aaa(lp772
Vjerry
p773
a(lp774
Vyes
p775
ag17
aaa(lp776
Velaine
p777
a(lp778
Vno
p779
ag17
aaa(lp780
Vjerry
p781
a(lp782
Vyes
p783
ag17
aaa(lp784
Velaine
p785
a(lp786
Vyou
p787
aVdid
p788
aVn't
p789
ag17
aaa(lp790
Vjerry
p791
a(lp792
g12
aVdid
p793
ag17
aaa(lp794
Velaine
p795
a(lp796
Vyou
p797
aVgot
p798
aVme
p799
aVan
p800
aVapartment
p801
aVin
p802
aVthe
p803
aVbuilding
p804
ag140
ag463
aaa(lp805
Vjerry
p806
a(lp807
g12
aVgot
p808
aVyou
p809
aVan
p810
aVapartment
p811
aVin
p812
aVthe
p813
aVbuilding
p814
ag17
aaa(lp815
Velaine
p816
a(lp817
Vhow
p818
aVdid
p819
aVyou
p820
aaa(lp821
Vjerry
p822
a(lp823
Vremember
p824
aVmrs.
p825
aVhudwalker
p826
ag140
aVthe
p827
aVninety-four-year-old
p828
aVwoman
p829
aVwho
p830
aVlived
p831
aVabove
p832
aVme
p833
ag140
aaa(lp834
Velaine
p835
a(lp836
Vno
p837
ag17
aaa(lp838
Vjerry
p839
a(lp840
Vshe
p841
aVdied
p842
ag17
aaa(lp843
Velaine
p844
a(lp845
Vshe
p846
aVdied
p847
ag140
ag463
aaa(lp848
Vjerry
p849
a(lp850
Vshe
p851
aVdied
p852
ag17
aaa(lp853
Velaine
p854
a(lp855
Vshe
p856
aVdied
p857
ag463
aaa(lp858
Vjerry
p859
a(lp860
Vand
p861
aVthe
p862
aVrent
p863
aV's
p864
aVonly
p865
aVfour
p866
aVhundred
p867
aVdollars
p868
ag45
aVmonth
p869
ag463
aaa(lp870
Velaine
p871
a(lp872
Vget
p873
aVout
p874
ag463
aVfour
p875
aVhundred
p876
ag45
aVmonth
p877
ag140
aVonly
p878
aVfour
p879
aVhundred
p880
ag45
aVmonth
p881
ag140
ag463
aaa(lp882
Vjerry
p883
a(lp884
Vfour
p885
aVhundred
p886
ag45
aVmonth
p887
ag17
aaa(lp888
Velaine
p889
a(lp890
Vand
p891
ag12
aV'll
p892
aVbe
p893
aVright
p894
aVupstairs
p895
ag140
aaa(lp896
Vjerry
p897
a(lp898
Vright
p899
aVupstairs
p900
ag17
aaa(lp901
Velaine
p902
a(lp903
Vright
p904
aVabove
p905
aVyou
p906
ag140
aaa(lp907
Vjerry
p908
a(lp909
Vright
p910
aVabove
p911
aVme
p912
ag17
aaa(lp913
Velaine
p914
a(lp915
Voh
p916
ag11
aVwe
p917
aV're
p918
aVneighbors
p919
ag17
ag12
aV'll
p920
aVbe
p921
aVhere
p922
aVall
p923
aVthe
p924
aVtime
p925
ag463
aaa(lp926
Vjerry
p927
a(lp928
Vall
p929
aVthe
p930
aVtime
p931
aaa(lp932
Velaine
p933
a(lp934
Vwe
p935
aVcan
p936
aVexchange
p937
aVkeys
p938
aVso
p939
aVwe
p940
aVcan
p941
aVcome
p942
aVin
p943
aVand
p944
aVout
p945
ag17
aVoh
p946
ag11
aVthis
p947
aVis
p948
aVgoing
p949
aVto
p950
aVbe
p951
aVgreat
p952
ag463
aaa(lp953
Vjerry
p954
a(lp955
Vall
p956
aVthe
p957
aVtime
p958
aaa(lp959
Vjerry
p960
a(lp961
Vthe
p962
aVproblem
p963
aVwith
p964
aVtalking
p965
aVis
p966
aVthat
p967
aVnobody
p968
aVstops
p969
aVyou
p970
aVfrom
p971
aVsaying
p972
aVthe
p973
aVwrong
p974
aVthing
p975
ag17
ag12
aVthink
p976
aVlife
p977
aVwould
p978
aVbe
p979
ag45
aVlot
p980
aVbetter
p981
aVif
p982
aVit
p983
aVwas
p984
aVlike
p985
aVyou
p986
aV're
p987
aValways
p988
aVmaking
p989
ag45
aVmovie
p990
ag17
aVyou
p991
aVmess
p992
aVup
p993
ag11
aVsomebody
p994
aVjust
p995
aVwalks
p996
aVon
p997
aVthe
p998
aVset
p999
ag11
aVand
p1000
aVstops
p1001
aVthe
p1002
aVwhole
p1003
aVshot
p1004
ag17
aVyou
p1005
aVknow
p1006
aVwhat
p1007
ag12
aVmean
p1008
ag140
aVthink
p1009
aVof
p1010
aVthe
p1011
aVthings
p1012
aVyou
p1013
aVwish
p1014
aVyou
p1015
aVcould
p1016
aVtake
p1017
aVback
p1018
ag17
aVyou
p1019
aV're
p1020
aVout
p1021
aVsomewhere
p1022
aVwith
p1023
aVpeople
p1024
ag11
aVgee
p1025
ag11
aVyou
p1026
aVlook
p1027
aVpregnant
p1028
aVare
p1029
aVya
p1030
ag140
aVcut
p1031
ag11
aVcut
p1032
ag11
aVcut
p1033
ag11
aVcut
p1034
ag11
aVcut
p1035
ag11
aVthat
p1036
aV's
p1037
aVnot
p1038
aVgon
p1039
aVna
p1040
aVwork
p1041
aVat
p1042
aVall
p1043
ag17
aVwalk
p1044
aVout
p1045
aVthe
p1046
aVdoor
p1047
ag11
aVand
p1048
aVcome
p1049
aVback
p1050
aVin
p1051
ag17
aVlet
p1052
aV's
p1053
aVtake
p1054
aVthis
p1055
aVwhole
p1056
aVscene
p1057
aVagain
p1058
ag17
aVpeople
p1059
ag11
aVthink
p1060
aVabout
p1061
aVwhat
p1062
aVyou
p1063
aV're
p1064
aVsaying
p1065
ag463
aaa(lp1066
Vgeorge
p1067
a(lp1068
Vthanks
p1069
ag11
aVsee
p1070
aVya
p1071
aVlater
p1072
ag11
aVdonna
p1073
ag17
aVwhat
p1074
aVhappened
p1075
aVto
p1076
aVyou
p1077
ag140
aaa(lp1078
Vjerry
p1079
a(lp1080
Vyou
p1081
aVca
p1082
aVn't
p1083
aVbelieve
p1084
aVwhat
p1085
ag12
aVjust
p1086
aVdid
p1087
ag17
aaa(lp1088
Vgeorge
p1089
a(lp1090
Vwhat
p1091
ag140
aVwhat
p1092
aVdid
p1093
aVyou
p1094
aVdo
p1095
ag140
aaa(lp1096
Vjerry
p1097
a(lp1098
g12
aVcould
p1099
aVtell
p1100
aVyou
p1101
aVwhat
p1102
ag12
aVdid
p1103
ag11
aVbut
p1104
aVyou
p1105
aVwould
p1106
aVn't
p1107
aVbelieve
p1108
aVit
p1109
ag17
aVit
p1110
aV's
p1111
aVnot
p1112
aVbelievable
p1113
ag17
aaa(lp1114
Vgeorge
p1115
a(lp1116
Vwhat
p1117
aVdid
p1118
aVyou
p1119
aVdo
p1120
ag140
aaa(lp1121
Vjerry
p1122
a(lp1123
Vhow
p1124
aVcould
p1125
ag12
aVhave
p1126
aVdone
p1127
aVthat
p1128
ag140
aaa(lp1129
Vgeorge
p1130
a(lp1131
Vdone
p1132
aVwhat
p1133
ag140
aaa(lp1134
Vjerry
p1135
a(lp1136
g12
aVtold
p1137
aVelaine
p1138
aVabout
p1139
aVan
p1140
aVapartment
p1141
aVopening
p1142
aVup
p1143
aVin
p1144
aVmy
p1145
aVbuilding
p1146
ag17
aVshe
p1147
aV's
p1148
aVgoing
p1149
aVto
p1150
aVmove
p1151
aVin
p1152
ag17
aaa(lp1153
Vgeorge
p1154
a(lp1155
Velaine
p1156
aV's
p1157
aVmoving
p1158
aVinto
p1159
aVyour
p1160
aVbuilding
p1161
ag140
aaa(lp1162
Vjerry
p1163
a(lp1164
Vyes
p1165
ag17
aVright
p1166
aVabove
p1167
aVme
p1168
ag17
aaa(lp1169
Vgeorge
p1170
a(lp1171
Vright
p1172
aVabove
p1173
aVyou
p1174
ag140
aaa(lp1175
Vjerry
p1176
a(lp1177
Vyes
p1178
ag17
aaa(lp1179
Vgeorge
p1180
a(lp1181
Vyou
p1182
aV're
p1183
aVgon
p1184
aVna
p1185
aVbe
p1186
aVneighbors
p1187
ag17
aaa(lp1188
Vjerry
p1189
a(lp1190
g12
aVknow
p1191
ag17
aVneighbors
p1192
ag17
aaa(lp1193
Vgeorge
p1194
a(lp1195
Vshe
p1196
aV's
p1197
aVright
p1198
aVabove
p1199
aVyou
p1200
ag140
aaa(lp1201
Vjerry
p1202
a(lp1203
Vright
p1204
aVabove
p1205
aVme
p1206
ag17
aaa(lp1207
Vgeorge
p1208
a(lp1209
Vhow
p1210
aVcould
p1211
aVyou
p1212
aVdo
p1213
aVthat
p1214
ag140
aaa(lp1215
Vjerry
p1216
a(lp1217
V'cause
p1218
ag12
aV'm
p1219
aVan
p1220
aVidiot
p1221
ag463
aVyou
p1222
aVmay
p1223
aVthink
p1224
aVyou
p1225
aV're
p1226
aVan
p1227
aVidiot
p1228
ag11
aVbut
p1229
aVwith
p1230
aVall
p1231
aVdue
p1232
aVrespect
p1233
ag706
ag12
aV'm
p1234
ag45
aVmuch
p1235
aVbigger
p1236
aVidiot
p1237
aVthan
p1238
aVyou
p1239
aVare
p1240
ag17
aaa(lp1241
Vgeorge
p1242
a(lp1243
Vdo
p1244
aVn't
p1245
aVinsult
p1246
aVme
p1247
ag11
aVmy
p1248
aVfriend
p1249
ag17
aVremember
p1250
aVwho
p1251
aVyou
p1252
aV're
p1253
aVtalking
p1254
aVto
p1255
ag17
aVno
p1256
aVone
p1257
aV's
p1258
ag45
aVbigger
p1259
aVidiot
p1260
aVthan
p1261
aVme
p1262
ag17
aaa(lp1263
Vjerry
p1264
a(lp1265
Vdid
p1266
aVyou
p1267
aVever
p1268
aVask
p1269
aVan
p1270
aVex-girlfriend
p1271
aVto
p1272
aVmove
p1273
aVinto
p1274
aVyour
p1275
aVbuilding
p1276
ag140
aaa(lp1277
Vgeorge
p1278
a(lp1279
Vdid
p1280
aVyou
p1281
aVever
p1282
aVgo
p1283
aVto
p1284
ag45
aVsingles
p1285
aVweekend
p1286
aVin
p1287
aVthe
p1288
aVpoconos
p1289
ag140
aaa(lp1290
Vjerry
p1291
a(lp1292
Vshe
p1293
aV's
p1294
aVright
p1295
aVin
p1296
aVmy
p1297
aVbuilding
p1298
ag463
aVright
p1299
aVabove
p1300
aVme
p1301
ag463
aVevery
p1302
aVtime
p1303
ag12
aVcome
p1304
aVin
p1305
aVthe
p1306
aVbuilding
p1307
ag11
ag12
aV'm
p1308
aVgon
p1309
aVna
p1310
aVhave
p1311
aVto
p1312
aVsneak
p1313
aVaround
p1314
aVlike
p1315
ag45
aVcat
p1316
aVburglar
p1317
ag17
aaa(lp1318
Vgeorge
p1319
a(lp1320
Vyou
p1321
aV're
p1322
aVdoomed
p1323
ag17
aVyou
p1324
aV're
p1325
aVgon
p1326
aVna
p1327
aVhave
p1328
aVto
p1329
aVhave
p1330
aVall
p1331
aVyour
p1332
aVsex
p1333
aVat
p1334
aVwomen
p1335
aV's
p1336
aVapartments
p1337
ag17
aVit
p1338
aV'll
p1339
aVbe
p1340
aVlike
p1341
ag45
aVpermanent
p1342
aVroad
p1343
aVtrip
p1344
ag17
aVforget
p1345
aVabout
p1346
aVthe
p1347
aVhome
p1348
aVbed
p1349
aVadvantage
p1350
ag17
aaa(lp1351
Vjerry
p1352
a(lp1353
Vbut
p1354
ag12
aVneed
p1355
aVthe
p1356
aVhome
p1357
aVbed
p1358
aVadvantage
p1359
ag463
aaa(lp1360
Vgeorge
p1361
a(lp1362
Vof
p1363
aVcourse
p1364
ag11
aVwe
p1365
aVall
p1366
aVdo
p1367
ag17
aaa(lp1368
Vjerry
p1369
a(lp1370
Vcome
p1371
aVin
p1372
aVfor
p1373
aVtwo
p1374
aVminutes
p1375
aVand
p1376
aVsit
p1377
aVwith
p1378
aVme
p1379
ag17
aaa(lp1380
Vgeorge
p1381
a(lp1382
g12
aVwas
p1383
aVjust
p1384
aVin
p1385
aVthere
p1386
ag17
aVit
p1387
aV's
p1388
aVembarrassing
p1389
ag17
aaa(lp1390
Vjerry
p1391
a(lp1392
Voh
p1393
ag11
aVwho
p1394
aV's
p1395
aVgon
p1396
aVna
p1397
aVknow
p1398
ag140
aaa(lp1399
Vgeorge
p1400
a(lp1401
Vthey
p1402
aVsaw
p1403
aVme
p1404
aVwalk
p1405
aVout
p1406
ag17
aaa(lp1407
Vjerry
p1408
a(lp1409
Vtwo
p1410
aVminutes
p1411
ag17
aaa(lp1412
Vjerry
p1413
a(lp1414
Vmy
p1415
aVcensoring
p1416
aVsystem
p1417
aVbroke
p1418
aVdown
p1419
ag17
aVyou
p1420
aVknow
p1421
aVthat
p1422
aVlittle
p1423
aVguy
p1424
aVin
p1425
aVyour
p1426
aVhead
p1427
aVwho
p1428
aVwatches
p1429
aVeverything
p1430
aVyou
p1431
aVsay
p1432
ag140
aVmakes
p1433
aVsure
p1434
aVyou
p1435
aVdo
p1436
aVn't
p1437
aVmake
p1438
ag45
aVmistake
p1439
ag140
aVhe
p1440
aVwent
p1441
aVfor
p1442
ag45
aVcup
p1443
aVof
p1444
aVcoffee
p1445
ag11
aVand
p1446
aVin
p1447
aVthat
p1448
aVsecond
p1449
ag706
aVruined
p1450
aVmy
p1451
aVlife
p1452
ag17
aaa(lp1453
Vgeorge
p1454
a(lp1455
Vmy
p1456
aVcensor
p1457
aVquit
p1458
aVtwo
p1459
aVyears
p1460
aVago
p1461
ag17
aVhe
p1462
aVchecked
p1463
aVinto
p1464
ag45
aVclinic
p1465
ag17
aVemotionally
p1466
aVexhausted
p1467
ag17
aaa(lp1468
Vjerry
p1469
a(lp1470
Vso
p1471
ag11
aVis
p1472
aVthere
p1473
aVany
p1474
aVway
p1475
aVout
p1476
aVof
p1477
aVthis
p1478
aVelaine
p1479
aVthing
p1480
ag140
aaa(lp1481
Vgeorge
p1482
a(lp1483
Vtough
p1484
ag17
aaa(lp1485
Vjerry
p1486
a(lp1487
Vyou
p1488
aVknow
p1489
ag11
aVthe
p1490
aVwater
p1491
aVpressure
p1492
aV's
p1493
aVterrible
p1494
aVin
p1495
aVmy
p1496
aVbuilding
p1497
aVand
p1498
aVshe
p1499
aVloves
p1500
ag45
aVgood
p1501
aVshower
p1502
ag17
aaa(lp1503
Vgeorge
p1504
a(lp1505
g12
aVdo
p1506
aVn't
p1507
aVthink
p1508
aVanyone
p1509
aV's
p1510
aVturned
p1511
aVdown
p1512
aVan
p1513
aVapartment
p1514
aVbecause
p1515
aVof
p1516
ag45
aVweak
p1517
aVshower
p1518
aVspray
p1519
ag17
aaa(lp1520
Vjerry
p1521
a(lp1522
Vif
p1523
aVthey
p1524
aVwere
p1525
aVfanatic
p1526
aVabout
p1527
aVshowers
p1528
ag11
aVthey
p1529
aVmight
p1530
ag17
aaa(lp1531
Vgeorge
p1532
a(lp1533
Vfor
p1534
aVthat
p1535
aVrent
p1536
ag11
aVshe
p1537
aV'd
p1538
aVtake
p1539
ag45
aVbath
p1540
aVin
p1541
aVthe
p1542
aVtoilet
p1543
aVtank
p1544
aVif
p1545
aVshe
p1546
aVhad
p1547
aVto
p1548
aaa(lp1549
Vjerry
p1550
a(lp1551
Vlook
p1552
aVat
p1553
aVthat
p1554
aVwoman
p1555
aVfeeding
p1556
aVher
p1557
aVbaby
p1558
aVgreasy
p1559
ag11
aVdisgusting
p1560
ag11
aVcoffee
p1561
aVshop
p1562
aVcorned
p1563
aVbeef
p1564
aVhash
p1565
ag17
aVis
p1566
aVn't
p1567
aVthat
p1568
aVchild
p1569
aVabuse
p1570
ag140
aaa(lp1571
Vgeorge
p1572
a(lp1573
g12
aV'd
p1574
aVlike
p1575
aVto
p1576
aVhave
p1577
ag45
aVkid
p1578
ag17
aVof
p1579
aVcourse
p1580
ag11
aVyou
p1581
aVhave
p1582
aVto
p1583
aVhave
p1584
ag45
aVdate
p1585
aVfirst
p1586
aVremember
p1587
aVmy
p1588
aVfriend
p1589
ag11
aVadam
p1590
ag11
aVfrom
p1591
aVdetroit
p1592
ag140
aaa(lp1593
Vjerry
p1594
a(lp1595
Vyeah
p1596
ag11
aVthe
p1597
aVguy
p1598
aVwith
p1599
aVthe
p1600
aVflat
p1601
aVhead
p1602
ag140
aaa(lp1603
Vgeorge
p1604
a(lp1605
Vhe
p1606
aV's
p1607
ag45
aVcube
p1608
aVanyway
p1609
ag11
aVhe
p1610
aVgot
p1611
aVmarried
p1612
aVsix
p1613
aVmonths
p1614
aVago
p1615
ag17
aVhe
p1616
aVtold
p1617
aVme
p1618
aVever
p1619
aVsince
p1620
aVhe
p1621
aV's
p1622
aVbeen
p1623
aVwearing
p1624
ag45
aVwedding
p1625
aVband
p1626
ag11
aVwomen
p1627
aVhave
p1628
aVbeen
p1629
aVcoming
p1630
aVon
p1631
aVto
p1632
aVhim
p1633
aVeverywhere
p1634
aVhe
p1635
aVgoes
p1636
ag17
aaa(lp1637
Vjerry
p1638
a(lp1639
Vyeah
p1640
ag11
ag12
aV've
p1641
aVheard
p1642
aVthat
p1643
aVabout
p1644
aVwedding
p1645
aVbands
p1646
ag17
aaa(lp1647
Vgeorge
p1648
a(lp1649
g12
aVwonder
p1650
aVif
p1651
aVthat
p1652
aV's
p1653
aVreally
p1654
aVtrue
p1655
ag17
aaa(lp1656
Vjerry
p1657
a(lp1658
Vthat
p1659
aVwould
p1660
aVbe
p1661
aVan
p1662
aVinteresting
p1663
aVsociological
p1664
aVexperiment
p1665
ag17
aVyou
p1666
aVknow
p1667
ag11
aVkramer
p1668
aVhas
p1669
aVhis
p1670
aVfather
p1671
aV's
p1672
aVband
p1673
ag17
aVhe
p1674
aV'd
p1675
aVloan
p1676
aVit
p1677
aVto
p1678
aVyou
p1679
ag17
aaa(lp1680
Vgeorge
p1681
a(lp1682
Vthanks
p1683
ag45
aVlot
p1684
ag17
ag12
aVll
p1685
aVgive
p1686
aVit
p1687
aVback
p1688
aVto
p1689
aVyou
p1690
aVin
p1691
ag45
aVweek
p1692
ag17
aaa(lp1693
Vkramer
p1694
a(lp1695
Vyou
p1696
aVknow
p1697
ag11
ag12
aVdo
p1698
aVn't
p1699
aVeven
p1700
aVknow
p1701
aVwhy
p1702
aVyou
p1703
aV're
p1704
aVfooling
p1705
aVaround
p1706
aVwith
p1707
aVthis
p1708
aVring
p1709
ag17
ag12
aV've
p1710
aVbeen
p1711
aVtelling
p1712
aVyou
p1713
ag11
aVget
p1714
aVyourself
p1715
aVsome
p1716
aVplugs
p1717
ag11
aVor
p1718
ag45
aVpiece
p1719
ag17
aaa(lp1720
Vgeorge
p1721
a(lp1722
g12
aV'm
p1723
aVnot
p1724
aVdoing
p1725
aVthat
p1726
ag17
aaa(lp1727
Vkramer
p1728
a(lp1729
Voh
p1730
ag11
aVman
p1731
ag17
aVyou
p1732
aVknow
p1733
ag11
aVyou
p1734
aV're
p1735
aVcrazy
p1736
ag17
aVyou
p1737
aV're
p1738
ag45
aVgood
p1739
aVlooking
p1740
aVguy
p1741
ag17
aVwhat
p1742
aVdo
p1743
aVyou
p1744
aVwant
p1745
aVto
p1746
aVwalk
p1747
aVaround
p1748
aVlike
p1749
aVthat
p1750
aVfor
p1751
ag140
aaa(lp1752
Vgeorge
p1753
a(lp1754
Vno
p1755
ag11
ag12
aV'll
p1756
aVput
p1757
aVhalf
p1758
ag45
aVcan
p1759
aVof
p1760
aVmousse
p1761
aVin
p1762
aVmy
p1763
aVhead
p1764
aVlike
p1765
aVyou
p1766
ag17
aaa(lp1767
Vharold
p1768
a(lp1769
g12
aVtold
p1770
aVyou
p1771
ag12
aVdo
p1772
aVn't
p1773
aVlike
p1774
aVthese
p1775
aVsponges
p1776
ag11
aVthey
p1777
aV're
p1778
aVtoo
p1779
aVsmall
p1780
ag463
ag12
aVwant
p1781
ag45
aVbig
p1782
aVsponge
p1783
ag463
aVyou
p1784
aVca
p1785
aVn't
p1786
aVpick
p1787
aVup
p1788
aVanything
p1789
aVwith
p1790
aVthese
p1791
ag463
aVthere
p1792
aV's
p1793
aVno
p1794
aVabsorption
p1795
ag463
aaa(lp1796
Vjerry
p1797
a(lp1798
Vboys
p1799
ag11
aVboys
p1800
ag17
aaa(lp1801
Vharold
p1802
a(lp1803
Vhi
p1804
ag11
aVjerry
p1805
ag17
aaa(lp1806
Vharold
p1807
a(lp1808
Vhello
p1809
ag11
aVjerry
p1810
ag17
aaa(lp1811
Vharold
p1812
a(lp1813
Vokay
p1814
aVyour
p1815
aVfriend
p1816
aVca
p1817
aVn't
p1818
aVhave
p1819
aVthe
p1820
aVapartment
p1821
ag11
aVjerry
p1822
ag17
aaa(lp1823
Vjerry
p1824
a(lp1825
Vwhat
p1826
ag140
aaa(lp1827
Vharold
p1828
a(lp1829
Vbecause
p1830
aVsomebody
p1831
aVoffered
p1832
aVmanny
p1833
aVfive
p1834
aVthousand
p1835
aVdollars
p1836
aVfor
p1837
aVthe
p1838
aVapartment
p1839
ag17
ag12
aVdo
p1840
aVn't
p1841
aVwant
p1842
aVto
p1843
aVdo
p1844
aVit
p1845
ag17
aVmanny
p1846
aVwants
p1847
aVto
p1848
aVdo
p1849
aVit
p1850
ag17
aVbecause
p1851
aVit
p1852
aV's
p1853
aVtrue
p1854
ag463
aVwhy
p1855
aVshould
p1856
aVn't
p1857
ag12
aVtell
p1858
aVhim
p1859
ag140
aaa(lp1860
Vjerry
p1861
a(lp1862
Vhey
p1863
ag11
aVhey
p1864
ag17
ag12
aVunderstand
p1865
ag17
aVyou
p1866
aV're
p1867
aVbusinessmen
p1868
ag17
aaa(lp1869
Vharold
p1870
a(lp1871
Voh
p1872
ag11
aVnow
p1873
ag11
aVhe
p1874
aVsays
p1875
aVthat
p1876
aVif
p1877
aVyour
p1878
aVfriend
p1879
aVhas
p1880
aVfive
p1881
aVthousand
p1882
aVdollars
p1883
ag11
aVwe
p1884
aV'll
p1885
aVgive
p1886
aVit
p1887
aVto
p1888
aVher
p1889
ag17
aaa(lp1890
Vjerry
p1891
a(lp1892
Vwell
p1893
ag11
aVthat
p1894
aV's
p1895
ag45
aVlot
p1896
aVof
p1897
aVmoney
p1898
ag17
aVbut
p1899
ag11
aVif
p1900
aVthat
p1901
aV's
p1902
aVthe
p1903
aVway
p1904
aVit
p1905
aV's
p1906
aVgot
p1907
aVta
p1908
aVbe
p1909
ag11
aVthat
p1910
aV's
p1911
aVthe
p1912
aVway
p1913
aVit
p1914
aV's
p1915
aVgot
p1916
aVta
p1917
aVbe
p1918
ag17
aVyou
p1919
aVknow
p1920
ag11
ag12
aVused
p1921
aVto
p1922
aVthink
p1923
aVthat
p1924
aVthe
p1925
aVuniverse
p1926
aVis
p1927
ag45
aVrandom
p1928
ag11
aVchaotic
p1929
ag11
aVsequence
p1930
aVof
p1931
aVmeaningless
p1932
aVevents
p1933
ag11
aVbut
p1934
ag12
aVsee
p1935
aVnow
p1936
aVthat
p1937
aVthere
p1938
aVis
p1939
aVreason
p1940
aVand
p1941
aVpurpose
p1942
aVto
p1943
aVall
p1944
aVthings
p1945
ag17
aaa(lp1946
Vgeorge
p1947
a(lp1948
Vwhat
p1949
aVhappened
p1950
aVto
p1951
aVyou
p1952
ag140
aaa(lp1953
Vjerry
p1954
a(lp1955
Vreligion
p1956
ag11
aVmy
p1957
aVfriend
p1958
ag11
aVthat
p1959
aV's
p1960
aVwhat
p1961
aVhappened
p1962
aVto
p1963
aVme
p1964
ag17
aVbecause
p1965
ag11
ag12
aVhave
p1966
aVjust
p1967
aVbeen
p1968
aVinformed
p1969
aVthat
p1970
aVit
p1971
aV's
p1972
aVgoing
p1973
aVto
p1974
aVcost
p1975
aVelaine
p1976
aVthe
p1977
aVsum
p1978
aVof
p1979
aVfive
p1980
aVthousand
p1981
aVdollars
p1982
aVto
p1983
aVget
p1984
aVthe
p1985
aVapartment
p1986
aVupstairs
p1987
ag17
aaa(lp1988
Vgeorge
p1989
a(lp1990
Vfive
p1991
aVthousand
p1992
aVdollars
p1993
ag140
aVshe
p1994
aVdoes
p1995
aVn't
p1996
aVhave
p1997
aVfive
p1998
aVthousand
p1999
aVdollars
p2000
ag463
aaa(lp2001
Vjerry
p2002
a(lp2003
Vof
p2004
aVcourse
p2005
aVshe
p2006
aVdoes
p2007
aVn't
p2008
aVhave
p2009
aVfive
p2010
aVthousand
p2011
aVdollars
p2012
ag463
aaa(lp2013
Vgeorge
p2014
a(lp2015
Vso
p2016
ag11
aVshe
p2017
aVca
p2018
aVn't
p2019
aVget
p2020
aVthe
p2021
aVapartment
p2022
ag17
aaa(lp2023
Vjerry
p2024
a(lp2025
Vca
p2026
aVn't
p2027
aVget
p2028
aVit
p2029
ag17
aaa(lp2030
Vgeorge
p2031
a(lp2032
Vso
p2033
ag11
aVshe
p2034
aVdoes
p2035
aVn't
p2036
aVmove
p2037
aVin
p2038
ag17
aaa(lp2039
Vjerry
p2040
a(lp2041
Vno
p2042
aVmove
p2043
ag17
aVso
p2044
ag11
aVyou
p2045
aVsee
p2046
ag11
aVit
p2047
aV's
p2048
aVall
p2049
aVpart
p2050
aVof
p2051
ag45
aVdivine
p2052
aVplan
p2053
ag17
aaa(lp2054
Vgeorge
p2055
a(lp2056
Vand
p2057
aVhow
p2058
aVdoes
p2059
aVthe
p2060
aVbaldness
p2061
aVfit
p2062
aVinto
p2063
aVthat
p2064
aVplan
p2065
ag140
aaa(lp2066
Vjerry
p2067
a(lp2068
Velaine
p2069
ag140
aaa(lp2070
Velaine
p2071
a(lp2072
Vyeah
p2073
ag17
aaa(lp2074
Vjerry
p2075
a(lp2076
Valright
p2077
ag11
aVthis
p2078
aVis
p2079
aVgoing
p2080
aVto
p2081
aVrequire
p2082
aVsome
p2083
aVgreat
p2084
aVacting
p2085
aVnow
p2086
ag17
ag12
aVhave
p2087
aVto
p2088
aVpretend
p2089
ag12
aV'm
p2090
aVdisappointed
p2091
ag17
aVyou
p2092
aV're
p2093
aVgoing
p2094
aVto
p2095
aVreally
p2096
aVsee
p2097
aVme
p2098
aVbeing
p2099
ag45
aVphony
p2100
ag11
aVnow
p2101
ag17
ag12
aVhope
p2102
aVyou
p2103
aVcan
p2104
aVtake
p2105
aVthis
p2106
aVmaybe
p2107
aVyou
p2108
aVshould
p2109
aVgo
p2110
aVin
p2111
aVthe
p2112
aVother
p2113
aVroom
p2114
ag17
aaa(lp2115
Vgeorge
p2116
a(lp2117
Vare
p2118
aVyou
p2119
aVkidding
p2120
ag140
ag463
ag12
aVlie
p2121
aVever
p2122
aVsecond
p2123
aVof
p2124
aVthe
p2125
aVday
p2126
ag17
aVmy
p2127
aVwhole
p2128
aVlife
p2129
aVis
p2130
ag45
aVsham
p2131
ag463
aaa(lp2132
Vjerry
p2133
a(lp2134
V'cause
p2135
aVyou
p2136
aVknow
p2137
ag11
ag12
aVlove
p2138
aVelaine
p2139
ag17
aaa(lp2140
Vgeorge
p2141
a(lp2142
Vof
p2143
aVcourse
p2144
aVyou
p2145
aVdo
p2146
ag17
aaa(lp2147
Vjerry
p2148
a(lp2149
Vbut
p2150
aVyou
p2151
aVknow
p2152
aVnot
p2153
aVin
p2154
aVthe
p2155
aVbuilding
p2156
ag17
aVreally
p2157
ag11
ag12
aVfeel
p2158
aVterrible
p2159
aVabout
p2160
aVthis
p2161
ag17
aVmy
p2162
aVintentions
p2163
aVwere
p2164
aVgood
p2165
ag17
aVwhat
p2166
aVcan
p2167
ag12
aVdo
p2168
ag140
aVtell
p2169
aVme
p2170
aVno
p2171
ag11
ag12
aV'll
p2172
aVbe
p2173
aVseeing
p2174
aVyou
p2175
ag17
aVgood
p2176
aVmorning
p2177
ag11
aVgood
p2178
aVmorning
p2179
aVhave
p2180
aVyou
p2181
aVever
p2182
aVgotten
p2183
aVup
p2184
aVin
p2185
aVthe
p2186
aVmorning
p2187
aVand
p2188
aVfelt
p2189
aVit
p2190
aV's
p2191
aVgreat
p2192
aVto
p2193
aVbe
p2194
aValive
p2195
ag140
aVthat
p2196
aVevery
p2197
aVbreath
p2198
aVis
p2199
ag45
aVgift
p2200
aVof
p2201
aVsweet
p2202
aVlife
p2203
aVfrom
p2204
aVabove
p2205
ag140
aVoh
p2206
ag11
aVand
p2207
aVbefore
p2208
ag12
aVforget
p2209
ag11
ag12
aVhave
p2210
aVthe
p2211
aVchecks
p2212
aVfor
p2213
aVfirst
p2214
aVmonth
p2215
ag11
aVlast
p2216
aVmonth
p2217
ag11
aVsecurity
p2218
aVdeposit
p2219
ag17
ag12
aVhave
p2220
aVseventy-five
p2221
aVdollars
p2222
aVleft
p2223
aVin
p2224
aVmy
p2225
aVaccount
p2226
ag17
aaa(lp2227
Vjerry
p2228
a(lp2229
Vwell
p2230
aVthere
p2231
aV's
p2232
ag45
aVlittle
p2233
aVbit
p2234
aVof
p2235
ag45
aVproblem
p2236
ag17
aaa(lp2237
Velaine
p2238
a(lp2239
Voh
p2240
ag11
ag12
aVknow
p2241
ag17
aVthere
p2242
aV's
p2243
ag45
aVweak
p2244
aVshower
p2245
aVspray
p2246
ag11
ag12
aVknow
p2247
ag17
ag12
aV've
p2248
aValready
p2249
aVthought
p2250
aVabout
p2251
aVit
p2252
ag11
aVand
p2253
ag12
aV'm
p2254
aVswitching
p2255
aVto
p2256
aVbaths
p2257
ag17
aVas
p2258
aVwinston
p2259
aVchurchill
p2260
aVsaid
p2261
ag11
aVwhy
p2262
aVstand
p2263
aVwhen
p2264
aVyou
p2265
aVcan
p2266
aVsit
p2267
ag140
aVmaybe
p2268
ag12
aV'll
p2269
aVget
p2270
aVsome
p2271
aVrubber
p2272
aVduckies
p2273
aaa(lp2274
Vjerry
p2275
a(lp2276
Vno
p2277
ag11
aVsomeone
p2278
aVoffered
p2279
aVharold
p2280
aVand
p2281
aVmanny
p2282
aVfive
p2283
aVthousand
p2284
aVfor
p2285
aVthe
p2286
aVapartment
p2287
ag17
ag12
aV'm
p2288
aVsure
p2289
aVthey
p2290
aV'd
p2291
aVjust
p2292
aVas
p2293
aVsoon
p2294
aVgive
p2295
aVit
p2296
aVto
p2297
aVyou
p2298
ag11
aVbut
p2299
aVyou
p2300
aV'd
p2301
aVhave
p2302
aVto
p2303
aVcome
p2304
aVup
p2305
aVwith
p2306
aVthat
p2307
aVmoney
p2308
ag17
aaa(lp2309
Velaine
p2310
a(lp2311
Vfive
p2312
aVthousand
p2313
aVdollars
p2314
ag140
ag12
aVdo
p2315
aVn't
p2316
aVhave
p2317
aVfive
p2318
aVthousand
p2319
aVdollars
p2320
ag17
aaa(lp2321
Vjerry
p2322
a(lp2323
g12
aVknow
p2324
ag17
aaa(lp2325
Velaine
p2326
a(lp2327
Vhow
p2328
aVam
p2329
ag12
aVgoing
p2330
aVto
p2331
aVget
p2332
aVfive
p2333
aVthousand
p2334
aVdollars
p2335
ag140
aaa(lp2336
Vjerry
p2337
a(lp2338
g12
aVhave
p2339
aVno
p2340
aVidea
p2341
ag17
aaa(lp2342
Vkramer
p2343
a(lp2344
Vhey
p2345
ag11
aVmy
p2346
aVnew
p2347
aVneighbor
p2348
ag463
aaa(lp2349
Velaine
p2350
a(lp2351
g12
aV'm
p2352
aVnot
p2353
aVmoving
p2354
aVin
p2355
ag17
aaa(lp2356
Vkramer
p2357
a(lp2358
Vwhat
p2359
ag140
aaa(lp2360
Velaine
p2361
a(lp2362
Vthey
p2363
aVwant
p2364
aVfive
p2365
aVthousand
p2366
aVdollars
p2367
aVnow
p2368
ag17
aaa(lp2369
Vkramer
p2370
a(lp2371
Vso
p2372
ag11
aVokay
p2373
ag17
aVwhat
p2374
aV's
p2375
aVthe
p2376
aVproblem
p2377
ag140
aaa(lp2378
Velaine
p2379
a(lp2380
g12
aVdo
p2381
aVn't
p2382
aVhave
p2383
aVfive
p2384
aVthousand
p2385
aVdollars
p2386
ag17
aaa(lp2387
Vkramer
p2388
a(lp2389
Vc'mon
p2390
ag11
aVyou
p2391
aVcan
p2392
aVcome
p2393
aVup
p2394
aVwith
p2395
aVfive
p2396
aVthousand
p2397
aVdollars
p2398
aVjerry
p2399
ag11
aVyou
p2400
aVdo
p2401
aVn't
p2402
aVhave
p2403
aVfive
p2404
aVthousand
p2405
aVdollars
p2406
aVyou
p2407
aVcan
p2408
aVled
p2409
aVher
p2410
ag140
aVcome
p2411
aVon
p2412
ag17
aaa(lp2413
Vjerry
p2414
a(lp2415
Vyeah
p2416
ag11
aVwell
p2417
ag11
ag12
aVdid
p2418
aVn't
p2419
aVis
p2420
aVthat
p2421
aVsomething
p2422
aVyou
p2423
aVwant
p2424
aVto
p2425
aVborrow
p2426
ag140
aaa(lp2427
Velaine
p2428
a(lp2429
Vno
p2430
ag11
aVthat
p2431
aV's
p2432
aVtoo
p2433
aVmuch
p2434
aVmoney
p2435
aVto
p2436
aVborrow
p2437
ag17
aaa(lp2438
Vkramer
p2439
a(lp2440
Vloan
p2441
aVher
p2442
aVthe
p2443
aVmoney
p2444
ag17
aVyou
p2445
aVcan
p2446
aVafford
p2447
aVit
p2448
ag17
aaa(lp2449
Vjerry
p2450
a(lp2451
Vshe
p2452
aVdoes
p2453
aVn't
p2454
aVwant
p2455
aVto
p2456
aVborrow
p2457
aVthe
p2458
aVmoney
p2459
ag17
aaa(lp2460
Vkramer
p2461
a(lp2462
Voh
p2463
ag11
aVc'mon
p2464
ag17
aVshe
p2465
aV'll
p2466
aVpay
p2467
aVyou
p2468
aVback
p2469
ag17
aVwhat
p2470
aV's
p2471
aVfive
p2472
aVgrand
p2473
aVbetween
p2474
aVfriends
p2475
ag140
aaa(lp2476
Velaine
p2477
a(lp2478
Vof
p2479
aVcourse
p2480
ag12
aV'd
p2481
aVpay
p2482
aVyou
p2483
aVback
p2484
aaa(lp2485
Vkramer
p2486
a(lp2487
Vyeah
p2488
ag11
aVso
p2489
aVwhat
p2490
aV's
p2491
aVthe
p2492
aVproblem
p2493
ag140
aaa(lp2494
Vjerry
p2495
a(lp2496
Vwho
p2497
aVsaid
p2498
aVthere
p2499
aV's
p2500
ag45
aVproblem
p2501
ag140
aaa(lp2502
Vkramer
p2503
a(lp2504
Vhe
p2505
aVsaid
p2506
aVhe
p2507
aV'd
p2508
aVloan
p2509
aVyou
p2510
aVthe
p2511
aVmoney
p2512
ag17
aaa(lp2513
Velaine
p2514
a(lp2515
Vwell
p2516
aVjerry
p2517
ag11
aVit
p2518
aVmight
p2519
aVtake
p2520
ag45
aVwhile
p2521
aVfor
p2522
aVme
p2523
aVto
p2524
aVpay
p2525
aVyou
p2526
aVback
p2527
ag17
aVmaybe
p2528
ag45
aVfew
p2529
aVyears
p2530
ag17
aVhow
p2531
aVdo
p2532
aVyou
p2533
aVfeel
p2534
aVabout
p2535
aVthat
p2536
ag140
aaa(lp2537
Vkramer
p2538
a(lp2539
Vthat
p2540
aV's
p2541
aVokay
p2542
ag17
aVhe
p2543
aVdoes
p2544
aVn't
p2545
aVcare
p2546
ag17
aaa(lp2547
Velaine
p2548
a(lp2549
Vyou
p2550
aVknow
p2551
ag11
aVmoney
p2552
aVcan
p2553
aVsometimes
p2554
aVcome
p2555
aVbetween
p2556
aVfriends
p2557
ag17
aaa(lp2558
Vkramer
p2559
a(lp2560
Vget
p2561
aVoutta
p2562
aVhere
p2563
ag17
aaa(lp2564
Velaine
p2565
a(lp2566
Vlet
p2567
aVme
p2568
aVthink
p2569
aVabout
p2570
aVit
p2571
ag17
aaa(lp2572
Vkramer
p2573
a(lp2574
Vwhat
p2575
aV's
p2576
aVto
p2577
aVthink
p2578
aVabout
p2579
ag140
aaa(lp2580
Velaine
p2581
a(lp2582
g12
aVdo
p2583
aVn't
p2584
aVknow
p2585
ag12
aVdo
p2586
aVn't
p2587
aVknow
p2588
ag17
aVfive
p2589
aVthousand
p2590
aVlet
p2591
aVme
p2592
aVjust
p2593
aVtake
p2594
aVone
p2595
aVmore
p2596
aVlook
p2597
aVat
p2598
aVit
p2599
ag17
aaa(lp2600
Vjerry
p2601
a(lp2602
Vit
p2603
aVwas
p2604
aVall
p2605
aVover
p2606
ag463
aVtaken
p2607
aVcare
p2608
aVof
p2609
ag17
aVdone
p2610
ag463
aVfinished
p2611
ag17
aVfive
p2612
aVthousand
p2613
aVwhere
p2614
aV's
p2615
aVshe
p2616
aVgon
p2617
aVna
p2618
aVget
p2619
aVfive
p2620
aVthousand
p2621
ag140
aVshe
p2622
aVdoes
p2623
aVn't
p2624
aVhave
p2625
aVfive
p2626
aVthousand
p2627
ag17
aVclean
p2628
ag17
aVgood
p2629
aVbye
p2630
ag17
aVshe
p2631
aV's
p2632
aVgone
p2633
ag17
aVthen
p2634
aVyou
p2635
aVcome
p2636
aVin
p2637
ag11
aVwhy
p2638
aVdo
p2639
aVn't
p2640
aVyou
p2641
aVloan
p2642
aVher
p2643
aVfive
p2644
aVthousand
p2645
ag140
aVwhat
p2646
aVdo
p2647
aVyou
p2648
aVcare
p2649
ag140
aVyou
p2650
aV've
p2651
aVgot
p2652
aVfive
p2653
aVthousand
p2654
ag17
aVgive
p2655
aVher
p2656
aVfive
p2657
aVthousand
p2658
ag17
aaa(lp2659
Vkramer
p2660
a(lp2661
Vyou
p2662
aVdid
p2663
aVn't
p2664
aVwant
p2665
aVher
p2666
aVin
p2667
aVthe
p2668
aVbuilding
p2669
ag140
aaa(lp2670
Vjerry
p2671
a(lp2672
Vno
p2673
ag11
ag12
aVdid
p2674
aVn't
p2675
ag463
aaa(lp2676
Vkramer
p2677
a(lp2678
Vwell
p2679
ag11
aVthen
p2680
aVwhat
p2681
aVdid
p2682
aVyou
p2683
aVloan
p2684
aVher
p2685
aVthe
p2686
aVfive
p2687
aVthousand
p2688
aVfor
p2689
ag140
aVoh
p2690
ag11
aVlook
p2691
ag11
aVmaybe
p2692
aVshe
p2693
aVwo
p2694
aVn't
p2695
aVtake
p2696
aVit
p2697
ag12
aVmean
p2698
ag11
aVshe
p2699
aVdid
p2700
aVsay
p2701
aVthat
p2702
aVshe
p2703
aVwas
p2704
aVgoing
p2705
aVto
p2706
aVthink
p2707
aVabout
p2708
aVit
p2709
ag17
aaa(lp2710
Vjerry
p2711
a(lp2712
Vpeople
p2713
aVdo
p2714
aVn't
p2715
aVturn
p2716
aVdown
p2717
aVmoney
p2718
ag463
aVit
p2719
aV's
p2720
aVwhat
p2721
aVseparates
p2722
aVus
p2723
aVfrom
p2724
aVthe
p2725
aVanimals
p2726
ag17
aaa(lp2727
Vkramer
p2728
a(lp2729
g12
aVstill
p2730
aVdo
p2731
aVn't
p2732
aVunderstand
p2733
aVwhat
p2734
aVthe
p2735
aVproblem
p2736
aVis
p2737
aVhaving
p2738
aVher
p2739
aVin
p2740
aVthe
p2741
aVbuilding
p2742
ag17
aaa(lp2743
Vjerry
p2744
a(lp2745
Vlet
p2746
aVme
p2747
aVexplain
p2748
aVsomething
p2749
aVto
p2750
aVyou
p2751
aVyou
p2752
aVsee
p2753
ag11
aVyou
p2754
aV're
p2755
aVnot
p2756
aVnormal
p2757
ag17
aVyou
p2758
aV're
p2759
ag45
aVgreat
p2760
aVguy
p2761
ag11
ag12
aVlove
p2762
aVyou
p2763
ag11
aVbut
p2764
aVyou
p2765
aV're
p2766
ag45
aVpod
p2767
ag17
ag12
ag11
aVon
p2768
aVthe
p2769
aVother
p2770
aVhand
p2771
ag11
aVam
p2772
ag45
aVhuman
p2773
aVbeing
p2774
ag17
aaa(lp2775
Vi
p2776
a(lp2777
Vsometimes
p2778
aVfeel
p2779
aVawkward
p2780
ag11
aVuncomfortable
p2781
ag11
aVeven
p2782
aVinhibited
p2783
aVin
p2784
aVcertain
p2785
aVsituations
p2786
aVwith
p2787
aVthe
p2788
aVother
p2789
aVhuman
p2790
aVbeings
p2791
ag17
aVyou
p2792
aVwould
p2793
aVn't
p2794
aVunderstand
p2795
ag17
aaa(lp2796
Vkramer
p2797
a(lp2798
Vbecause
p2799
ag12
aV'm
p2800
ag45
aVpod
p2801
ag140
aaa(lp2802
Velaine
p2803
a(lp2804
g12
aV'll
p2805
aVtake
p2806
aVit
p2807
ag463
aaa(lp2808
Vroxanne
p2809
a(lp2810
Vhi
p2811
ag11
aVelaine
p2812
aaa(lp2813
Velaine
p2814
a(lp2815
Voh
p2816
ag11
aVhi
p2817
ag11
aVroxanne
p2818
ag17
aVnice
p2819
aVto
p2820
aVbe
p2821
aVhere
p2822
ag17
aVthese
p2823
aVare
p2824
aVmy
p2825
aVfriends
p2826
ag17
aVthis
p2827
aVis
p2828
aVgeorge
p2829
ag11
aVand
p2830
aVthis
p2831
aVis
p2832
aVjerry
p2833
ag17
aVjerry
p2834
aV's
p2835
aVthe
p2836
aVone
p2837
aVwho
p2838
aVgot
p2839
aVme
p2840
aVmy
p2841
aVnew
p2842
aVapartment
p2843
ag463
aaa(lp2844
Vroxanne
p2845
a(lp2846
Vso
p2847
ag11
aVyou
p2848
aV're
p2849
aVelaine
p2850
aV's
p2851
aVhero
p2852
ag17
aaa(lp2853
Vjerry
p2854
a(lp2855
Vyeah
p2856
ag11
aVit
p2857
aV's
p2858
aVmy
p2859
aVlife
p2860
aV's
p2861
aVwork
p2862
ag17
aaa(lp2863
Vroxanne
p2864
a(lp2865
Vthere
p2866
aVare
p2867
aVso
p2868
aVfew
p2869
aVtrue
p2870
aVheros
p2871
aVleft
p2872
aVin
p2873
aVthis
p2874
aVworld
p2875
ag17
aaa(lp2876
Vgeorge
p2877
a(lp2878
Vyeah
p2879
ag11
aVmy
p2880
aVwife
p2881
aVcould
p2882
aVn't
p2883
aVmake
p2884
aVit
p2885
aVtoday
p2886
ag17
aVshe
p2887
aV's
p2888
aVgot
p2889
aVsome
p2890
aVthing
p2891
aVwith
p2892
aVher
p2893
aVmother
p2894
aVwho
p2895
aVknow
p2896
aV's
p2897
aVwhat
p2898
aVgoing
p2899
aVon
p2900
aVwith
p2901
aVher
p2902
ag17
aVdo
p2903
aVn't
p2904
aVlet
p2905
aVany
p2906
aVone
p2907
aVkid
p2908
aVyou
p2909
ag11
aVit
p2910
aV's
p2911
aVtough
p2912
ag17
aaa(lp2913
Vjerry
p2914
a(lp2915
Vwell
p2916
ag11
aVbetter
p2917
aVload
p2918
aVup
p2919
aVon
p2920
aVsome
p2921
aVcarbos
p2922
aVbefore
p2923
aVthe
p2924
aVrace
p2925
ag17
aaa(lp2926
Vroxanne
p2927
a(lp2928
Voh
p2929
ag11
aVthe
p2930
aVmarathon
p2931
aVis
p2932
aVgreat
p2933
ag11
aVis
p2934
aVn't
p2935
aVit
p2936
ag140
aaa(lp2937
Vjerry
p2938
a(lp2939
Voh
p2940
ag11
aVyes
p2941
ag17
aVparticularily
p2942
aVif
p2943
aVyour
p2944
aVnot
p2945
aVin
p2946
aVit
p2947
ag17
aaa(lp2948
Vroxanne
p2949
a(lp2950
g12
aVwish
p2951
aVwe
p2952
aVhad
p2953
ag45
aVview
p2954
aVof
p2955
aVthe
p2956
aVfinish
p2957
aVline
p2958
ag17
aaa(lp2959
Vjerry
p2960
a(lp2961
Vwhat
p2962
aV's
p2963
aVto
p2964
aVsee
p2965
ag140
ag45
aVwoman
p2966
aVfrom
p2967
aVnorway
p2968
ag11
ag45
aVguy
p2969
aVfrom
p2970
aVkenya
p2971
ag11
aVand
p2972
aVtwenty
p2973
aVthousand
p2974
aVlosers
p2975
ag17
aaa(lp2976
Vgeorge
p2977
a(lp2978
Vyeah
p2979
ag11
aVmy
p2980
aVwife
p2981
aVstarted
p2982
aVgetting
p2983
aVon
p2984
aVme
p2985
aVabout
p2986
aVthe
p2987
aVlawn
p2988
aVtoday
p2989
ag17
ag12
aV'm
p2990
aVtellin
p2991
aV'
p2992
aVya
p2993
ag11
aVit
p2994
aV's
p2995
aVone
p2996
aVthing
p2997
aVafter
p2998
aVanother
p2999
ag17
aaa(lp3000
Vrita
p3001
a(lp3002
Vis
p3003
aVshe
p3004
aVhere
p3005
ag140
aaa(lp3006
Vgeorge
p3007
a(lp3008
Vno
p3009
ag11
aVshe
p3010
aV's
p3011
aVworking
p3012
ag17
aaa(lp3013
Vrita
p3014
a(lp3015
Vwhat
p3016
aVdoes
p3017
aVshe
p3018
aVdo
p3019
ag140
aaa(lp3020
Vgeorge
p3021
a(lp3022
Vshe
p3023
aV's
p3024
aVan
p3025
aVentymologist
p3026
ag706
aVyou
p3027
aVknow
p3028
ag11
aVbees
p3029
ag11
aVflies
p3030
ag11
aVgnats
p3031
ag17
aVwhat
p3032
aVabout
p3033
aVyou
p3034
ag140
aaa(lp3035
Vrita
p3036
a(lp3037
g12
aVwork
p3038
aVfor
p3039
aVthe
p3040
aVdirector
p3041
aVof
p3042
aVmadison
p3043
aVsquare
p3044
aVgarden
p3045
ag17
aVit
p3046
aV's
p3047
aVgreat
p3048
ag463
ag12
aVcan
p3049
aVget
p3050
aVfree
p3051
aVtickets
p3052
aVto
p3053
aVany
p3054
aVsporting
p3055
aVeven
p3056
aVin
p3057
aVnew
p3058
aVyork
p3059
ag17
aVanyway
p3060
ag11
aVshe
p3061
aV's
p3062
ag45
aVvery
p3063
aVluck
p3064
aVwoman
p3065
ag17
aaa(lp3066
Vgeorge
p3067
a(lp3068
Vbut
p3069
aaa(lp3070
Vroxanne
p3071
a(lp3072
Vhi
p3073
aVstan
p3074
ag17
aVjoanne
p3075
ag17
aaa(lp3076
Velaine
p3077
a(lp3078
Vjerry
p3079
ag11
aVthis
p3080
aVis
p3081
aVjoanne
p3082
ag11
aVand
p3083
aVthis
p3084
aVis
p3085
aVstan
p3086
ag17
aVthey
p3087
aV're
p3088
aVin
p3089
aVmy
p3090
aVshort
p3091
aVstory
p3092
aVclass
p3093
aVwith
p3094
aVroxanne
p3095
aVand
p3096
aVme
p3097
ag17
aVhey
p3098
ag11
aVjerry
p3099
aVjust
p3100
aVgot
p3101
aVme
p3102
ag45
aVgreat
p3103
aVapartment
p3104
aVin
p3105
aVhis
p3106
aVbuilding
p3107
ag463
aaa(lp3108
Vjoanne
p3109
a(lp3110
Vwell
p3111
ag11
aVjerry
p3112
ag11
aVit
p3113
aV'll
p3114
aVbe
p3115
aVnice
p3116
aVhaving
p3117
ag45
aVclose
p3118
aVfriend
p3119
aVnearby
p3120
ag140
aaa(lp3121
Vjerry
p3122
a(lp3123
Vfantastic
p3124
aaa(lp3125
Vstan
p3126
a(lp3127
Vshe
p3128
aVcan
p3129
aVpop
p3130
aVin
p3131
aVwhenever
p3132
aVshe
p3133
aVwants
p3134
ag17
aaa(lp3135
Vjerry
p3136
a(lp3137
g12
aVknow
p3138
ag17
aaa(lp3139
Vjoanne
p3140
a(lp3141
Vshe
p3142
aVdoes
p3143
aVn't
p3144
aVeven
p3145
aVneed
p3146
aVto
p3147
aVknock
p3148
ag463
aaa(lp3149
Vjerry
p3150
a(lp3151
Vit
p3152
aV's
p3153
aVtremendous
p3154
ag17
aaa(lp3155
Vstan
p3156
a(lp3157
Vanytime
p3158
aVof
p3159
aVday
p3160
ag17
aaa(lp3161
Vjerry
p3162
a(lp3163
g12
aV'm
p3164
aVin
p3165
aVheaven
p3166
ag17
aaa(lp3167
Velaine
p3168
a(lp3169
Voh
p3170
ag11
aVrita
p3171
aVcome
p3172
aVhere
p3173
ag17
aVthis
p3174
aVis
p3175
aVjerry
p3176
ag17
aVhe
p3177
aV's
p3178
aVthe
p3179
aVone
p3180
aVwho
p3181
aVgot
p3182
aVme
p3183
aVthe
p3184
aVapartment
p3185
ag17
aaa(lp3186
Vrita
p3187
a(lp3188
Voh
p3189
ag11
aVhi
p3190
ag17
aVbob
p3191
ag11
aVthis
p3192
aVis
p3193
aVthe
p3194
aVguy
p3195
aVwho
p3196
aVgot
p3197
aVelaine
p3198
aVthe
p3199
aVapartment
p3200
ag17
aaa(lp3201
Vgeorge
p3202
a(lp3203
g12
aV'm
p3204
aVsorry
p3205
ag11
ag12
aVdo
p3206
aVn't
p3207
aVsee
p3208
aVthe
p3209
aVbig
p3210
aVdeal
p3211
aVabout
p3212
aVbeing
p3213
ag45
aVmatador
p3214
ag17
aVthe
p3215
aVbull
p3216
aVcharges
p3217
ag11
aVyou
p3218
aVmove
p3219
aVthe
p3220
aVcape
p3221
ag11
aVwha't
p3222
aVso
p3223
aVhard
p3224
ag140
aaa(lp3225
Vsusie
p3226
a(lp3227
Vso
p3228
ag11
aVare
p3229
aVyou
p3230
aVreally
p3231
aVmarried
p3232
ag140
aVbecause
p3233
ag11
ag12
aV've
p3234
aVactually
p3235
aVheard
p3236
aVof
p3237
aVsingle
p3238
aVguys
p3239
aVwho
p3240
aVwear
p3241
aVwedding
p3242
aVbands
p3243
aVto
p3244
aVattrack
p3245
aVwomen
p3246
ag17
aaa(lp3247
Vgeorge
p3248
a(lp3249
Vyou
p3250
aV'd
p3251
aVhave
p3252
aVto
p3253
aVbe
p3254
ag45
aVreal
p3255
aVloser
p3256
aVto
p3257
aVtry
p3258
aVsomething
p3259
aVlike
p3260
aVthat
p3261
ag17
aaa(lp3262
Vsusie
p3263
a(lp3264
Vthat
p3265
aV's
p3266
aVtoo
p3267
aVbad
p3268
ag11
aVbecause
p3269
ag12
aVreally
p3270
aVhave
p3271
ag45
aVthing
p3272
aVfor
p3273
aVbald
p3274
aVguys
p3275
aVwith
p3276
aVglasses
p3277
ag17
aaa(lp3278
Vrita
p3279
a(lp3280
Vhey
p3281
aVeverybody
p3282
ag463
aVhere
p3283
aVcome
p3284
aVthe
p3285
aVrunners
p3286
ag463
aaa(lp3287
Velaine
p3288
a(lp3289
Vso
p3290
aVyou
p3291
aVand
p3292
aVroxanne
p3293
aVare
p3294
aVhitting
p3295
aVit
p3296
aVoff
p3297
ag11
aVhuh
p3298
ag140
aaa(lp3299
Vjerry
p3300
a(lp3301
Voh
p3302
ag11
ag12
aVwould
p3303
aVn't
p3304
aVquite
p3305
aVsay
p3306
aVthat
p3307
ag17
aaa(lp3308
Velaine
p3309
a(lp3310
Vreally
p3311
ag140
aVfrom
p3312
ag45
aVdistance
p3313
ag11
aVyou
p3314
aVseemed
p3315
aVto
p3316
aVbe
p3317
aVcoming
p3318
aVon
p3319
aVto
p3320
aVher
p3321
ag17
aaa(lp3322
Vjerry
p3323
a(lp3324
g12
aV'm
p3325
ag45
aVguy
p3326
aVit
p3327
aValways
p3328
aVlooks
p3329
aVlike
p3330
aVthat
p3331
ag17
aaa(lp3332
Velaine
p3333
a(lp3334
Vbecause
p3335
ag11
ag12
aVwas
p3336
aVthinking
p3337
aVare
p3338
aVyou
p3339
aVat
p3340
aVall
p3341
aVconcerned
p3342
aVthat
p3343
aVliving
p3344
aVin
p3345
aVthe
p3346
aVsame
p3347
aVbuilding
p3348
aVwill
p3349
ag11
aVy'kno
p3350
aVcramp
p3351
aVour
p3352
aVstyles
p3353
ag140
aaa(lp3354
Vjerry
p3355
a(lp3356
Vna
p3357
aaa(lp3358
Velaine
p3359
a(lp3360
Vbecause
p3361
ag11
ag12
aVwas
p3362
aVworried
p3363
aVthat
p3364
aVthere
p3365
aVmight
p3366
aVbe
p3367
ag45
aVsituation
p3368
aVin
p3369
aVwhich
p3370
aVone
p3371
aVof
p3372
aVus
p3373
aVcome
p3374
aVhome
p3375
aVwith
p3376
aVsomebody
p3377
ag11
aVit
p3378
aVcould
p3379
aVget
p3380
ag45
aVlittle
p3381
aVuncomfortable
p3382
ag17
aVbut
p3383
ag706
aVas
p3384
aVlong
p3385
aVas
p3386
aVyou
p3387
aV're
p3388
aVokay
p3389
aVwith
p3390
aVit
p3391
ag11
aVit
p3392
aV's
p3393
aVfine
p3394
aVwith
p3395
aVme
p3396
ag17
aaa(lp3397
Vjanice
p3398
a(lp3399
g12
aV've
p3400
aVnever
p3401
aVbeen
p3402
aVable
p3403
aVto
p3404
aVbe
p3405
aVwith
p3406
aVjust
p3407
aVone
p3408
aVperson
p3409
ag17
ag12
aVcan
p3410
ag11
aVhowever
p3411
ag11
aVcarry
p3412
aVon
p3413
aVstrictly
p3414
aVphysical
p3415
aVrelationships
p3416
aVwhich
p3417
aVcan
p3418
aVlast
p3419
aVfor
p3420
aVyears
p3421
aVand
p3422
aVyears
p3423
ag17
aVit
p3424
aV's
p3425
ag45
aVshame
p3426
aVyou
p3427
aV're
p3428
aVmarried
p3429
aaa(lp3430
Vgeorge
p3431
a(lp3432
g12
aV'm
p3433
aVnot
p3434
ag17
aVit
p3435
aV's
p3436
aVjust
p3437
ag45
aVsociological
p3438
aVexperiment
p3439
ag463
aaa(lp3440
Vjanice
p3441
a(lp3442
Vplease
p3443
aaa(lp3444
Vjerry
p3445
a(lp3446
Vyou
p3447
aVhave
p3448
aVno
p3449
aVidea
p3450
aVwhat
p3451
aVan
p3452
aVidiot
p3453
aVit
p3454
ag17
aVelaine
p3455
aVjust
p3456
aVgave
p3457
aVme
p3458
ag45
aVchance
p3459
aVto
p3460
aVget
p3461
aVout
p3462
aVand
p3463
ag12
aVdid
p3464
aVn't
p3465
aVtake
p3466
aVit
p3467
ag17
aVthis
p3468
aVis
p3469
aVan
p3470
aVidiot
p3471
ag17
aaa(lp3472
Vgeorge
p3473
a(lp3474
Vis
p3475
aVthat
p3476
aVright
p3477
ag140
ag12
aVjust
p3478
aVthrew
p3479
aVaway
p3480
ag45
aVlifetime
p3481
aVof
p3482
aVguilt-free
p3483
aVsex
p3484
aVand
p3485
aVfloor
p3486
aVseats
p3487
aVfor
p3488
aVever
p3489
aVsporting
p3490
aVevent
p3491
aVin
p3492
aVmadison
p3493
aVsquare
p3494
aVgarden
p3495
ag17
aVso
p3496
aVplease
p3497
ag11
ag45
aVlittle
p3498
aVrespect
p3499
ag17
aVfor
p3500
ag12
aVam
p3501
aVcostanza
p3502
ag17
aVlord
p3503
aVof
p3504
aVthe
p3505
aVidiots
p3506
ag463
aaa(lp3507
Vroxanne
p3508
a(lp3509
Vyou
p3510
aV're
p3511
aVall
p3512
aVwinners
p3513
ag463
aaa(lp3514
Vgeorge
p3515
a(lp3516
Vbut
p3517
aVsuddenly
p3518
ag11
ag45
aVnew
p3519
aVcontender
p3520
aVhas
p3521
aVemerged
p3522
aaa(lp3523
Vjerry
p3524
a(lp3525
Vgeorge
p3526
ag11
ag12
aVdid
p3527
aVn't
p3528
aVsleep
p3529
aVat
p3530
aVall
p3531
aVlast
p3532
aVnight
p3533
ag12
aVdecided
p3534
ag12
aVhave
p3535
aVto
p3536
aVtell
p3537
aVher
p3538
ag12
aV'm
p3539
aVjust
p3540
aVgoing
p3541
aVto
p3542
aVbe
p3543
aVhonest
p3544
ag17
aVthat
p3545
aV's
p3546
aVall
p3547
aVyes
p3548
ag11
ag12
aV'm
p3549
aVnervous
p3550
aVare
p3551
aVyou
p3552
aVlistening
p3553
aVto
p3554
aVme
p3555
ag140
aVjust
p3556
aVput
p3557
aVsome
p3558
aVsoap
p3559
aVon
p3560
aVyour
p3561
aVfinger
p3562
aVit
p3563
aV'll
p3564
aVslide
p3565
aVright
p3566
aVoff
p3567
aVthen
p3568
aVtry
p3569
aVaxle
p3570
aVgrease
p3571
ag17
ag12
aV'll
p3572
aVcall
p3573
aVyou
p3574
aVback
p3575
aVafter
p3576
ag12
aVtalk
p3577
aVto
p3578
aVher
p3579
ag17
aVbye
p3580
ag17
aaa(lp3581
Vkramer
p3582
a(lp3583
Vwell
p3584
ag11
aVit
p3585
aV's
p3586
aVall
p3587
aVtaken
p3588
aVcare
p3589
aVof
p3590
ag17
aVeverything
p3591
aV's
p3592
aVcool
p3593
ag17
aaa(lp3594
Vjerry
p3595
a(lp3596
Vwhat
p3597
ag140
aVwhat
p3598
aV's
p3599
aVcool
p3600
ag140
aaa(lp3601
Vkramer
p3602
a(lp3603
Velaine
p3604
ag17
aaa(lp3605
Vjerry
p3606
a(lp3607
Vwhat
p3608
aVare
p3609
aVyou
p3610
aVtalking
p3611
aVabout
p3612
ag140
aaa(lp3613
Vkramer
p3614
a(lp3615
g12
aVjust
p3616
aVfound
p3617
ag45
aVguy
p3618
aVwho
p3619
aV's
p3620
aVwilling
p3621
aVto
p3622
aVpay
p3623
aVten
p3624
aVthousand
p3625
aVdollars
p3626
aVfor
p3627
aVthe
p3628
aVapartment
p3629
ag17
aaa(lp3630
Vjerry
p3631
a(lp3632
Vyou
p3633
aVwhat
p3634
ag140
ag463
aVget
p3635
aVout
p3636
ag463
aVten
p3637
aVthousand
p3638
ag140
aaa(lp3639
Vkramer
p3640
a(lp3641
Vcash
p3642
ag17
aaa(lp3643
Vjerry
p3644
a(lp3645
Vwho
p3646
aVwould
p3647
aVpay
p3648
aVthat
p3649
aVmuch
p3650
ag140
aaa(lp3651
Vkramer
p3652
a(lp3653
Vhe
p3654
aV's
p3655
aVin
p3656
aVthe
p3657
aVmusic
p3658
aVbusiness
p3659
ag17
aaa(lp3660
Vjerry
p3661
a(lp3662
Velaine
p3663
aVwould
p3664
aVnever
p3665
aVborrow
p3666
aVthat
p3667
aVmuch
p3668
aVmoney
p3669
ag463
aVkramer
p3670
ag11
aVmy
p3671
aVgod
p3672
ag11
aVman
p3673
ag463
aVthis
p3674
aVis
p3675
aVbeautiful
p3676
ag463
ag12
aVthink
p3677
ag12
aV'm
p3678
aVin
p3679
aVthe
p3680
aVclear
p3681
aVhere
p3682
ag17
aVelaine
p3683
aV's
p3684
aVnot
p3685
aVmoving
p3686
aVin
p3687
ag463
ag12
aVdo
p3688
aVn't
p3689
aVhave
p3690
aVto
p3691
aVconfront
p3692
aVher
p3693
ag463
aVshe
p3694
aVhas
p3695
aVno
p3696
aVidea
p3697
ag12
aVnever
p3698
aVwanted
p3699
aVher
p3700
aVto
p3701
aVmove
p3702
aVin
p3703
ag12
aVm
p3704
aVgolden
p3705
ag463
aaa(lp3706
Vkramer
p3707
a(lp3708
Vwell
p3709
ag11
aVoccasionally
p3710
ag11
ag12
aVlike
p3711
aVto
p3712
aVhelp
p3713
aVthe
p3714
aVhumans
p3715
ag17
aaa(lp3716
Velaine
p3717
a(lp3718
Vwow
p3719
ag17
aVyou
p3720
aV're
p3721
aVright
p3722
ag17
aVthat
p3723
aVis
p3724
aVloud
p3725
ag17
aaa(lp3726
Vjerry
p3727
a(lp3728
Vit
p3729
aV's
p3730
aVjust
p3731
aVunbelievable
p3732
ag17
aaa(lp3733
Velaine
p3734
a(lp3735
Vthey
p3736
aVrehearse
p3737
aVall
p3738
aVthe
p3739
aVtime
p3740
ag140
aaa(lp3741
Vjerry
p3742
a(lp3743
Vall
p3744
aVthe
p3745
aVtime
p3746
ag17
ag12
aV've
p3747
aVbeen
p3748
aVup
p3749
aVthere
p3750
aVsix
p3751
aVtimes
p3752
ag17
aVthey
p3753
aVrefuse
p3754
aVto
p3755
aVstop
p3756
ag17
ag12
aVca
p3757
aVn't
p3758
aVlive
p3759
aVlike
p3760
aVthis
p3761
ag17
ag12
aVdo
p3762
aVn't
p3763
aVknow
p3764
aVwhat
p3765
ag12
aV'm
p3766
aVgon
p3767
aVna
p3768
aVdo
p3769
ag17
ag12
aV'm
p3770
aVheading
p3771
aVfor
p3772
aVbreakdown
p3773
ag463
aVca
p3774
aVn't
p3775
aVyou
p3776
aVdo
p3777
aVsomething
p3778
ag140
aaa(lp3779
Vharold
p3780
a(lp3781
g12
aV'm
p3782
aVnot
p3783
aVgoing
p3784
aVup
p3785
ag17
aVit
p3786
aVstinks
p3787
aVup
p3788
aVthere
p3789
ag17
aaa(lp3790
Vjerry
p3791
a(lp3792
Vmanny
p3793
aaa(lp3794
Vmanny
p3795
a(lp3796
Vthey
p3797
aV're
p3798
aVallowed
p3799
aVto
p3800
aVplay
p3801
aVuntil
p3802
aVeleven
p3803
aVo
p3804
ag2992
aVclock
p3805
ag17
aaa(lp3806
Vharold
p3807
a(lp3808
g12
aV'm
p3809
aVnot
p3810
aVthe
p3811
aVone
p3812
aVwho
p3813
aVsaid
p3814
aVeleven
p3815
ag3804
ag2992
aVclock
p3816
ag17
aVhe
p3817
aVmakes
p3818
aVup
p3819
aVhis
p3820
aVown
p3821
aVrules
p3822
ag17
aaa(lp3823
Velaine
p3824
a(lp3825
Vboy
p3826
ag11
aVtoo
p3827
aVbad
p3828
ag17
aVif
p3829
ag12
aVwas
p3830
aVup
p3831
aVthere
p3832
ag11
aVyou
p3833
aV'd
p3834
aVnever
p3835
aVhear
p3836
ag45
aVpeep
p3837
aVout
p3838
aVof
p3839
aVme
p3840
ag17
ag12
aV'm
p3841
aVas
p3842
aVquiet
p3843
aVas
p3844
ag45
aVmouse
p3845
ag17
aaa(lp3846
Vkramer
p3847
a(lp3848
Voh
p3849
ag11
ag12
aVlove
p3850
aVthe
p3851
aVone
p3852
aVthey
p3853
aVdo
p3854
aVright
p3855
aVafter
p3856
aVthis
p3857
aVone
p3858
ag463
aaa.